RASU8(ML610112)Relocatable Assembler, Ver.1.61.2    assemble list. page:   1 
 Source File: _output\_obj\main.asm
 Object File: _output\_obj\main.obj
 Date  : 2013/10/09 Wed.[11:17]
 Title : 
## Loc. Object                   Line   Source Statements

                                    1   ;; Compile Options : /TML610112 /MS /near /Icommon /Imain /Iirq /Itimer /Iclock /Itbc /Iuart /Ii2c /SS 256 /SD /Oa /Ot /W 3 /Wc /Fa_output\_obj\ 
                                    2   ;; Version Number  : Ver.3.31.4
                                    3   ;; File Name       : main.c
                                    4   
                                    5   	type (ML610112) 
                                    6   	model small, near
                                    7   	$$NVARmain segment data 2h #0h
                                    8   	$$NINITVAR segment data 2h #0h
                                    9   	$$NINITTAB segment table 2h any
                                   10   	$$Initialization$main segment code 2h #0h
                                   11   	$$NOP1000$main segment code 2h #0h
                                   12   	$$PinB0_PWM$main segment code 2h #0h
                                   13   	$$PortA_Digital_Inputs$main segment code 2h #0h
                                   14   	$$PortA_Low$main segment code 2h #0h
                                   15   	$$PortB_Low$main segment code 2h #0h
                                   16   	$$PortC_Low$main segment code 2h #0h
                                   17   	$$PortD_Low$main segment code 2h #0h
                                   18   	$$SetOSC$main segment code 2h #0h
                                   19   	$$TAB_uartSetParam$main segment table 2h #0h
                                   20   	$$_funcI2CFin$main segment code 2h #0h
                                   21   	$$_funcUartFin$main segment code 2h #0h
                                   22   	$$_intI2c$main segment code 2h #0h
                                   23   	$$_intUart$main segment code 2h #0h
                                   24   	$$analog_comparator$main segment code 2h #0h
                                   25   	$$checkI2C$main segment code 2h #0h
                                   26   	$$main$main segment code 2h #0h
                                   27   	$$main_clrWDT$main segment code 2h #0h
                                   28   	$$main_reqNotHalt$main segment code 2h #0h
                                   29   	STACKSEG 0100h
                                   30   CVERSION 3.31.4
                                   31   CGLOBAL 01H 03H 0000H "checkI2C" 08H 02H 88H 00H 81H 02H 00H 00H 07H
                                   32   CGLOBAL 01H 03H 0000H "main_clrWDT" 08H 02H 7CH 00H 80H 00H 00H 00H 07H
                                   33   CSGLOBAL 03H 0000H "_funcUartFin" 08H 02H 86H 00H 81H 02H 00H 00H 07H
                                   34   CGLOBAL 01H 03H 0000H "main_reqNotHalt" 08H 02H 89H 00H 80H 00H 00H 00H 07H
                                   35   CSGLOBAL 03H 0000H "Initialization" 08H 02H 7DH 00H 81H 04H 00H 00H 07H
                                   36   CGLOBAL 01H 03H 0000H "PortA_Digital_Inputs" 08H 02H 84H 00H 80H 00H 00H 00H 07H
                                   37   CGLOBAL 01H 03H 0000H "main" 08H 02H 8DH 00H 80H 08H 00H 00H 01H
                                   38   CSGLOBAL 03H 0000H "_intUart" 08H 02H 8AH 00H 80H 00H 00H 00H 07H
                                   39   CGLOBAL 01H 03H 0000H "PortD_Low" 08H 02H 83H 00H 80H 00H 00H 00H 07H
                                   40   CGLOBAL 01H 03H 0000H "NOP1000" 08H 02H 8CH 00H 80H 00H 00H 00H 07H
                                   41   CSGLOBAL 03H 0000H "_intI2c" 08H 02H 8BH 00H 81H 02H 00H 00H 07H
                                   42   CSGLOBAL 03H 0000H "SetOSC" 08H 02H 7EH 00H 80H 00H 00H 00H 07H
                                   43   CGLOBAL 01H 03H 0000H "PortC_Low" 08H 02H 82H 00H 80H 00H 00H 00H 07H
                                   44   CGLOBAL 01H 03H 0000H "PortB_Low" 08H 02H 81H 00H 80H 00H 00H 00H 07H
                                   45   CGLOBAL 01H 03H 0000H "PortA_Low" 08H 02H 80H 00H 80H 00H 00H 00H 07H
                                   46   CGLOBAL 01H 03H 0000H "analog_comparator" 08H 02H 7FH 00H 80H 00H 00H 00H 07H
                                   47   CSGLOBAL 03H 0000H "_funcI2CFin" 08H 02H 87H 00H 81H 02H 00H 00H 07H
                                   48   CGLOBAL 01H 03H 0000H "PinB0_PWM" 08H 02H 85H 00H 80H 00H 00H 00H 07H
                                   49   CSTRUCTTAG 0000H 0000H 0006H 0003H 00000001H "_Notag"
                                   50   CSTRUCTMEM 52H 00000001H 00000000H "state" 02H 00H 00H
                                   51   CSTRUCTMEM 52H 00000002H 00000001H "state_sub" 02H 00H 00H
                                   52   CSTRUCTMEM 52H 00000005H 00000003H "reserve" 02H 00H 00H
                                   53   CSTRUCTTAG 0000H 0000H 0005H 000CH 00000016H "_Notag"
                                   54   CSTRUCTMEM 42H 00000002H 00000000H "_Mode" 02H 00H 08H
                                   55   CSTRUCTMEM 43H 00000002H 00000002H "_Handle" 02H 00H 08H
                                   56   CSTRUCTMEM 42H 00000002H 00000004H "_Buf" 04H 03H 00H 00H 00H
                                   57   CSTRUCTMEM 42H 00000002H 00000006H "_Bend" 04H 03H 00H 00H 00H
                                   58   CSTRUCTMEM 42H 00000002H 00000008H "_Next" 04H 03H 00H 00H 00H
                                   59   CSTRUCTMEM 42H 00000002H 0000000AH "_Rend" 04H 03H 00H 00H 00H
                                   60   CSTRUCTMEM 42H 00000002H 0000000CH "_Rsave" 04H 03H 00H 00H 00H
                                   61   CSTRUCTMEM 42H 00000002H 0000000EH "_Wend" 04H 03H 00H 00H 00H
                                   62   CSTRUCTMEM 42H 00000002H 00000010H "_Back" 05H 01H 02H 00H 00H 00H
                                   63   CSTRUCTMEM 42H 00000001H 00000012H "_Cbuf" 02H 00H 00H
                                   64   CSTRUCTMEM 42H 00000001H 00000013H "_Nback" 02H 00H 00H
                                   65   CSTRUCTMEM 43H 00000002H 00000014H "_Tmpnam" 04H 03H 00H 00H 00H
                                   66   CSTRUCTTAG 0000H 0000H 0004H 0001H 00000004H "_Notag"
                                   67   CSTRUCTMEM 42H 00000004H 00000000H "_Off" 02H 00H 02H
                                   68   CSTRUCTTAG 0000H 0000H 0003H 0006H 0000000AH "_Notag"
                                   69   CSTRUCTMEM 42H 00000004H 00000000H "br" 02H 00H 02H
                                   70   CSTRUCTMEM 42H 00000001H 00000004H "lg" 02H 00H 00H
                                   71   CSTRUCTMEM 42H 00000001H 00000005H "pt" 02H 00H 00H
                                   72   CSTRUCTMEM 42H 00000001H 00000006H "stp" 02H 00H 00H
                                   73   CSTRUCTMEM 42H 00000001H 00000007H "neg" 02H 00H 00H
                                   74   CSTRUCTMEM 42H 00000001H 00000008H "dir" 02H 00H 00H
                                   75   CSTRUCTTAG 0000H 0000H 0002H 0002H 00000008H "_Notag"
                                   76   CSTRUCTMEM 43H 00000004H 00000000H "quot" 02H 00H 02H
                                   77   CSTRUCTMEM 43H 00000004H 00000004H "rem" 02H 00H 02H
                                   78   CSTRUCTTAG 0000H 0000H 0001H 0002H 00000004H "_Notag"
                                   79   CSTRUCTMEM 43H 00000002H 00000000H "quot" 02H 00H 01H
                                   80   CSTRUCTMEM 43H 00000002H 00000002H "rem" 02H 00H 01H
                                   81   CSTRUCTTAG 0000H 0000H 0000H 0008H 00000001H "_Notag"
                                   82   CSTRUCTMEM 52H 00000001H 00000000H "b0" 02H 00H 00H
                                   83   CSTRUCTMEM 52H 00000001H 00000001H "b1" 02H 00H 00H
                                   84   CSTRUCTMEM 52H 00000001H 00000002H "b2" 02H 00H 00H
                                   85   CSTRUCTMEM 52H 00000001H 00000003H "b3" 02H 00H 00H
                                   86   CSTRUCTMEM 52H 00000001H 00000004H "b4" 02H 00H 00H
                                   87   CSTRUCTMEM 52H 00000001H 00000005H "b5" 02H 00H 00H
                                   88   CSTRUCTMEM 52H 00000001H 00000006H "b6" 02H 00H 00H
                                   89   CSTRUCTMEM 52H 00000001H 00000007H "b7" 02H 00H 00H
                                   90   CENUMTAG 0000H 0000H 0007H 0003H "Status"
                                   91   CENUMMEM 00000000H "CONTINUE"
                                   92   CENUMMEM 00000001H "WON"
                                   93   CENUMMEM 00000002H "LOST"
                                   94   CTYPEDEF 0000H 0000H 43H "_Ptrdifft" 02H 00H 01H
                                   95   CTYPEDEF 0000H 0000H 42H "_Sizet" 02H 00H 01H
                                   96   CTYPEDEF 0000H 0000H 43H "tUartSetParam" 04H 00H 05H 03H 00H
                                   97   CTYPEDEF 0000H 0000H 42H "size_t" 02H 00H 01H
                                   98   CTYPEDEF 0000H 0000H 43H "cbfUart" 0AH 03H 00H 02H 2EH 00H 00H 00H 00H 00H 07H
                                   99   CTYPEDEF 0000H 0000H 43H "fpos_t" 04H 00H 05H 04H 00H
                                  100   CTYPEDEF 0000H 0000H 43H "STRUCT_STATE" 04H 00H 05H 06H 00H
                                  101   CTYPEDEF 0000H 0000H 43H "cbfI2c" 0AH 03H 00H 02H 43H 00H 00H 00H 00H 00H 07H
                                  102   CTYPEDEF 0000H 0000H 03H "_Cmpfun_nf" 08H 02H 01H 00H 00H 00H 00H 00H 01H
                                  103   CTYPEDEF 0000H 0000H 03H "_Cmpfun_nn" 08H 02H 00H 00H 00H 00H 00H 00H 01H
                                  104   CTYPEDEF 0000H 0000H 03H "_Cmpfun_ff" 08H 02H 03H 00H 00H 00H 00H 00H 01H
                                  105   CTYPEDEF 0000H 0000H 03H "_Cmpfun_fn" 08H 02H 02H 00H 00H 00H 00H 00H 01H
                                  106   CTYPEDEF 0000H 0000H 43H "FILE" 04H 00H 05H 05H 00H
                                  107   CTYPEDEF 0000H 0000H 43H "div_t" 04H 00H 05H 01H 00H
                                  108   CTYPEDEF 0000H 0000H 43H "ldiv_t" 04H 00H 05H 02H 00H
                                  109   CTYPEDEF 0000H 0000H 43H "_BYTE_FIELD" 04H 00H 05H 00H 00H
                                  110   CGLOBAL 00H 42H 0015H "RecWorld" 05H 01H 15H 00H 00H 00H
                                  111   CGLOBAL 00H 42H 0001H "_flgUartFin" 02H 00H 00H
                                  112   CSGLOBAL 42H 002EH "I2C_BUFF" 05H 01H 2EH 00H 00H 00H
                                  113   CSGLOBAL 42H 0001H "I2CNumBytes" 02H 00H 00H
                                  114   CSGLOBAL 42H 0001H "Data2Str_temp" 02H 00H 00H
                                  115   CSGLOBAL 42H 0001H "RegAddr_temp" 02H 00H 00H
                                  116   CSGLOBAL 42H 0001H "Data3Str_temp" 02H 00H 00H
                                  117   CGLOBAL 00H 42H 0002H "testI2C" 02H 00H 01H
                                  118   CGLOBAL 00H 42H 0002H "ret" 02H 00H 01H
                                  119   CSGLOBAL 42H 0008H "I2CReceInfo" 05H 01H 08H 00H 00H 00H
                                  120   CSGLOBAL 42H 0001H "Data0Str_temp" 02H 00H 00H
                                  121   CSGLOBAL 42H 0002H "READ_NAME" 05H 01H 02H 00H 00H 00H
                                  122   CSGLOBAL 42H 0001H "Data1Str_temp" 02H 00H 00H
                                  123   CSGLOBAL 42H 0001H "Data4Str_temp" 02H 00H 00H
                                  124   CSGLOBAL 42H 0001H "Data5Str_temp" 02H 00H 00H
                                  125   CGLOBAL 00H 42H 0002H "UART_VAR" 02H 00H 01H
                                  126   CSGLOBAL 42H 0001H "Data6Str_temp" 02H 00H 00H
                                  127   CSGLOBAL 42H 0002H "PLAY" 05H 01H 02H 00H 00H 00H
                                  128   CSGLOBAL 42H 0001H "Data7Str_temp" 02H 00H 00H
                                  129   CGLOBAL 01H 42H 0016H "AckMCUConn" 05H 01H 16H 00H 00H 00H
                                  130   CGLOBAL 01H 42H 000EH "InputRec" 05H 01H 0EH 00H 00H 00H
                                  131   CSGLOBAL 42H 0001H "I2CNumBytes_temp" 02H 00H 00H
                                  132   CSGLOBAL 01H 000AH "_uartSetParam" 04H 00H 05H 03H 00H
                                  133   CSGLOBAL 42H 0001H "Data2Str" 02H 00H 00H
                                  134   CSGLOBAL 42H 0002H "STOP" 05H 01H 02H 00H 00H 00H
                                  135   CSGLOBAL 42H 0001H "Data3Str" 02H 00H 00H
                                  136   CSGLOBAL 42H 0001H "RegAddr" 02H 00H 00H
                                  137   CGLOBAL 01H 42H 0017H "I2C_RX_Data" 05H 01H 17H 00H 00H 00H
                                  138   CSGLOBAL 42H 0001H "Data0Str" 02H 00H 00H
                                  139   CSGLOBAL 42H 0001H "Data1Str" 02H 00H 00H
                                  140   CGLOBAL 01H 42H 0017H "OutputRec" 05H 01H 17H 00H 00H 00H
                                  141   CSGLOBAL 42H 0001H "I2CAdd" 02H 00H 00H
                                  142   CSGLOBAL 42H 0001H "chari" 02H 00H 00H
                                  143   CSGLOBAL 42H 0001H "charj" 02H 00H 00H
                                  144   CSGLOBAL 42H 0001H "chark" 02H 00H 00H
                                  145   CGLOBAL 01H 42H 000EH "HelloWorld" 05H 01H 0EH 00H 00H 00H
                                  146   CGLOBAL 00H 42H 0001H "_flgI2CFin" 02H 00H 00H
                                  147   CGLOBAL 00H 42H 0001H "_reqNotHalt" 02H 00H 00H
                                  148   CSGLOBAL 42H 0001H "Data6Str" 02H 00H 00H
                                  149   CGLOBAL 01H 42H 0017H "InputStatus" 05H 01H 17H 00H 00H 00H
                                  150   CSGLOBAL 42H 0008H "I2CSendInfo" 05H 01H 08H 00H 00H 00H
                                  151   CSGLOBAL 42H 0001H "Data7Str" 02H 00H 00H
                                  152   CSGLOBAL 42H 0001H "Data4Str" 02H 00H 00H
                                  153   CSGLOBAL 42H 0002H "PAUSE" 05H 01H 02H 00H 00H 00H
                                  154   CGLOBAL 00H 42H 0016H "Q112ToQ111" 05H 01H 16H 00H 00H 00H
                                  155   CSGLOBAL 42H 0001H "Data5Str" 02H 00H 00H
                                  156   CGLOBAL 01H 42H 0015H "I2C_RX_REC" 05H 01H 15H 00H 00H 00H
                                  157   CGLOBAL 01H 42H 0015H "I2C_TX_REC" 05H 01H 15H 00H 00H 00H
                                  158   CSGLOBAL 42H 0001H "I2CAdd_temp" 02H 00H 00H
                                  159   CFILE 0001H 0000085AH "main\\ML610112.H"
                                  160   CFILE 0002H 000000D8H "main\\stdlib.h"
                                  161   CFILE 0003H 0000007AH "main\\yvals.h"
                                  162   CFILE 0004H 0000006BH "uart\\uart.h"
                                  163   CFILE 0005H 00000027H "common\\common.h"
                                  164   CFILE 0006H 00000057H "irq\\irq.h"
                                  165   CFILE 0007H 00000023H "main\\mcu.h"
                                  166   CFILE 0008H 00000045H "i2c\\i2c.h"
                                  167   CFILE 0009H 000000EEH "main\\stdio.h"
                                  168   CFILE 0000H 00000681H "main\\main.c"
                                  169   
  --------------------------      170   	rseg $$main$main
                                  171   CFUNCTION 141
                                  172   
00:0000                           173   _main	:
                                  174   CBLOCK 141 1 251
                                  175   
                                  176   ;;{
                                  177   CLINEA 0000H 0001H 00FBH 0001H 0001H
                                  178   CBLOCK 141 2 251
                                  179   CLOCAL 4BH 0001H 0000H 0002H "char_a" 02H 00H 00H
                                  180   CLOCAL 4AH 0001H 0000H 0002H "uchar" 02H 00H 00H
                                  181   CLOCAL 4BH 0002H 0000H 0002H "inta" 02H 00H 01H
                                  182   CLOCAL 4BH 00C8H 0000H 0002H "table" 05H 01H 64H 00H 00H 01H
                                  183   CLOCAL 4AH 0002H 0000H 0002H "uint" 02H 00H 01H
                                  184   CLOCAL 4BH 0004H 0000H 0002H "long_a" 02H 00H 02H
                                  185   CLOCAL 4BH 0004H 0000H 0002H "delay" 02H 00H 02H
                                  186   CLOCAL 4BH 0004H 0000H 0002H "float_a" 02H 00H 03H
                                  187   CLOCAL 4BH 0008H 0000H 0002H "double_a" 02H 00H 04H
                                  188   CLOCAL 4AH 0001H 0000H 0002H "encoder_position" 02H 00H 00H
                                  189   CLOCAL 4AH 0001H 0000H 0002H "previous_encoder_position" 02H 00H 00H
                                  190   CLOCAL 4AH 0001H 0000H 0002H "button_flag" 02H 00H 00H
                                  191   CLOCAL 47H 0002H 0024H 0002H "i" 02H 00H 01H
                                  192   CLOCAL 4BH 0002H 0000H 0002H "j" 02H 00H 01H
                                  193   CLOCAL 4BH 0002H 0000H 0002H "k" 02H 00H 01H
                                  194   CLOCAL 4BH 0002H 0000H 0002H "x" 02H 00H 01H
                                  195   CLOCAL 4BH 0002H 0000H 0002H "y" 02H 00H 01H
                                  196   CLOCAL 4AH 0001H 0000H 0002H "sndByte" 02H 00H 00H
                                  197   CLOCAL 46H 0002H 0026H 0002H "count" 02H 00H 01H
                                  198   CLOCAL 4BH 0001H 0000H 0002H "maskC" 02H 00H 00H
                                  199   
                                  200   ;;	Initialization(); //Ports, UART, Timers, Oscillator, Comparators, etc.
                                  201   CLINEA 0000H 0001H 010FH 0002H 0047H
00:0000 01-F0'00-00'              202   	bl	_Initialization
                                  203   
                                  204   ;;RX_Loop:	
                                  205   CLINEA 0000H 0001H 0111H 0001H 0009H
                                  206   CLABEL 000AH "RX_Loop"
00:0004                           207   _$L10 :
                                  208   
                                  209   ;;		main_clrWDT();
                                  210   CLINEA 0000H 0001H 0112H 0003H 0010H
00:0004 01-F0'00-00'              211   	bl	_main_clrWDT
                                  212   
                                  213   ;;		for (i=0;i<22;i++)
                                  214   CLINEA 0000H 0001H 0115H 0003H 0014H
00:0008 00 E0                     215   	mov	er0,	#0 
00:000A                           216   _$L13 :
                                  217   CBLOCK 141 3 278
                                  218   
                                  219   ;;			RecWorld[i] = 0;	
                                  220   CLINEA 0000H 0001H 0117H 0004H 0014H
00:000A 00 02                     221   	mov	r2,	#00h
00:000C 09-92 00-00'              222   	st	r2,	NEAR _RecWorld[er0]
                                  223   CBLOCKEND 141 3 280
                                  224   
                                  225   ;;		for (i=0;i<22;i++)
                                  226   CLINEA 0000H 0000H 0115H 0003H 0014H
00:0010 81 E0                     227   	add	er0,	#1 
00:0012 16 70                     228   	cmp	r0,	#016h
00:0014 00 51                     229   	cmpc	r1,	#00h
00:0016 F9 C5                     230   	blts	_$L13
                                  231   
                                  232   ;;		_flgUartFin = 0;
                                  233   CLINEA 0000H 0001H 011BH 0003H 0012H
00:0018 00 00                     234   	mov	r0,	#00h
00:001A 11-90 00-00'              235   	st	r0,	NEAR __flgUartFin
                                  236   
                                  237   ;;		uart_stop();
                                  238   CLINEA 0000H 0001H 011CH 0003H 000EH
00:001E 01-F0'00-00'              239   	bl	_uart_stop
                                  240   
                                  241   ;;		uart_startReceive(RecWorld, 21, _funcUartFin);
                                  242   CLINEA 0000H 0001H 011DH 0003H 0030H
00:0022 00'00                     243   	mov	r0,	#BYTE1 OFFSET __funcUartFin
00:0024 00'01                     244   	mov	r1,	#BYTE2 OFFSET __funcUartFin
00:0026 5E-F0                     245   	push	er0
00:0028 15 E2                     246   	mov	er2,	#21
00:002A 00'00                     247   	mov	r0,	#BYTE1 OFFSET _RecWorld
00:002C 00'01                     248   	mov	r1,	#BYTE2 OFFSET _RecWorld
00:002E 01-F0'00-00'              249   	bl	_uart_startReceive
00:0032 02 E1                     250   	add	sp,	#2 
                                  251   
                                  252   ;;		while(_flgUartFin != 1){
                                  253   CLINEA 0000H 0000H 011EH 0001H 000BH
00:0034 04 CE                     254   	bal	_$L467
                                  255   
                                  256   ;;		while(_flgUartFin != 1){
                                  257   CLINEA 0000H 0000H 011EH 0003H 001AH
00:0036                           258   _$L19 :
                                  259   CBLOCK 141 4 286
                                  260   
                                  261   ;;			NOP1000();
                                  262   CLINEA 0000H 0001H 011FH 0004H 000DH
00:0036 01-F0'00-00'              263   	bl	_NOP1000
                                  264   
                                  265   ;;			main_clrWDT();
                                  266   CLINEA 0000H 0001H 0120H 0004H 0011H
00:003A 01-F0'00-00'              267   	bl	_main_clrWDT
                                  268   CBLOCKEND 141 4 289
                                  269   
                                  270   ;;		while(_flgUartFin != 1){
                                  271   CLINEA 0000H 0000H 011EH 0001H 000BH
00:003E                           272   _$L467 :
00:003E 10-90 00-00'              273   	l	r0,	NEAR __flgUartFin
00:0042 01 70                     274   	cmp	r0,	#01h
00:0044 F8 C8                     275   	bne	_$L19
                                  276   
                                  277   ;;		if(RecWorld[0] == 0x41){			//if RECWORLD == "ACK"
                                  278   CLINEA 0000H 0001H 0126H 0003H 0033H
00:0046 10-90 00-00'              279   	l	r0,	NEAR _RecWorld
00:004A 41 70                     280   	cmp	r0,	#041h
00:004C 1F C8                     281   	bne	_$L28
                                  282   CBLOCK 141 5 294
                                  283   
                                  284   ;;			if(RecWorld[1] == 0x43){
                                  285   CLINEA 0000H 0001H 0127H 0004H 001BH
00:004E 10-90 00-00'              286   	l	r0,	NEAR _RecWorld+01h
00:0052 43 70                     287   	cmp	r0,	#043h
00:0054 1B C8                     288   	bne	_$L28
                                  289   CBLOCK 141 6 295
                                  290   
                                  291   ;;				if(RecWorld[2] == 0x4B){
                                  292   CLINEA 0000H 0001H 0128H 0005H 001CH
00:0056 10-90 00-00'              293   	l	r0,	NEAR _RecWorld+02h
00:005A 4B 70                     294   	cmp	r0,	#04bh
00:005C 17 C8                     295   	bne	_$L28
                                  296   CBLOCK 141 7 296
                                  297   
                                  298   ;;					_flgUartFin = 0;
                                  299   CLINEA 0000H 0001H 0129H 0006H 0015H
00:005E 00 00                     300   	mov	r0,	#00h
00:0060 11-90 00-00'              301   	st	r0,	NEAR __flgUartFin
                                  302   
                                  303   ;;					uart_stop();
                                  304   CLINEA 0000H 0001H 012AH 0006H 0011H
00:0064 01-F0'00-00'              305   	bl	_uart_stop
                                  306   
                                  307   ;;					uart_startSend(AckMCUConn, 22, _funcUartFin);
                                  308   CLINEA 0000H 0001H 012BH 0006H 0032H
00:0068 00'00                     309   	mov	r0,	#BYTE1 OFFSET __funcUartFin
00:006A 00'01                     310   	mov	r1,	#BYTE2 OFFSET __funcUartFin
00:006C 5E-F0                     311   	push	er0
00:006E 16 E2                     312   	mov	er2,	#22
00:0070 00'00                     313   	mov	r0,	#BYTE1 OFFSET _AckMCUConn
00:0072 00'01                     314   	mov	r1,	#BYTE2 OFFSET _AckMCUConn
00:0074 01-F0'00-00'              315   	bl	_uart_startSend
00:0078 02 E1                     316   	add	sp,	#2 
                                  317   
                                  318   ;;					while(_flgUartFin != 1){
                                  319   CLINEA 0000H 0000H 012CH 0001H 000BH
00:007A 04 CE                     320   	bal	_$L468
                                  321   
                                  322   ;;					while(_flgUartFin != 1){
                                  323   CLINEA 0000H 0000H 012CH 0006H 001DH
00:007C                           324   _$L29 :
                                  325   CBLOCK 141 8 300
                                  326   
                                  327   ;;						NOP1000();
                                  328   CLINEA 0000H 0001H 012DH 0007H 0010H
00:007C 01-F0'00-00'              329   	bl	_NOP1000
                                  330   
                                  331   ;;						main_clrWDT();
                                  332   CLINEA 0000H 0001H 012EH 0007H 0014H
00:0080 01-F0'00-00'              333   	bl	_main_clrWDT
                                  334   CBLOCKEND 141 8 303
                                  335   
                                  336   ;;					while(_flgUartFin != 1){
                                  337   CLINEA 0000H 0000H 012CH 0001H 000BH
00:0084                           338   _$L468 :
00:0084 10-90 00-00'              339   	l	r0,	NEAR __flgUartFin
00:0088 01 70                     340   	cmp	r0,	#01h
00:008A F8 C8                     341   	bne	_$L29
                                  342   
                                  343   ;;					}
                                  344   CLINEA 0000H 0000H 012FH 0006H 0006H
00:008C                           345   _$L28 :
                                  346   CBLOCKEND 141 7 305
                                  347   CBLOCKEND 141 6 306
                                  348   CBLOCKEND 141 5 307
                                  349   
                                  350   ;;		if(RecWorld[0] == 0x49){			//if RECWORLD == "INC"
                                  351   CLINEA 0000H 0001H 0136H 0003H 0033H
00:008C 10-90 00-00'              352   	l	r0,	NEAR _RecWorld
00:0090 49 70                     353   	cmp	r0,	#049h
00:0092 02 C9                     354   	beq	_$M97
00:0094 00-F0'00-00'              355   	b	_$L58
00:0098                           356   _$M97 :
                                  357   CBLOCK 141 9 310
                                  358   
                                  359   ;;			if(RecWorld[1] == 0x4E){
                                  360   CLINEA 0000H 0001H 0137H 0004H 001BH
00:0098 10-90 00-00'              361   	l	r0,	NEAR _RecWorld+01h
00:009C 4E 70                     362   	cmp	r0,	#04eh
00:009E 02 C9                     363   	beq	_$M98
00:00A0 00-F0'00-00'              364   	b	_$L58
00:00A4                           365   _$M98 :
                                  366   CBLOCK 141 10 311
                                  367   
                                  368   ;;				if(RecWorld[2] == 0x43){
                                  369   CLINEA 0000H 0001H 0138H 0005H 001CH
00:00A4 10-90 00-00'              370   	l	r0,	NEAR _RecWorld+02h
00:00A8 43 70                     371   	cmp	r0,	#043h
00:00AA 02 C9                     372   	beq	_$M99
00:00AC 00-F0'00-00'              373   	b	_$L58
00:00B0                           374   _$M99 :
                                  375   CBLOCK 141 11 312
                                  376   
                                  377   ;;					InputStatus[2] = 0x43;
                                  378   CLINEA 0000H 0001H 0139H 0006H 001BH
00:00B0 43 00                     379   	mov	r0,	#043h
00:00B2 11-90 00-00'              380   	st	r0,	NEAR _InputStatus+02h
                                  381   
                                  382   ;;					InputRec[2] = 0x43;
                                  383   CLINEA 0000H 0001H 013AH 0006H 0018H
00:00B6 11-90 00-00'              384   	st	r0,	NEAR _InputRec+02h
                                  385   
                                  386   ;;					for(count = 4; count < 12; count++)
                                  387   CLINEA 0000H 0001H 013BH 0006H 0028H
00:00BA 04 E4                     388   	mov	er4,	#4 
00:00BC                           389   _$L39 :
                                  390   CBLOCK 141 12 316
                                  391   
                                  392   ;;						RecWorld[count] -= 0x30;
                                  393   CLINEA 0000H 0001H 013DH 0007H 001EH
00:00BC 48-92 00-00'              394   	l	r2,	NEAR _RecWorld[er4]
00:00C0 D0 12                     395   	add	r2,	#0d0h
00:00C2 49-92 00-00'              396   	st	r2,	NEAR _RecWorld[er4]
                                  397   
                                  398   ;;						if(RecWorld[count] != (0x01||0x00)){
                                  399   CLINEA 0000H 0001H 013EH 0007H 002AH
00:00C6 20-80                     400   	mov	r0,	r2
00:00C8 01 70                     401   	cmp	r0,	#01h
00:00CA 03 C9                     402   	beq	_$L51
                                  403   CBLOCK 141 13 318
                                  404   
                                  405   ;;							RecWorld[count] = 0;
                                  406   CLINEA 0000H 0001H 013FH 0008H 001BH
00:00CC 00 02                     407   	mov	r2,	#00h
00:00CE 49-92 00-00'              408   	st	r2,	NEAR _RecWorld[er4]
                                  409   CBLOCKEND 141 13 320
                                  410   
                                  411   ;;						}
                                  412   CLINEA 0000H 0000H 0140H 0007H 0007H
00:00D2                           413   _$L51 :
                                  414   CBLOCKEND 141 12 321
                                  415   
                                  416   ;;					for(count = 4; count < 12; count++)
                                  417   CLINEA 0000H 0000H 013BH 0006H 0028H
00:00D2 81 E4                     418   	add	er4,	#1 
00:00D4 0C 74                     419   	cmp	r4,	#0ch
00:00D6 00 55                     420   	cmpc	r5,	#00h
00:00D8 F1 C1                     421   	blt	_$L39
                                  422   
                                  423   ;;					PC7DIR = RecWorld[4];
                                  424   CLINEA 0000H 0001H 0144H 0006H 001AH
00:00DA 10-90 00-00'              425   	l	r0,	NEAR _RecWorld+04h
00:00DE 01 20                     426   	and	r0,	#01h
00:00E0 03 C9                     427   	beq	_$M1
00:00E2 F0-A0 61-F2               428   	sb	0f261h.7
00:00E6 02 CE                     429   	bal	_$M2
00:00E8                           430   _$M1 :
00:00E8 F2-A0 61-F2               431   	rb	0f261h.7
00:00EC                           432   _$M2 :
                                  433   
                                  434   ;;					PC6DIR = RecWorld[5];
                                  435   CLINEA 0000H 0001H 0145H 0006H 001AH
00:00EC 10-90 00-00'              436   	l	r0,	NEAR _RecWorld+05h
00:00F0 01 20                     437   	and	r0,	#01h
00:00F2 03 C9                     438   	beq	_$M3
00:00F4 E0-A0 61-F2               439   	sb	0f261h.6
00:00F8 02 CE                     440   	bal	_$M4
00:00FA                           441   _$M3 :
00:00FA E2-A0 61-F2               442   	rb	0f261h.6
00:00FE                           443   _$M4 :
                                  444   
                                  445   ;;					PC5DIR = RecWorld[6];
                                  446   CLINEA 0000H 0001H 0146H 0006H 001AH
00:00FE 10-90 00-00'              447   	l	r0,	NEAR _RecWorld+06h
00:0102 01 20                     448   	and	r0,	#01h
00:0104 03 C9                     449   	beq	_$M5
00:0106 D0-A0 61-F2               450   	sb	0f261h.5
00:010A 02 CE                     451   	bal	_$M6
00:010C                           452   _$M5 :
00:010C D2-A0 61-F2               453   	rb	0f261h.5
00:0110                           454   _$M6 :
                                  455   
                                  456   ;;					PC4DIR = RecWorld[7];
                                  457   CLINEA 0000H 0001H 0147H 0006H 001AH
00:0110 10-90 00-00'              458   	l	r0,	NEAR _RecWorld+07h
00:0114 01 20                     459   	and	r0,	#01h
00:0116 03 C9                     460   	beq	_$M7
00:0118 C0-A0 61-F2               461   	sb	0f261h.4
00:011C 02 CE                     462   	bal	_$M8
00:011E                           463   _$M7 :
00:011E C2-A0 61-F2               464   	rb	0f261h.4
00:0122                           465   _$M8 :
                                  466   
                                  467   ;;					PC3DIR = RecWorld[8];
                                  468   CLINEA 0000H 0001H 0148H 0006H 001AH
00:0122 10-90 00-00'              469   	l	r0,	NEAR _RecWorld+08h
00:0126 01 20                     470   	and	r0,	#01h
00:0128 03 C9                     471   	beq	_$M9
00:012A B0-A0 61-F2               472   	sb	0f261h.3
00:012E 02 CE                     473   	bal	_$M10
00:0130                           474   _$M9 :
00:0130 B2-A0 61-F2               475   	rb	0f261h.3
00:0134                           476   _$M10 :
                                  477   
                                  478   ;;					PC2DIR = RecWorld[9];
                                  479   CLINEA 0000H 0001H 0149H 0006H 001AH
00:0134 10-90 00-00'              480   	l	r0,	NEAR _RecWorld+09h
00:0138 01 20                     481   	and	r0,	#01h
00:013A 03 C9                     482   	beq	_$M11
00:013C A0-A0 61-F2               483   	sb	0f261h.2
00:0140 02 CE                     484   	bal	_$M12
00:0142                           485   _$M11 :
00:0142 A2-A0 61-F2               486   	rb	0f261h.2
00:0146                           487   _$M12 :
                                  488   
                                  489   ;;					PC1DIR = RecWorld[10];
                                  490   CLINEA 0000H 0001H 014AH 0006H 001BH
00:0146 10-90 00-00'              491   	l	r0,	NEAR _RecWorld+0ah
00:014A 01 20                     492   	and	r0,	#01h
00:014C 03 C9                     493   	beq	_$M13
00:014E 90-A0 61-F2               494   	sb	0f261h.1
00:0152 02 CE                     495   	bal	_$M14
00:0154                           496   _$M13 :
00:0154 92-A0 61-F2               497   	rb	0f261h.1
00:0158                           498   _$M14 :
                                  499   
                                  500   ;;					PC0DIR = RecWorld[11];
                                  501   CLINEA 0000H 0001H 014BH 0006H 001BH
00:0158 10-90 00-00'              502   	l	r0,	NEAR _RecWorld+0bh
00:015C 01 20                     503   	and	r0,	#01h
00:015E 03 C9                     504   	beq	_$M15
00:0160 80-A0 61-F2               505   	sb	0f261h.0
00:0164 02 CE                     506   	bal	_$M16
00:0166                           507   _$M15 :
00:0166 82-A0 61-F2               508   	rb	0f261h.0
00:016A                           509   _$M16 :
                                  510   
                                  511   ;;					InputStatus[4] = PC7DIR + 0x30;
                                  512   CLINEA 0000H 0001H 014EH 0006H 0024H
00:016A 10-90 61-F2               513   	l	r0,	0f261h
00:016E 7C-90                     514   	srl	r0,	#07h
00:0170 01 20                     515   	and	r0,	#01h
00:0172 30 10                     516   	add	r0,	#030h
00:0174 11-90 00-00'              517   	st	r0,	NEAR _InputStatus+04h
                                  518   
                                  519   ;;					InputStatus[5] = PC6DIR + 0x30;
                                  520   CLINEA 0000H 0001H 014FH 0006H 0024H
00:0178 10-90 61-F2               521   	l	r0,	0f261h
00:017C 6C-90                     522   	srl	r0,	#06h
00:017E 01 20                     523   	and	r0,	#01h
00:0180 30 10                     524   	add	r0,	#030h
00:0182 11-90 00-00'              525   	st	r0,	NEAR _InputStatus+05h
                                  526   
                                  527   ;;					InputStatus[6] = PC5DIR + 0x30;
                                  528   CLINEA 0000H 0001H 0150H 0006H 0024H
00:0186 10-90 61-F2               529   	l	r0,	0f261h
00:018A 5C-90                     530   	srl	r0,	#05h
00:018C 01 20                     531   	and	r0,	#01h
00:018E 30 10                     532   	add	r0,	#030h
00:0190 11-90 00-00'              533   	st	r0,	NEAR _InputStatus+06h
                                  534   
                                  535   ;;					InputStatus[7] = PC4DIR + 0x30;
                                  536   CLINEA 0000H 0001H 0151H 0006H 0024H
00:0194 10-90 61-F2               537   	l	r0,	0f261h
00:0198 4C-90                     538   	srl	r0,	#04h
00:019A 01 20                     539   	and	r0,	#01h
00:019C 30 10                     540   	add	r0,	#030h
00:019E 11-90 00-00'              541   	st	r0,	NEAR _InputStatus+07h
                                  542   
                                  543   ;;					InputStatus[8] = PC3DIR + 0x30;
                                  544   CLINEA 0000H 0001H 0152H 0006H 0024H
00:01A2 10-90 61-F2               545   	l	r0,	0f261h
00:01A6 3C-90                     546   	srl	r0,	#03h
00:01A8 01 20                     547   	and	r0,	#01h
00:01AA 30 10                     548   	add	r0,	#030h
00:01AC 11-90 00-00'              549   	st	r0,	NEAR _InputStatus+08h
                                  550   
                                  551   ;;					InputStatus[9] = PC2DIR + 0x30;
                                  552   CLINEA 0000H 0001H 0153H 0006H 0024H
00:01B0 10-90 61-F2               553   	l	r0,	0f261h
00:01B4 2C-90                     554   	srl	r0,	#02h
00:01B6 01 20                     555   	and	r0,	#01h
00:01B8 30 10                     556   	add	r0,	#030h
00:01BA 11-90 00-00'              557   	st	r0,	NEAR _InputStatus+09h
                                  558   
                                  559   ;;					InputStatus[10] = PC1DIR + 0x30;
                                  560   CLINEA 0000H 0001H 0154H 0006H 0025H
00:01BE 10-90 61-F2               561   	l	r0,	0f261h
00:01C2 1C-90                     562   	srl	r0,	#01h
00:01C4 01 20                     563   	and	r0,	#01h
00:01C6 30 10                     564   	add	r0,	#030h
00:01C8 11-90 00-00'              565   	st	r0,	NEAR _InputStatus+0ah
                                  566   
                                  567   ;;					InputStatus[11] = PC0DIR + 0x30;
                                  568   CLINEA 0000H 0001H 0155H 0006H 0025H
00:01CC 10-90 61-F2               569   	l	r0,	0f261h
00:01D0 01 20                     570   	and	r0,	#01h
00:01D2 30 10                     571   	add	r0,	#030h
00:01D4 11-90 00-00'              572   	st	r0,	NEAR _InputStatus+0bh
                                  573   
                                  574   ;;					InputStatus[13] = PC7D + 0x30;
                                  575   CLINEA 0000H 0001H 0158H 0006H 0023H
00:01D8 10-90 60-F2               576   	l	r0,	0f260h
00:01DC 7C-90                     577   	srl	r0,	#07h
00:01DE 01 20                     578   	and	r0,	#01h
00:01E0 30 10                     579   	add	r0,	#030h
00:01E2 11-90 00-00'              580   	st	r0,	NEAR _InputStatus+0dh
                                  581   
                                  582   ;;					InputStatus[14] = PC6D + 0x30;
                                  583   CLINEA 0000H 0001H 0159H 0006H 0023H
00:01E6 10-90 60-F2               584   	l	r0,	0f260h
00:01EA 6C-90                     585   	srl	r0,	#06h
00:01EC 01 20                     586   	and	r0,	#01h
00:01EE 30 10                     587   	add	r0,	#030h
00:01F0 11-90 00-00'              588   	st	r0,	NEAR _InputStatus+0eh
                                  589   
                                  590   ;;					InputStatus[15] = PC5D + 0x30;
                                  591   CLINEA 0000H 0001H 015AH 0006H 0023H
00:01F4 10-90 60-F2               592   	l	r0,	0f260h
00:01F8 5C-90                     593   	srl	r0,	#05h
00:01FA 01 20                     594   	and	r0,	#01h
00:01FC 30 10                     595   	add	r0,	#030h
00:01FE 11-90 00-00'              596   	st	r0,	NEAR _InputStatus+0fh
                                  597   
                                  598   ;;					InputStatus[16] = PC4D + 0x30;
                                  599   CLINEA 0000H 0001H 015BH 0006H 0023H
00:0202 10-90 60-F2               600   	l	r0,	0f260h
00:0206 4C-90                     601   	srl	r0,	#04h
00:0208 01 20                     602   	and	r0,	#01h
00:020A 30 10                     603   	add	r0,	#030h
00:020C 11-90 00-00'              604   	st	r0,	NEAR _InputStatus+010h
                                  605   
                                  606   ;;					InputStatus[17] = PC3D + 0x30;
                                  607   CLINEA 0000H 0001H 015CH 0006H 0023H
00:0210 10-90 60-F2               608   	l	r0,	0f260h
00:0214 3C-90                     609   	srl	r0,	#03h
00:0216 01 20                     610   	and	r0,	#01h
00:0218 30 10                     611   	add	r0,	#030h
00:021A 11-90 00-00'              612   	st	r0,	NEAR _InputStatus+011h
                                  613   
                                  614   ;;					InputStatus[18] = PC2D + 0x30;
                                  615   CLINEA 0000H 0001H 015DH 0006H 0023H
00:021E 10-90 60-F2               616   	l	r0,	0f260h
00:0222 2C-90                     617   	srl	r0,	#02h
00:0224 01 20                     618   	and	r0,	#01h
00:0226 30 10                     619   	add	r0,	#030h
00:0228 11-90 00-00'              620   	st	r0,	NEAR _InputStatus+012h
                                  621   
                                  622   ;;					InputStatus[19] = PC1D + 0x30;
                                  623   CLINEA 0000H 0001H 015EH 0006H 0023H
00:022C 10-90 60-F2               624   	l	r0,	0f260h
00:0230 1C-90                     625   	srl	r0,	#01h
00:0232 01 20                     626   	and	r0,	#01h
00:0234 30 10                     627   	add	r0,	#030h
00:0236 11-90 00-00'              628   	st	r0,	NEAR _InputStatus+013h
                                  629   
                                  630   ;;					InputStatus[20] = PC0D + 0x30;
                                  631   CLINEA 0000H 0001H 015FH 0006H 0023H
00:023A 10-90 60-F2               632   	l	r0,	0f260h
00:023E 01 20                     633   	and	r0,	#01h
00:0240 30 10                     634   	add	r0,	#030h
00:0242 11-90 00-00'              635   	st	r0,	NEAR _InputStatus+014h
                                  636   
                                  637   ;;					_flgUartFin = 0;
                                  638   CLINEA 0000H 0001H 0163H 0006H 0015H
00:0246 00 00                     639   	mov	r0,	#00h
00:0248 11-90 00-00'              640   	st	r0,	NEAR __flgUartFin
                                  641   
                                  642   ;;					uart_stop();
                                  643   CLINEA 0000H 0001H 0164H 0006H 0011H
00:024C 01-F0'00-00'              644   	bl	_uart_stop
                                  645   
                                  646   ;;					uart_startSend(InputStatus, 23, _funcUartFin);
                                  647   CLINEA 0000H 0001H 0165H 0006H 0033H
00:0250 00'00                     648   	mov	r0,	#BYTE1 OFFSET __funcUartFin
00:0252 00'01                     649   	mov	r1,	#BYTE2 OFFSET __funcUartFin
00:0254 5E-F0                     650   	push	er0
00:0256 17 E2                     651   	mov	er2,	#23
00:0258 00'00                     652   	mov	r0,	#BYTE1 OFFSET _InputStatus
00:025A 00'01                     653   	mov	r1,	#BYTE2 OFFSET _InputStatus
00:025C 01-F0'00-00'              654   	bl	_uart_startSend
00:0260 02 E1                     655   	add	sp,	#2 
                                  656   
                                  657   ;;					while(_flgUartFin != 1){
                                  658   CLINEA 0000H 0000H 0166H 0001H 000BH
00:0262 04 CE                     659   	bal	_$L469
                                  660   
                                  661   ;;					while(_flgUartFin != 1){
                                  662   CLINEA 0000H 0000H 0166H 0006H 001DH
00:0264                           663   _$L55 :
                                  664   CBLOCK 141 14 358
                                  665   
                                  666   ;;						NOP1000();
                                  667   CLINEA 0000H 0001H 0167H 0007H 0010H
00:0264 01-F0'00-00'              668   	bl	_NOP1000
                                  669   
                                  670   ;;						main_clrWDT();
                                  671   CLINEA 0000H 0001H 0168H 0007H 0014H
00:0268 01-F0'00-00'              672   	bl	_main_clrWDT
                                  673   CBLOCKEND 141 14 361
                                  674   
                                  675   ;;					while(_flgUartFin != 1){
                                  676   CLINEA 0000H 0000H 0166H 0001H 000BH
00:026C                           677   _$L469 :
00:026C 10-90 00-00'              678   	l	r0,	NEAR __flgUartFin
00:0270 01 70                     679   	cmp	r0,	#01h
00:0272 F8 C8                     680   	bne	_$L55
                                  681   
                                  682   ;;					_flgUartFin = 0;
                                  683   CLINEA 0000H 0001H 016CH 0006H 0015H
00:0274 00 00                     684   	mov	r0,	#00h
00:0276 11-90 00-00'              685   	st	r0,	NEAR __flgUartFin
                                  686   
                                  687   ;;					uart_stop();
                                  688   CLINEA 0000H 0001H 016DH 0006H 0011H
00:027A 01-F0'00-00'              689   	bl	_uart_stop
                                  690   
                                  691   ;;					uart_startSend(InputRec, 14, _funcUartFin);
                                  692   CLINEA 0000H 0001H 016EH 0006H 0030H
00:027E 00'00                     693   	mov	r0,	#BYTE1 OFFSET __funcUartFin
00:0280 00'01                     694   	mov	r1,	#BYTE2 OFFSET __funcUartFin
00:0282 5E-F0                     695   	push	er0
00:0284 0E E2                     696   	mov	er2,	#14
00:0286 00'00                     697   	mov	r0,	#BYTE1 OFFSET _InputRec
00:0288 00'01                     698   	mov	r1,	#BYTE2 OFFSET _InputRec
00:028A 01-F0'00-00'              699   	bl	_uart_startSend
00:028E 02 E1                     700   	add	sp,	#2 
                                  701   
                                  702   ;;					while(_flgUartFin != 1){
                                  703   CLINEA 0000H 0000H 016FH 0001H 000BH
00:0290 04 CE                     704   	bal	_$L470
                                  705   
                                  706   ;;					while(_flgUartFin != 1){
                                  707   CLINEA 0000H 0000H 016FH 0006H 001DH
00:0292                           708   _$L59 :
                                  709   CBLOCK 141 15 367
                                  710   
                                  711   ;;						NOP1000();
                                  712   CLINEA 0000H 0001H 0170H 0007H 0010H
00:0292 01-F0'00-00'              713   	bl	_NOP1000
                                  714   
                                  715   ;;						main_clrWDT();
                                  716   CLINEA 0000H 0001H 0171H 0007H 0014H
00:0296 01-F0'00-00'              717   	bl	_main_clrWDT
                                  718   CBLOCKEND 141 15 370
                                  719   
                                  720   ;;					while(_flgUartFin != 1){
                                  721   CLINEA 0000H 0000H 016FH 0001H 000BH
00:029A                           722   _$L470 :
00:029A 10-90 00-00'              723   	l	r0,	NEAR __flgUartFin
00:029E 01 70                     724   	cmp	r0,	#01h
00:02A0 F8 C8                     725   	bne	_$L59
                                  726   
                                  727   ;;					}
                                  728   CLINEA 0000H 0000H 0172H 0006H 0006H
00:02A2                           729   _$L58 :
                                  730   CBLOCKEND 141 11 371
                                  731   CBLOCKEND 141 10 372
                                  732   CBLOCKEND 141 9 373
                                  733   
                                  734   ;;		if(RecWorld[0] == 0x4F){			//if RECWORLD == "OUC"
                                  735   CLINEA 0000H 0001H 0178H 0003H 0033H
00:02A2 10-90 00-00'              736   	l	r0,	NEAR _RecWorld
00:02A6 4F 70                     737   	cmp	r0,	#04fh
00:02A8 02 C9                     738   	beq	_$M100
00:02AA 00-F0'00-00'              739   	b	_$L84
00:02AE                           740   _$M100 :
                                  741   CBLOCK 141 16 376
                                  742   
                                  743   ;;			if(RecWorld[1] == 0x55){
                                  744   CLINEA 0000H 0001H 0179H 0004H 001BH
00:02AE 10-90 00-00'              745   	l	r0,	NEAR _RecWorld+01h
00:02B2 55 70                     746   	cmp	r0,	#055h
00:02B4 02 C9                     747   	beq	_$M101
00:02B6 00-F0'00-00'              748   	b	_$L84
00:02BA                           749   _$M101 :
                                  750   CBLOCK 141 17 377
                                  751   
                                  752   ;;				if(RecWorld[2] == 0x43){
                                  753   CLINEA 0000H 0001H 017AH 0005H 001CH
00:02BA 10-90 00-00'              754   	l	r0,	NEAR _RecWorld+02h
00:02BE 43 70                     755   	cmp	r0,	#043h
00:02C0 02 C9                     756   	beq	_$M102
00:02C2 00-F0'00-00'              757   	b	_$L84
00:02C6                           758   _$M102 :
                                  759   CBLOCK 141 18 378
                                  760   
                                  761   ;;					OutputRec[2] = 0x43;
                                  762   CLINEA 0000H 0001H 017BH 0006H 0019H
00:02C6 43 00                     763   	mov	r0,	#043h
00:02C8 11-90 00-00'              764   	st	r0,	NEAR _OutputRec+02h
                                  765   
                                  766   ;;					for(count = 4; count < 21; count++)
                                  767   CLINEA 0000H 0001H 017CH 0006H 0028H
00:02CC 04 E4                     768   	mov	er4,	#4 
00:02CE                           769   _$L69 :
                                  770   CBLOCK 141 19 381
                                  771   
                                  772   ;;						RecWorld[count] -= 0x30;
                                  773   CLINEA 0000H 0001H 017EH 0007H 001EH
00:02CE 48-92 00-00'              774   	l	r2,	NEAR _RecWorld[er4]
00:02D2 D0 12                     775   	add	r2,	#0d0h
00:02D4 49-92 00-00'              776   	st	r2,	NEAR _RecWorld[er4]
                                  777   
                                  778   ;;						if(RecWorld[count] != (0x01||0x00)){
                                  779   CLINEA 0000H 0001H 017FH 0007H 002AH
00:02D8 20-80                     780   	mov	r0,	r2
00:02DA 01 70                     781   	cmp	r0,	#01h
00:02DC 03 C9                     782   	beq	_$L81
                                  783   CBLOCK 141 20 383
                                  784   
                                  785   ;;							RecWorld[count] = 0;
                                  786   CLINEA 0000H 0001H 0180H 0008H 001BH
00:02DE 00 02                     787   	mov	r2,	#00h
00:02E0 49-92 00-00'              788   	st	r2,	NEAR _RecWorld[er4]
                                  789   CBLOCKEND 141 20 385
                                  790   
                                  791   ;;						}
                                  792   CLINEA 0000H 0000H 0181H 0007H 0007H
00:02E4                           793   _$L81 :
                                  794   CBLOCKEND 141 19 386
                                  795   
                                  796   ;;					for(count = 4; count < 21; count++)
                                  797   CLINEA 0000H 0000H 017CH 0006H 0028H
00:02E4 81 E4                     798   	add	er4,	#1 
00:02E6 15 74                     799   	cmp	r4,	#015h
00:02E8 00 55                     800   	cmpc	r5,	#00h
00:02EA F1 C1                     801   	blt	_$L69
                                  802   
                                  803   ;;					PC7DIR = RecWorld[4];
                                  804   CLINEA 0000H 0001H 0184H 0006H 001AH
00:02EC 10-90 00-00'              805   	l	r0,	NEAR _RecWorld+04h
00:02F0 01 20                     806   	and	r0,	#01h
00:02F2 03 C9                     807   	beq	_$M17
00:02F4 F0-A0 61-F2               808   	sb	0f261h.7
00:02F8 02 CE                     809   	bal	_$M18
00:02FA                           810   _$M17 :
00:02FA F2-A0 61-F2               811   	rb	0f261h.7
00:02FE                           812   _$M18 :
                                  813   
                                  814   ;;					PC6DIR = RecWorld[5];
                                  815   CLINEA 0000H 0001H 0185H 0006H 001AH
00:02FE 10-90 00-00'              816   	l	r0,	NEAR _RecWorld+05h
00:0302 01 20                     817   	and	r0,	#01h
00:0304 03 C9                     818   	beq	_$M19
00:0306 E0-A0 61-F2               819   	sb	0f261h.6
00:030A 02 CE                     820   	bal	_$M20
00:030C                           821   _$M19 :
00:030C E2-A0 61-F2               822   	rb	0f261h.6
00:0310                           823   _$M20 :
                                  824   
                                  825   ;;					PC5DIR = RecWorld[6];
                                  826   CLINEA 0000H 0001H 0186H 0006H 001AH
00:0310 10-90 00-00'              827   	l	r0,	NEAR _RecWorld+06h
00:0314 01 20                     828   	and	r0,	#01h
00:0316 03 C9                     829   	beq	_$M21
00:0318 D0-A0 61-F2               830   	sb	0f261h.5
00:031C 02 CE                     831   	bal	_$M22
00:031E                           832   _$M21 :
00:031E D2-A0 61-F2               833   	rb	0f261h.5
00:0322                           834   _$M22 :
                                  835   
                                  836   ;;					PC4DIR = RecWorld[7];
                                  837   CLINEA 0000H 0001H 0187H 0006H 001AH
00:0322 10-90 00-00'              838   	l	r0,	NEAR _RecWorld+07h
00:0326 01 20                     839   	and	r0,	#01h
00:0328 03 C9                     840   	beq	_$M23
00:032A C0-A0 61-F2               841   	sb	0f261h.4
00:032E 02 CE                     842   	bal	_$M24
00:0330                           843   _$M23 :
00:0330 C2-A0 61-F2               844   	rb	0f261h.4
00:0334                           845   _$M24 :
                                  846   
                                  847   ;;					PC3DIR = RecWorld[8];
                                  848   CLINEA 0000H 0001H 0188H 0006H 001AH
00:0334 10-90 00-00'              849   	l	r0,	NEAR _RecWorld+08h
00:0338 01 20                     850   	and	r0,	#01h
00:033A 03 C9                     851   	beq	_$M25
00:033C B0-A0 61-F2               852   	sb	0f261h.3
00:0340 02 CE                     853   	bal	_$M26
00:0342                           854   _$M25 :
00:0342 B2-A0 61-F2               855   	rb	0f261h.3
00:0346                           856   _$M26 :
                                  857   
                                  858   ;;					PC2DIR = RecWorld[9];
                                  859   CLINEA 0000H 0001H 0189H 0006H 001AH
00:0346 10-90 00-00'              860   	l	r0,	NEAR _RecWorld+09h
00:034A 01 20                     861   	and	r0,	#01h
00:034C 03 C9                     862   	beq	_$M27
00:034E A0-A0 61-F2               863   	sb	0f261h.2
00:0352 02 CE                     864   	bal	_$M28
00:0354                           865   _$M27 :
00:0354 A2-A0 61-F2               866   	rb	0f261h.2
00:0358                           867   _$M28 :
                                  868   
                                  869   ;;					PC1DIR = RecWorld[10];
                                  870   CLINEA 0000H 0001H 018AH 0006H 001BH
00:0358 10-90 00-00'              871   	l	r0,	NEAR _RecWorld+0ah
00:035C 01 20                     872   	and	r0,	#01h
00:035E 03 C9                     873   	beq	_$M29
00:0360 90-A0 61-F2               874   	sb	0f261h.1
00:0364 02 CE                     875   	bal	_$M30
00:0366                           876   _$M29 :
00:0366 92-A0 61-F2               877   	rb	0f261h.1
00:036A                           878   _$M30 :
                                  879   
                                  880   ;;					PC0DIR = RecWorld[11];
                                  881   CLINEA 0000H 0001H 018BH 0006H 001BH
00:036A 10-90 00-00'              882   	l	r0,	NEAR _RecWorld+0bh
00:036E 01 20                     883   	and	r0,	#01h
00:0370 03 C9                     884   	beq	_$M31
00:0372 80-A0 61-F2               885   	sb	0f261h.0
00:0376 02 CE                     886   	bal	_$M32
00:0378                           887   _$M31 :
00:0378 82-A0 61-F2               888   	rb	0f261h.0
00:037C                           889   _$M32 :
                                  890   
                                  891   ;;					PC7D = RecWorld[13];
                                  892   CLINEA 0000H 0001H 018EH 0006H 0019H
00:037C 10-90 00-00'              893   	l	r0,	NEAR _RecWorld+0dh
00:0380 01 20                     894   	and	r0,	#01h
00:0382 03 C9                     895   	beq	_$M33
00:0384 F0-A0 60-F2               896   	sb	0f260h.7
00:0388 02 CE                     897   	bal	_$M34
00:038A                           898   _$M33 :
00:038A F2-A0 60-F2               899   	rb	0f260h.7
00:038E                           900   _$M34 :
                                  901   
                                  902   ;;					PC6D = RecWorld[14];
                                  903   CLINEA 0000H 0001H 018FH 0006H 0019H
00:038E 10-90 00-00'              904   	l	r0,	NEAR _RecWorld+0eh
00:0392 01 20                     905   	and	r0,	#01h
00:0394 03 C9                     906   	beq	_$M35
00:0396 E0-A0 60-F2               907   	sb	0f260h.6
00:039A 02 CE                     908   	bal	_$M36
00:039C                           909   _$M35 :
00:039C E2-A0 60-F2               910   	rb	0f260h.6
00:03A0                           911   _$M36 :
                                  912   
                                  913   ;;					PC5D = RecWorld[15];
                                  914   CLINEA 0000H 0001H 0190H 0006H 0019H
00:03A0 10-90 00-00'              915   	l	r0,	NEAR _RecWorld+0fh
00:03A4 01 20                     916   	and	r0,	#01h
00:03A6 03 C9                     917   	beq	_$M37
00:03A8 D0-A0 60-F2               918   	sb	0f260h.5
00:03AC 02 CE                     919   	bal	_$M38
00:03AE                           920   _$M37 :
00:03AE D2-A0 60-F2               921   	rb	0f260h.5
00:03B2                           922   _$M38 :
                                  923   
                                  924   ;;					PC4D = RecWorld[16];
                                  925   CLINEA 0000H 0001H 0191H 0006H 0019H
00:03B2 10-90 00-00'              926   	l	r0,	NEAR _RecWorld+010h
00:03B6 01 20                     927   	and	r0,	#01h
00:03B8 03 C9                     928   	beq	_$M39
00:03BA C0-A0 60-F2               929   	sb	0f260h.4
00:03BE 02 CE                     930   	bal	_$M40
00:03C0                           931   _$M39 :
00:03C0 C2-A0 60-F2               932   	rb	0f260h.4
00:03C4                           933   _$M40 :
                                  934   
                                  935   ;;					PC3D = RecWorld[17];
                                  936   CLINEA 0000H 0001H 0192H 0006H 0019H
00:03C4 10-90 00-00'              937   	l	r0,	NEAR _RecWorld+011h
00:03C8 01 20                     938   	and	r0,	#01h
00:03CA 03 C9                     939   	beq	_$M41
00:03CC B0-A0 60-F2               940   	sb	0f260h.3
00:03D0 02 CE                     941   	bal	_$M42
00:03D2                           942   _$M41 :
00:03D2 B2-A0 60-F2               943   	rb	0f260h.3
00:03D6                           944   _$M42 :
                                  945   
                                  946   ;;					PC2D = RecWorld[18];
                                  947   CLINEA 0000H 0001H 0193H 0006H 0019H
00:03D6 10-90 00-00'              948   	l	r0,	NEAR _RecWorld+012h
00:03DA 01 20                     949   	and	r0,	#01h
00:03DC 03 C9                     950   	beq	_$M43
00:03DE A0-A0 60-F2               951   	sb	0f260h.2
00:03E2 02 CE                     952   	bal	_$M44
00:03E4                           953   _$M43 :
00:03E4 A2-A0 60-F2               954   	rb	0f260h.2
00:03E8                           955   _$M44 :
                                  956   
                                  957   ;;					PC1D = RecWorld[19];
                                  958   CLINEA 0000H 0001H 0194H 0006H 0019H
00:03E8 10-90 00-00'              959   	l	r0,	NEAR _RecWorld+013h
00:03EC 01 20                     960   	and	r0,	#01h
00:03EE 03 C9                     961   	beq	_$M45
00:03F0 90-A0 60-F2               962   	sb	0f260h.1
00:03F4 02 CE                     963   	bal	_$M46
00:03F6                           964   _$M45 :
00:03F6 92-A0 60-F2               965   	rb	0f260h.1
00:03FA                           966   _$M46 :
                                  967   
                                  968   ;;					PC0D = RecWorld[20];
                                  969   CLINEA 0000H 0001H 0195H 0006H 0019H
00:03FA 10-90 00-00'              970   	l	r0,	NEAR _RecWorld+014h
00:03FE 01 20                     971   	and	r0,	#01h
00:0400 03 C9                     972   	beq	_$M47
00:0402 80-A0 60-F2               973   	sb	0f260h.0
00:0406 02 CE                     974   	bal	_$M48
00:0408                           975   _$M47 :
00:0408 82-A0 60-F2               976   	rb	0f260h.0
00:040C                           977   _$M48 :
                                  978   
                                  979   ;;					OutputRec[13] = PC7D + 0x30;
                                  980   CLINEA 0000H 0001H 0198H 0006H 0021H
00:040C 10-90 60-F2               981   	l	r0,	0f260h
00:0410 7C-90                     982   	srl	r0,	#07h
00:0412 01 20                     983   	and	r0,	#01h
00:0414 30 10                     984   	add	r0,	#030h
00:0416 11-90 00-00'              985   	st	r0,	NEAR _OutputRec+0dh
                                  986   
                                  987   ;;					OutputRec[14] = PC6D + 0x30;
                                  988   CLINEA 0000H 0001H 0199H 0006H 0021H
00:041A 10-90 60-F2               989   	l	r0,	0f260h
00:041E 6C-90                     990   	srl	r0,	#06h
00:0420 01 20                     991   	and	r0,	#01h
00:0422 30 10                     992   	add	r0,	#030h
00:0424 11-90 00-00'              993   	st	r0,	NEAR _OutputRec+0eh
                                  994   
                                  995   ;;					OutputRec[15] = PC5D + 0x30;
                                  996   CLINEA 0000H 0001H 019AH 0006H 0021H
00:0428 10-90 60-F2               997   	l	r0,	0f260h
00:042C 5C-90                     998   	srl	r0,	#05h
00:042E 01 20                     999   	and	r0,	#01h
00:0430 30 10                    1000   	add	r0,	#030h
00:0432 11-90 00-00'             1001   	st	r0,	NEAR _OutputRec+0fh
                                 1002   
                                 1003   ;;					OutputRec[16] = PC4D + 0x30;
                                 1004   CLINEA 0000H 0001H 019BH 0006H 0021H
00:0436 10-90 60-F2              1005   	l	r0,	0f260h
00:043A 4C-90                    1006   	srl	r0,	#04h
00:043C 01 20                    1007   	and	r0,	#01h
00:043E 30 10                    1008   	add	r0,	#030h
00:0440 11-90 00-00'             1009   	st	r0,	NEAR _OutputRec+010h
                                 1010   
                                 1011   ;;					OutputRec[17] = PC3D + 0x30;
                                 1012   CLINEA 0000H 0001H 019CH 0006H 0021H
00:0444 10-90 60-F2              1013   	l	r0,	0f260h
00:0448 3C-90                    1014   	srl	r0,	#03h
00:044A 01 20                    1015   	and	r0,	#01h
00:044C 30 10                    1016   	add	r0,	#030h
00:044E 11-90 00-00'             1017   	st	r0,	NEAR _OutputRec+011h
                                 1018   
                                 1019   ;;					OutputRec[18] = PC2D + 0x30;
                                 1020   CLINEA 0000H 0001H 019DH 0006H 0021H
00:0452 10-90 60-F2              1021   	l	r0,	0f260h
00:0456 2C-90                    1022   	srl	r0,	#02h
00:0458 01 20                    1023   	and	r0,	#01h
00:045A 30 10                    1024   	add	r0,	#030h
00:045C 11-90 00-00'             1025   	st	r0,	NEAR _OutputRec+012h
                                 1026   
                                 1027   ;;					OutputRec[19] = PC1D + 0x30;
                                 1028   CLINEA 0000H 0001H 019EH 0006H 0021H
00:0460 10-90 60-F2              1029   	l	r0,	0f260h
00:0464 1C-90                    1030   	srl	r0,	#01h
00:0466 01 20                    1031   	and	r0,	#01h
00:0468 30 10                    1032   	add	r0,	#030h
00:046A 11-90 00-00'             1033   	st	r0,	NEAR _OutputRec+013h
                                 1034   
                                 1035   ;;					OutputRec[20] = PC0D + 0x30;
                                 1036   CLINEA 0000H 0001H 019FH 0006H 0021H
00:046E 10-90 60-F2              1037   	l	r0,	0f260h
00:0472 01 20                    1038   	and	r0,	#01h
00:0474 30 10                    1039   	add	r0,	#030h
00:0476 11-90 00-00'             1040   	st	r0,	NEAR _OutputRec+014h
                                 1041   
                                 1042   ;;					_flgUartFin = 0;
                                 1043   CLINEA 0000H 0001H 01A1H 0006H 0015H
00:047A 00 00                    1044   	mov	r0,	#00h
00:047C 11-90 00-00'             1045   	st	r0,	NEAR __flgUartFin
                                 1046   
                                 1047   ;;					uart_stop();
                                 1048   CLINEA 0000H 0001H 01A2H 0006H 0011H
00:0480 01-F0'00-00'             1049   	bl	_uart_stop
                                 1050   
                                 1051   ;;					uart_startSend(OutputRec, 23, _funcUartFin);
                                 1052   CLINEA 0000H 0001H 01A3H 0006H 0031H
00:0484 00'00                    1053   	mov	r0,	#BYTE1 OFFSET __funcUartFin
00:0486 00'01                    1054   	mov	r1,	#BYTE2 OFFSET __funcUartFin
00:0488 5E-F0                    1055   	push	er0
00:048A 17 E2                    1056   	mov	er2,	#23
00:048C 00'00                    1057   	mov	r0,	#BYTE1 OFFSET _OutputRec
00:048E 00'01                    1058   	mov	r1,	#BYTE2 OFFSET _OutputRec
00:0490 01-F0'00-00'             1059   	bl	_uart_startSend
00:0494 02 E1                    1060   	add	sp,	#2 
                                 1061   
                                 1062   ;;					while(_flgUartFin != 1){
                                 1063   CLINEA 0000H 0000H 01A4H 0001H 000BH
00:0496 04 CE                    1064   	bal	_$L471
                                 1065   
                                 1066   ;;					while(_flgUartFin != 1){
                                 1067   CLINEA 0000H 0000H 01A4H 0006H 001DH
00:0498                          1068   _$L85 :
                                 1069   CBLOCK 141 21 420
                                 1070   
                                 1071   ;;						NOP1000();
                                 1072   CLINEA 0000H 0001H 01A5H 0007H 0010H
00:0498 01-F0'00-00'             1073   	bl	_NOP1000
                                 1074   
                                 1075   ;;						main_clrWDT();
                                 1076   CLINEA 0000H 0001H 01A6H 0007H 0014H
00:049C 01-F0'00-00'             1077   	bl	_main_clrWDT
                                 1078   CBLOCKEND 141 21 423
                                 1079   
                                 1080   ;;					while(_flgUartFin != 1){
                                 1081   CLINEA 0000H 0000H 01A4H 0001H 000BH
00:04A0                          1082   _$L471 :
00:04A0 10-90 00-00'             1083   	l	r0,	NEAR __flgUartFin
00:04A4 01 70                    1084   	cmp	r0,	#01h
00:04A6 F8 C8                    1085   	bne	_$L85
                                 1086   
                                 1087   ;;					}
                                 1088   CLINEA 0000H 0000H 01A7H 0006H 0006H
00:04A8                          1089   _$L84 :
                                 1090   CBLOCKEND 141 18 424
                                 1091   CBLOCKEND 141 17 425
                                 1092   CBLOCKEND 141 16 426
                                 1093   
                                 1094   ;;		if(RecWorld[0] == 0x49){			//if RECWORLD == "INB"
                                 1095   CLINEA 0000H 0001H 01ACH 0003H 0033H
00:04A8 10-90 00-00'             1096   	l	r0,	NEAR _RecWorld
00:04AC 49 70                    1097   	cmp	r0,	#049h
00:04AE 02 C9                    1098   	beq	_$M103
00:04B0 00-F0'00-00'             1099   	b	_$L114
00:04B4                          1100   _$M103 :
                                 1101   CBLOCK 141 22 428
                                 1102   
                                 1103   ;;			if(RecWorld[1] == 0x4E){
                                 1104   CLINEA 0000H 0001H 01ADH 0004H 001BH
00:04B4 10-90 00-00'             1105   	l	r0,	NEAR _RecWorld+01h
00:04B8 4E 70                    1106   	cmp	r0,	#04eh
00:04BA 02 C9                    1107   	beq	_$M104
00:04BC 00-F0'00-00'             1108   	b	_$L114
00:04C0                          1109   _$M104 :
                                 1110   CBLOCK 141 23 429
                                 1111   
                                 1112   ;;				if(RecWorld[2] == 0x42){
                                 1113   CLINEA 0000H 0001H 01AEH 0005H 001CH
00:04C0 10-90 00-00'             1114   	l	r0,	NEAR _RecWorld+02h
00:04C4 42 70                    1115   	cmp	r0,	#042h
00:04C6 02 C9                    1116   	beq	_$M105
00:04C8 00-F0'00-00'             1117   	b	_$L114
00:04CC                          1118   _$M105 :
                                 1119   CBLOCK 141 24 430
                                 1120   
                                 1121   ;;					InputStatus[2] = 0x42;
                                 1122   CLINEA 0000H 0001H 01AFH 0006H 001BH
00:04CC 42 00                    1123   	mov	r0,	#042h
00:04CE 11-90 00-00'             1124   	st	r0,	NEAR _InputStatus+02h
                                 1125   
                                 1126   ;;					InputRec[2] = 0x42;
                                 1127   CLINEA 0000H 0001H 01B0H 0006H 0018H
00:04D2 11-90 00-00'             1128   	st	r0,	NEAR _InputRec+02h
                                 1129   
                                 1130   ;;					for(count = 4; count < 12; count++)
                                 1131   CLINEA 0000H 0001H 01B1H 0006H 0028H
00:04D6 04 E4                    1132   	mov	er4,	#4 
00:04D8                          1133   _$L95 :
                                 1134   CBLOCK 141 25 434
                                 1135   
                                 1136   ;;						RecWorld[count] -= 0x30;
                                 1137   CLINEA 0000H 0001H 01B3H 0007H 001EH
00:04D8 48-92 00-00'             1138   	l	r2,	NEAR _RecWorld[er4]
00:04DC D0 12                    1139   	add	r2,	#0d0h
00:04DE 49-92 00-00'             1140   	st	r2,	NEAR _RecWorld[er4]
                                 1141   
                                 1142   ;;						if(RecWorld[count] != (0x01||0x00)){
                                 1143   CLINEA 0000H 0001H 01B4H 0007H 002AH
00:04E2 20-80                    1144   	mov	r0,	r2
00:04E4 01 70                    1145   	cmp	r0,	#01h
00:04E6 03 C9                    1146   	beq	_$L107
                                 1147   CBLOCK 141 26 436
                                 1148   
                                 1149   ;;							RecWorld[count] = 0;
                                 1150   CLINEA 0000H 0001H 01B5H 0008H 001BH
00:04E8 00 02                    1151   	mov	r2,	#00h
00:04EA 49-92 00-00'             1152   	st	r2,	NEAR _RecWorld[er4]
                                 1153   CBLOCKEND 141 26 438
                                 1154   
                                 1155   ;;						}
                                 1156   CLINEA 0000H 0000H 01B6H 0007H 0007H
00:04EE                          1157   _$L107 :
                                 1158   CBLOCKEND 141 25 439
                                 1159   
                                 1160   ;;					for(count = 4; count < 12; count++)
                                 1161   CLINEA 0000H 0000H 01B1H 0006H 0028H
00:04EE 81 E4                    1162   	add	er4,	#1 
00:04F0 0C 74                    1163   	cmp	r4,	#0ch
00:04F2 00 55                    1164   	cmpc	r5,	#00h
00:04F4 F1 C1                    1165   	blt	_$L95
                                 1166   
                                 1167   ;;					PB7DIR = RecWorld[4]; 
                                 1168   CLINEA 0000H 0001H 01BDH 0006H 001BH
00:04F6 10-90 00-00'             1169   	l	r0,	NEAR _RecWorld+04h
00:04FA 01 20                    1170   	and	r0,	#01h
00:04FC 03 C9                    1171   	beq	_$M49
00:04FE F0-A0 59-F2              1172   	sb	0f259h.7
00:0502 02 CE                    1173   	bal	_$M50
00:0504                          1174   _$M49 :
00:0504 F2-A0 59-F2              1175   	rb	0f259h.7
00:0508                          1176   _$M50 :
                                 1177   
                                 1178   ;;					PB2DIR = RecWorld[9];
                                 1179   CLINEA 0000H 0001H 01C2H 0006H 001AH
00:0508 10-90 00-00'             1180   	l	r0,	NEAR _RecWorld+09h
00:050C 01 20                    1181   	and	r0,	#01h
00:050E 03 C9                    1182   	beq	_$M51
00:0510 A0-A0 59-F2              1183   	sb	0f259h.2
00:0514 02 CE                    1184   	bal	_$M52
00:0516                          1185   _$M51 :
00:0516 A2-A0 59-F2              1186   	rb	0f259h.2
00:051A                          1187   _$M52 :
                                 1188   
                                 1189   ;;					InputStatus[4] = PB7DIR + 0x30;
                                 1190   CLINEA 0000H 0001H 01C7H 0006H 0024H
00:051A 10-90 59-F2              1191   	l	r0,	0f259h
00:051E 7C-90                    1192   	srl	r0,	#07h
00:0520 01 20                    1193   	and	r0,	#01h
00:0522 30 10                    1194   	add	r0,	#030h
00:0524 11-90 00-00'             1195   	st	r0,	NEAR _InputStatus+04h
                                 1196   
                                 1197   ;;					InputStatus[5] = 0x78;
                                 1198   CLINEA 0000H 0001H 01C8H 0006H 001BH
00:0528 78 00                    1199   	mov	r0,	#078h
00:052A 11-90 00-00'             1200   	st	r0,	NEAR _InputStatus+05h
                                 1201   
                                 1202   ;;					InputStatus[6] = 0x78;
                                 1203   CLINEA 0000H 0001H 01C9H 0006H 001BH
00:052E 11-90 00-00'             1204   	st	r0,	NEAR _InputStatus+06h
                                 1205   
                                 1206   ;;					InputStatus[7] = 0x78;
                                 1207   CLINEA 0000H 0001H 01CAH 0006H 001BH
00:0532 11-90 00-00'             1208   	st	r0,	NEAR _InputStatus+07h
                                 1209   
                                 1210   ;;					InputStatus[8] = 0x78;
                                 1211   CLINEA 0000H 0001H 01CBH 0006H 001BH
00:0536 11-90 00-00'             1212   	st	r0,	NEAR _InputStatus+08h
                                 1213   
                                 1214   ;;					InputStatus[9] = PB2DIR + 0x30;
                                 1215   CLINEA 0000H 0001H 01CCH 0006H 0024H
00:053A 10-90 59-F2              1216   	l	r0,	0f259h
00:053E 2C-90                    1217   	srl	r0,	#02h
00:0540 01 20                    1218   	and	r0,	#01h
00:0542 30 10                    1219   	add	r0,	#030h
00:0544 11-90 00-00'             1220   	st	r0,	NEAR _InputStatus+09h
                                 1221   
                                 1222   ;;					InputStatus[10] = 0x78;
                                 1223   CLINEA 0000H 0001H 01CDH 0006H 001CH
00:0548 78 00                    1224   	mov	r0,	#078h
00:054A 11-90 00-00'             1225   	st	r0,	NEAR _InputStatus+0ah
                                 1226   
                                 1227   ;;					InputStatus[11] = 0x78;
                                 1228   CLINEA 0000H 0001H 01CEH 0006H 001CH
00:054E 11-90 00-00'             1229   	st	r0,	NEAR _InputStatus+0bh
                                 1230   
                                 1231   ;;					InputStatus[13] = PB7D + 0x30;
                                 1232   CLINEA 0000H 0001H 01D1H 0006H 0023H
00:0552 10-90 58-F2              1233   	l	r0,	0f258h
00:0556 7C-90                    1234   	srl	r0,	#07h
00:0558 01 20                    1235   	and	r0,	#01h
00:055A 30 10                    1236   	add	r0,	#030h
00:055C 11-90 00-00'             1237   	st	r0,	NEAR _InputStatus+0dh
                                 1238   
                                 1239   ;;					InputStatus[14] = 0x78;
                                 1240   CLINEA 0000H 0001H 01D2H 0006H 001CH
00:0560 78 00                    1241   	mov	r0,	#078h
00:0562 11-90 00-00'             1242   	st	r0,	NEAR _InputStatus+0eh
                                 1243   
                                 1244   ;;					InputStatus[15] = 0x78;
                                 1245   CLINEA 0000H 0001H 01D3H 0006H 001CH
00:0566 11-90 00-00'             1246   	st	r0,	NEAR _InputStatus+0fh
                                 1247   
                                 1248   ;;					InputStatus[16] = 0x78;
                                 1249   CLINEA 0000H 0001H 01D4H 0006H 001CH
00:056A 11-90 00-00'             1250   	st	r0,	NEAR _InputStatus+010h
                                 1251   
                                 1252   ;;					InputStatus[17] = 0x78;
                                 1253   CLINEA 0000H 0001H 01D5H 0006H 001CH
00:056E 11-90 00-00'             1254   	st	r0,	NEAR _InputStatus+011h
                                 1255   
                                 1256   ;;					InputStatus[18] = PB2D + 0x30;
                                 1257   CLINEA 0000H 0001H 01D6H 0006H 0023H
00:0572 10-90 58-F2              1258   	l	r0,	0f258h
00:0576 2C-90                    1259   	srl	r0,	#02h
00:0578 01 20                    1260   	and	r0,	#01h
00:057A 30 10                    1261   	add	r0,	#030h
00:057C 11-90 00-00'             1262   	st	r0,	NEAR _InputStatus+012h
                                 1263   
                                 1264   ;;					InputStatus[19] = 0x78;
                                 1265   CLINEA 0000H 0001H 01D7H 0006H 001CH
00:0580 78 00                    1266   	mov	r0,	#078h
00:0582 11-90 00-00'             1267   	st	r0,	NEAR _InputStatus+013h
                                 1268   
                                 1269   ;;					InputStatus[20] = 0x78;
                                 1270   CLINEA 0000H 0001H 01D8H 0006H 001CH
00:0586 11-90 00-00'             1271   	st	r0,	NEAR _InputStatus+014h
                                 1272   
                                 1273   ;;					_flgUartFin = 0;
                                 1274   CLINEA 0000H 0001H 01DCH 0006H 0015H
00:058A 00 00                    1275   	mov	r0,	#00h
00:058C 11-90 00-00'             1276   	st	r0,	NEAR __flgUartFin
                                 1277   
                                 1278   ;;					uart_stop();
                                 1279   CLINEA 0000H 0001H 01DDH 0006H 0011H
00:0590 01-F0'00-00'             1280   	bl	_uart_stop
                                 1281   
                                 1282   ;;					uart_startSend(InputStatus, 23, _funcUartFin);
                                 1283   CLINEA 0000H 0001H 01DEH 0006H 0033H
00:0594 00'00                    1284   	mov	r0,	#BYTE1 OFFSET __funcUartFin
00:0596 00'01                    1285   	mov	r1,	#BYTE2 OFFSET __funcUartFin
00:0598 5E-F0                    1286   	push	er0
00:059A 17 E2                    1287   	mov	er2,	#23
00:059C 00'00                    1288   	mov	r0,	#BYTE1 OFFSET _InputStatus
00:059E 00'01                    1289   	mov	r1,	#BYTE2 OFFSET _InputStatus
00:05A0 01-F0'00-00'             1290   	bl	_uart_startSend
00:05A4 02 E1                    1291   	add	sp,	#2 
                                 1292   
                                 1293   ;;					while(_flgUartFin != 1){
                                 1294   CLINEA 0000H 0000H 01DFH 0001H 000BH
00:05A6 04 CE                    1295   	bal	_$L472
                                 1296   
                                 1297   ;;					while(_flgUartFin != 1){
                                 1298   CLINEA 0000H 0000H 01DFH 0006H 001DH
00:05A8                          1299   _$L111 :
                                 1300   CBLOCK 141 27 479
                                 1301   
                                 1302   ;;						NOP1000();
                                 1303   CLINEA 0000H 0001H 01E0H 0007H 0010H
00:05A8 01-F0'00-00'             1304   	bl	_NOP1000
                                 1305   
                                 1306   ;;						main_clrWDT();
                                 1307   CLINEA 0000H 0001H 01E1H 0007H 0014H
00:05AC 01-F0'00-00'             1308   	bl	_main_clrWDT
                                 1309   CBLOCKEND 141 27 482
                                 1310   
                                 1311   ;;					while(_flgUartFin != 1){
                                 1312   CLINEA 0000H 0000H 01DFH 0001H 000BH
00:05B0                          1313   _$L472 :
00:05B0 10-90 00-00'             1314   	l	r0,	NEAR __flgUartFin
00:05B4 01 70                    1315   	cmp	r0,	#01h
00:05B6 F8 C8                    1316   	bne	_$L111
                                 1317   
                                 1318   ;;					_flgUartFin = 0;
                                 1319   CLINEA 0000H 0001H 01E5H 0006H 0015H
00:05B8 00 00                    1320   	mov	r0,	#00h
00:05BA 11-90 00-00'             1321   	st	r0,	NEAR __flgUartFin
                                 1322   
                                 1323   ;;					uart_stop();
                                 1324   CLINEA 0000H 0001H 01E6H 0006H 0011H
00:05BE 01-F0'00-00'             1325   	bl	_uart_stop
                                 1326   
                                 1327   ;;					uart_startSend(InputRec, 14, _funcUartFin);
                                 1328   CLINEA 0000H 0001H 01E7H 0006H 0030H
00:05C2 00'00                    1329   	mov	r0,	#BYTE1 OFFSET __funcUartFin
00:05C4 00'01                    1330   	mov	r1,	#BYTE2 OFFSET __funcUartFin
00:05C6 5E-F0                    1331   	push	er0
00:05C8 0E E2                    1332   	mov	er2,	#14
00:05CA 00'00                    1333   	mov	r0,	#BYTE1 OFFSET _InputRec
00:05CC 00'01                    1334   	mov	r1,	#BYTE2 OFFSET _InputRec
00:05CE 01-F0'00-00'             1335   	bl	_uart_startSend
00:05D2 02 E1                    1336   	add	sp,	#2 
                                 1337   
                                 1338   ;;					while(_flgUartFin != 1){
                                 1339   CLINEA 0000H 0000H 01E8H 0001H 000BH
00:05D4 04 CE                    1340   	bal	_$L473
                                 1341   
                                 1342   ;;					while(_flgUartFin != 1){
                                 1343   CLINEA 0000H 0000H 01E8H 0006H 001DH
00:05D6                          1344   _$L115 :
                                 1345   CBLOCK 141 28 488
                                 1346   
                                 1347   ;;						NOP1000();
                                 1348   CLINEA 0000H 0001H 01E9H 0007H 0010H
00:05D6 01-F0'00-00'             1349   	bl	_NOP1000
                                 1350   
                                 1351   ;;						main_clrWDT();
                                 1352   CLINEA 0000H 0001H 01EAH 0007H 0014H
00:05DA 01-F0'00-00'             1353   	bl	_main_clrWDT
                                 1354   CBLOCKEND 141 28 491
                                 1355   
                                 1356   ;;					while(_flgUartFin != 1){
                                 1357   CLINEA 0000H 0000H 01E8H 0001H 000BH
00:05DE                          1358   _$L473 :
00:05DE 10-90 00-00'             1359   	l	r0,	NEAR __flgUartFin
00:05E2 01 70                    1360   	cmp	r0,	#01h
00:05E4 F8 C8                    1361   	bne	_$L115
                                 1362   
                                 1363   ;;					}
                                 1364   CLINEA 0000H 0000H 01EBH 0006H 0006H
00:05E6                          1365   _$L114 :
                                 1366   CBLOCKEND 141 24 492
                                 1367   CBLOCKEND 141 23 493
                                 1368   CBLOCKEND 141 22 494
                                 1369   
                                 1370   ;;		if(RecWorld[0] == 0x4F){			//if RECWORLD == "OUB"
                                 1371   CLINEA 0000H 0001H 01F1H 0003H 0033H
00:05E6 10-90 00-00'             1372   	l	r0,	NEAR _RecWorld
00:05EA 4F 70                    1373   	cmp	r0,	#04fh
00:05EC 02 C9                    1374   	beq	_$M106
00:05EE 00-F0'00-00'             1375   	b	_$L140
00:05F2                          1376   _$M106 :
                                 1377   CBLOCK 141 29 497
                                 1378   
                                 1379   ;;			if(RecWorld[1] == 0x55){
                                 1380   CLINEA 0000H 0001H 01F2H 0004H 001BH
00:05F2 10-90 00-00'             1381   	l	r0,	NEAR _RecWorld+01h
00:05F6 55 70                    1382   	cmp	r0,	#055h
00:05F8 02 C9                    1383   	beq	_$M107
00:05FA 00-F0'00-00'             1384   	b	_$L140
00:05FE                          1385   _$M107 :
                                 1386   CBLOCK 141 30 498
                                 1387   
                                 1388   ;;				if(RecWorld[2] == 0x42){
                                 1389   CLINEA 0000H 0001H 01F3H 0005H 001CH
00:05FE 10-90 00-00'             1390   	l	r0,	NEAR _RecWorld+02h
00:0602 42 70                    1391   	cmp	r0,	#042h
00:0604 02 C9                    1392   	beq	_$M108
00:0606 00-F0'00-00'             1393   	b	_$L140
00:060A                          1394   _$M108 :
                                 1395   CBLOCK 141 31 499
                                 1396   
                                 1397   ;;					OutputRec[2] = 0x42;
                                 1398   CLINEA 0000H 0001H 01F4H 0006H 0019H
00:060A 42 00                    1399   	mov	r0,	#042h
00:060C 11-90 00-00'             1400   	st	r0,	NEAR _OutputRec+02h
                                 1401   
                                 1402   ;;					for(count = 4; count < 21; count++)
                                 1403   CLINEA 0000H 0001H 01F5H 0006H 0028H
00:0610 04 E4                    1404   	mov	er4,	#4 
00:0612                          1405   _$L125 :
                                 1406   CBLOCK 141 32 502
                                 1407   
                                 1408   ;;						RecWorld[count] -= 0x30;
                                 1409   CLINEA 0000H 0001H 01F7H 0007H 001EH
00:0612 48-92 00-00'             1410   	l	r2,	NEAR _RecWorld[er4]
00:0616 D0 12                    1411   	add	r2,	#0d0h
00:0618 49-92 00-00'             1412   	st	r2,	NEAR _RecWorld[er4]
                                 1413   
                                 1414   ;;						if(RecWorld[count] != (0x01||0x00)){
                                 1415   CLINEA 0000H 0001H 01F8H 0007H 002AH
00:061C 20-80                    1416   	mov	r0,	r2
00:061E 01 70                    1417   	cmp	r0,	#01h
00:0620 03 C9                    1418   	beq	_$L137
                                 1419   CBLOCK 141 33 504
                                 1420   
                                 1421   ;;							RecWorld[count] = 0;
                                 1422   CLINEA 0000H 0001H 01F9H 0008H 001BH
00:0622 00 02                    1423   	mov	r2,	#00h
00:0624 49-92 00-00'             1424   	st	r2,	NEAR _RecWorld[er4]
                                 1425   CBLOCKEND 141 33 506
                                 1426   
                                 1427   ;;						}
                                 1428   CLINEA 0000H 0000H 01FAH 0007H 0007H
00:0628                          1429   _$L137 :
                                 1430   CBLOCKEND 141 32 507
                                 1431   
                                 1432   ;;					for(count = 4; count < 21; count++)
                                 1433   CLINEA 0000H 0000H 01F5H 0006H 0028H
00:0628 81 E4                    1434   	add	er4,	#1 
00:062A 15 74                    1435   	cmp	r4,	#015h
00:062C 00 55                    1436   	cmpc	r5,	#00h
00:062E F1 C1                    1437   	blt	_$L125
                                 1438   
                                 1439   ;;					PB7DIR = RecWorld[4];
                                 1440   CLINEA 0000H 0001H 01FDH 0006H 001AH
00:0630 10-90 00-00'             1441   	l	r0,	NEAR _RecWorld+04h
00:0634 01 20                    1442   	and	r0,	#01h
00:0636 03 C9                    1443   	beq	_$M53
00:0638 F0-A0 59-F2              1444   	sb	0f259h.7
00:063C 02 CE                    1445   	bal	_$M54
00:063E                          1446   _$M53 :
00:063E F2-A0 59-F2              1447   	rb	0f259h.7
00:0642                          1448   _$M54 :
                                 1449   
                                 1450   ;;					PB2DIR = RecWorld[9];
                                 1451   CLINEA 0000H 0001H 0202H 0006H 001AH
00:0642 10-90 00-00'             1452   	l	r0,	NEAR _RecWorld+09h
00:0646 01 20                    1453   	and	r0,	#01h
00:0648 03 C9                    1454   	beq	_$M55
00:064A A0-A0 59-F2              1455   	sb	0f259h.2
00:064E 02 CE                    1456   	bal	_$M56
00:0650                          1457   _$M55 :
00:0650 A2-A0 59-F2              1458   	rb	0f259h.2
00:0654                          1459   _$M56 :
                                 1460   
                                 1461   ;;					PB7D = RecWorld[13];
                                 1462   CLINEA 0000H 0001H 0207H 0006H 0019H
00:0654 10-90 00-00'             1463   	l	r0,	NEAR _RecWorld+0dh
00:0658 01 20                    1464   	and	r0,	#01h
00:065A 03 C9                    1465   	beq	_$M57
00:065C F0-A0 58-F2              1466   	sb	0f258h.7
00:0660 02 CE                    1467   	bal	_$M58
00:0662                          1468   _$M57 :
00:0662 F2-A0 58-F2              1469   	rb	0f258h.7
00:0666                          1470   _$M58 :
                                 1471   
                                 1472   ;;					PB2D = RecWorld[18];
                                 1473   CLINEA 0000H 0001H 020CH 0006H 0019H
00:0666 10-90 00-00'             1474   	l	r0,	NEAR _RecWorld+012h
00:066A 01 20                    1475   	and	r0,	#01h
00:066C 03 C9                    1476   	beq	_$M59
00:066E A0-A0 58-F2              1477   	sb	0f258h.2
00:0672 02 CE                    1478   	bal	_$M60
00:0674                          1479   _$M59 :
00:0674 A2-A0 58-F2              1480   	rb	0f258h.2
00:0678                          1481   _$M60 :
                                 1482   
                                 1483   ;;					OutputRec[13] = PB7D + 0x30;
                                 1484   CLINEA 0000H 0001H 0211H 0006H 0021H
00:0678 10-90 58-F2              1485   	l	r0,	0f258h
00:067C 7C-90                    1486   	srl	r0,	#07h
00:067E 01 20                    1487   	and	r0,	#01h
00:0680 30 10                    1488   	add	r0,	#030h
00:0682 11-90 00-00'             1489   	st	r0,	NEAR _OutputRec+0dh
                                 1490   
                                 1491   ;;					OutputRec[14] = 0x78;
                                 1492   CLINEA 0000H 0001H 0212H 0006H 001AH
00:0686 78 00                    1493   	mov	r0,	#078h
00:0688 11-90 00-00'             1494   	st	r0,	NEAR _OutputRec+0eh
                                 1495   
                                 1496   ;;					OutputRec[15] = 0x78;
                                 1497   CLINEA 0000H 0001H 0213H 0006H 001AH
00:068C 11-90 00-00'             1498   	st	r0,	NEAR _OutputRec+0fh
                                 1499   
                                 1500   ;;					OutputRec[16] = 0x78;
                                 1501   CLINEA 0000H 0001H 0214H 0006H 001AH
00:0690 11-90 00-00'             1502   	st	r0,	NEAR _OutputRec+010h
                                 1503   
                                 1504   ;;					OutputRec[17] = 0x78;
                                 1505   CLINEA 0000H 0001H 0215H 0006H 001AH
00:0694 11-90 00-00'             1506   	st	r0,	NEAR _OutputRec+011h
                                 1507   
                                 1508   ;;					OutputRec[18] = PB2D + 0x30;
                                 1509   CLINEA 0000H 0001H 0216H 0006H 0021H
00:0698 10-90 58-F2              1510   	l	r0,	0f258h
00:069C 2C-90                    1511   	srl	r0,	#02h
00:069E 01 20                    1512   	and	r0,	#01h
00:06A0 30 10                    1513   	add	r0,	#030h
00:06A2 11-90 00-00'             1514   	st	r0,	NEAR _OutputRec+012h
                                 1515   
                                 1516   ;;					OutputRec[19] = 0x78;
                                 1517   CLINEA 0000H 0001H 0217H 0006H 001AH
00:06A6 78 00                    1518   	mov	r0,	#078h
00:06A8 11-90 00-00'             1519   	st	r0,	NEAR _OutputRec+013h
                                 1520   
                                 1521   ;;					OutputRec[20] = 0x78;
                                 1522   CLINEA 0000H 0001H 0218H 0006H 001AH
00:06AC 11-90 00-00'             1523   	st	r0,	NEAR _OutputRec+014h
                                 1524   
                                 1525   ;;					_flgUartFin = 0;
                                 1526   CLINEA 0000H 0001H 021AH 0006H 0015H
00:06B0 00 00                    1527   	mov	r0,	#00h
00:06B2 11-90 00-00'             1528   	st	r0,	NEAR __flgUartFin
                                 1529   
                                 1530   ;;					uart_stop();
                                 1531   CLINEA 0000H 0001H 021BH 0006H 0011H
00:06B6 01-F0'00-00'             1532   	bl	_uart_stop
                                 1533   
                                 1534   ;;					uart_startSend(OutputRec, 23, _funcUartFin);
                                 1535   CLINEA 0000H 0001H 021CH 0006H 0031H
00:06BA 00'00                    1536   	mov	r0,	#BYTE1 OFFSET __funcUartFin
00:06BC 00'01                    1537   	mov	r1,	#BYTE2 OFFSET __funcUartFin
00:06BE 5E-F0                    1538   	push	er0
00:06C0 17 E2                    1539   	mov	er2,	#23
00:06C2 00'00                    1540   	mov	r0,	#BYTE1 OFFSET _OutputRec
00:06C4 00'01                    1541   	mov	r1,	#BYTE2 OFFSET _OutputRec
00:06C6 01-F0'00-00'             1542   	bl	_uart_startSend
00:06CA 02 E1                    1543   	add	sp,	#2 
                                 1544   
                                 1545   ;;					while(_flgUartFin != 1){
                                 1546   CLINEA 0000H 0000H 021DH 0001H 000BH
00:06CC 04 CE                    1547   	bal	_$L474
                                 1548   
                                 1549   ;;					while(_flgUartFin != 1){
                                 1550   CLINEA 0000H 0000H 021DH 0006H 001DH
00:06CE                          1551   _$L141 :
                                 1552   CBLOCK 141 34 541
                                 1553   
                                 1554   ;;						NOP1000();
                                 1555   CLINEA 0000H 0001H 021EH 0007H 0010H
00:06CE 01-F0'00-00'             1556   	bl	_NOP1000
                                 1557   
                                 1558   ;;						main_clrWDT();
                                 1559   CLINEA 0000H 0001H 021FH 0007H 0014H
00:06D2 01-F0'00-00'             1560   	bl	_main_clrWDT
                                 1561   CBLOCKEND 141 34 544
                                 1562   
                                 1563   ;;					while(_flgUartFin != 1){
                                 1564   CLINEA 0000H 0000H 021DH 0001H 000BH
00:06D6                          1565   _$L474 :
00:06D6 10-90 00-00'             1566   	l	r0,	NEAR __flgUartFin
00:06DA 01 70                    1567   	cmp	r0,	#01h
00:06DC F8 C8                    1568   	bne	_$L141
                                 1569   
                                 1570   ;;					}
                                 1571   CLINEA 0000H 0000H 0220H 0006H 0006H
00:06DE                          1572   _$L140 :
                                 1573   CBLOCKEND 141 31 545
                                 1574   CBLOCKEND 141 30 546
                                 1575   CBLOCKEND 141 29 547
                                 1576   
                                 1577   ;;		if(RecWorld[0] == 0x49){			//if RECWORLD == "IND"
                                 1578   CLINEA 0000H 0001H 0226H 0003H 0033H
00:06DE 10-90 00-00'             1579   	l	r0,	NEAR _RecWorld
00:06E2 49 70                    1580   	cmp	r0,	#049h
00:06E4 02 C9                    1581   	beq	_$M109
00:06E6 00-F0'00-00'             1582   	b	_$L170
00:06EA                          1583   _$M109 :
                                 1584   CBLOCK 141 35 550
                                 1585   
                                 1586   ;;			if(RecWorld[1] == 0x4E){
                                 1587   CLINEA 0000H 0001H 0227H 0004H 001BH
00:06EA 10-90 00-00'             1588   	l	r0,	NEAR _RecWorld+01h
00:06EE 4E 70                    1589   	cmp	r0,	#04eh
00:06F0 02 C9                    1590   	beq	_$M110
00:06F2 00-F0'00-00'             1591   	b	_$L170
00:06F6                          1592   _$M110 :
                                 1593   CBLOCK 141 36 551
                                 1594   
                                 1595   ;;				if(RecWorld[2] == 0x44){
                                 1596   CLINEA 0000H 0001H 0228H 0005H 001CH
00:06F6 10-90 00-00'             1597   	l	r0,	NEAR _RecWorld+02h
00:06FA 44 70                    1598   	cmp	r0,	#044h
00:06FC 02 C9                    1599   	beq	_$M111
00:06FE 00-F0'00-00'             1600   	b	_$L170
00:0702                          1601   _$M111 :
                                 1602   CBLOCK 141 37 552
                                 1603   
                                 1604   ;;					InputStatus[2] = 0x44;
                                 1605   CLINEA 0000H 0001H 0229H 0006H 001BH
00:0702 44 00                    1606   	mov	r0,	#044h
00:0704 11-90 00-00'             1607   	st	r0,	NEAR _InputStatus+02h
                                 1608   
                                 1609   ;;					InputRec[2] = 0x44;
                                 1610   CLINEA 0000H 0001H 022AH 0006H 0018H
00:0708 11-90 00-00'             1611   	st	r0,	NEAR _InputRec+02h
                                 1612   
                                 1613   ;;					for(count = 4; count < 12; count++)
                                 1614   CLINEA 0000H 0001H 022BH 0006H 0028H
00:070C 04 E4                    1615   	mov	er4,	#4 
00:070E                          1616   _$L151 :
                                 1617   CBLOCK 141 38 556
                                 1618   
                                 1619   ;;						RecWorld[count] -= 0x30;
                                 1620   CLINEA 0000H 0001H 022DH 0007H 001EH
00:070E 48-92 00-00'             1621   	l	r2,	NEAR _RecWorld[er4]
00:0712 D0 12                    1622   	add	r2,	#0d0h
00:0714 49-92 00-00'             1623   	st	r2,	NEAR _RecWorld[er4]
                                 1624   
                                 1625   ;;						if(RecWorld[count] != (0x01||0x00)){
                                 1626   CLINEA 0000H 0001H 022EH 0007H 002AH
00:0718 20-80                    1627   	mov	r0,	r2
00:071A 01 70                    1628   	cmp	r0,	#01h
00:071C 03 C9                    1629   	beq	_$L163
                                 1630   CBLOCK 141 39 558
                                 1631   
                                 1632   ;;							RecWorld[count] = 0;
                                 1633   CLINEA 0000H 0001H 022FH 0008H 001BH
00:071E 00 02                    1634   	mov	r2,	#00h
00:0720 49-92 00-00'             1635   	st	r2,	NEAR _RecWorld[er4]
                                 1636   CBLOCKEND 141 39 560
                                 1637   
                                 1638   ;;						}
                                 1639   CLINEA 0000H 0000H 0230H 0007H 0007H
00:0724                          1640   _$L163 :
                                 1641   CBLOCKEND 141 38 561
                                 1642   
                                 1643   ;;					for(count = 4; count < 12; count++)
                                 1644   CLINEA 0000H 0000H 022BH 0006H 0028H
00:0724 81 E4                    1645   	add	er4,	#1 
00:0726 0C 74                    1646   	cmp	r4,	#0ch
00:0728 00 55                    1647   	cmpc	r5,	#00h
00:072A F1 C1                    1648   	blt	_$L151
                                 1649   
                                 1650   ;;					PD5DIR = RecWorld[6];
                                 1651   CLINEA 0000H 0001H 0236H 0006H 001AH
00:072C 10-90 00-00'             1652   	l	r0,	NEAR _RecWorld+06h
00:0730 01 20                    1653   	and	r0,	#01h
00:0732 03 C9                    1654   	beq	_$M61
00:0734 D0-A0 69-F2              1655   	sb	0f269h.5
00:0738 02 CE                    1656   	bal	_$M62
00:073A                          1657   _$M61 :
00:073A D2-A0 69-F2              1658   	rb	0f269h.5
00:073E                          1659   _$M62 :
                                 1660   
                                 1661   ;;					PD4DIR = RecWorld[7];
                                 1662   CLINEA 0000H 0001H 0237H 0006H 001AH
00:073E 10-90 00-00'             1663   	l	r0,	NEAR _RecWorld+07h
00:0742 01 20                    1664   	and	r0,	#01h
00:0744 03 C9                    1665   	beq	_$M63
00:0746 C0-A0 69-F2              1666   	sb	0f269h.4
00:074A 02 CE                    1667   	bal	_$M64
00:074C                          1668   _$M63 :
00:074C C2-A0 69-F2              1669   	rb	0f269h.4
00:0750                          1670   _$M64 :
                                 1671   
                                 1672   ;;					PD3DIR = RecWorld[8];
                                 1673   CLINEA 0000H 0001H 0238H 0006H 001AH
00:0750 10-90 00-00'             1674   	l	r0,	NEAR _RecWorld+08h
00:0754 01 20                    1675   	and	r0,	#01h
00:0756 03 C9                    1676   	beq	_$M65
00:0758 B0-A0 69-F2              1677   	sb	0f269h.3
00:075C 02 CE                    1678   	bal	_$M66
00:075E                          1679   _$M65 :
00:075E B2-A0 69-F2              1680   	rb	0f269h.3
00:0762                          1681   _$M66 :
                                 1682   
                                 1683   ;;					PD2DIR = RecWorld[9];
                                 1684   CLINEA 0000H 0001H 0239H 0006H 001AH
00:0762 10-90 00-00'             1685   	l	r0,	NEAR _RecWorld+09h
00:0766 01 20                    1686   	and	r0,	#01h
00:0768 03 C9                    1687   	beq	_$M67
00:076A A0-A0 69-F2              1688   	sb	0f269h.2
00:076E 02 CE                    1689   	bal	_$M68
00:0770                          1690   _$M67 :
00:0770 A2-A0 69-F2              1691   	rb	0f269h.2
00:0774                          1692   _$M68 :
                                 1693   
                                 1694   ;;					PD1DIR = RecWorld[10];
                                 1695   CLINEA 0000H 0001H 023AH 0006H 001BH
00:0774 10-90 00-00'             1696   	l	r0,	NEAR _RecWorld+0ah
00:0778 01 20                    1697   	and	r0,	#01h
00:077A 03 C9                    1698   	beq	_$M69
00:077C 90-A0 69-F2              1699   	sb	0f269h.1
00:0780 02 CE                    1700   	bal	_$M70
00:0782                          1701   _$M69 :
00:0782 92-A0 69-F2              1702   	rb	0f269h.1
00:0786                          1703   _$M70 :
                                 1704   
                                 1705   ;;					PD0DIR = RecWorld[11];
                                 1706   CLINEA 0000H 0001H 023BH 0006H 001BH
00:0786 10-90 00-00'             1707   	l	r0,	NEAR _RecWorld+0bh
00:078A 01 20                    1708   	and	r0,	#01h
00:078C 03 C9                    1709   	beq	_$M71
00:078E 80-A0 69-F2              1710   	sb	0f269h.0
00:0792 02 CE                    1711   	bal	_$M72
00:0794                          1712   _$M71 :
00:0794 82-A0 69-F2              1713   	rb	0f269h.0
00:0798                          1714   _$M72 :
                                 1715   
                                 1716   ;;					InputStatus[4] = 0x78;
                                 1717   CLINEA 0000H 0001H 023EH 0006H 001BH
00:0798 78 00                    1718   	mov	r0,	#078h
00:079A 11-90 00-00'             1719   	st	r0,	NEAR _InputStatus+04h
                                 1720   
                                 1721   ;;					InputStatus[5] = 0x78;
                                 1722   CLINEA 0000H 0001H 023FH 0006H 001BH
00:079E 11-90 00-00'             1723   	st	r0,	NEAR _InputStatus+05h
                                 1724   
                                 1725   ;;					InputStatus[6] = PD5DIR + 0x30;
                                 1726   CLINEA 0000H 0001H 0240H 0006H 0024H
00:07A2 10-90 69-F2              1727   	l	r0,	0f269h
00:07A6 5C-90                    1728   	srl	r0,	#05h
00:07A8 01 20                    1729   	and	r0,	#01h
00:07AA 30 10                    1730   	add	r0,	#030h
00:07AC 11-90 00-00'             1731   	st	r0,	NEAR _InputStatus+06h
                                 1732   
                                 1733   ;;					InputStatus[7] = PD4DIR + 0x30;
                                 1734   CLINEA 0000H 0001H 0241H 0006H 0024H
00:07B0 10-90 69-F2              1735   	l	r0,	0f269h
00:07B4 4C-90                    1736   	srl	r0,	#04h
00:07B6 01 20                    1737   	and	r0,	#01h
00:07B8 30 10                    1738   	add	r0,	#030h
00:07BA 11-90 00-00'             1739   	st	r0,	NEAR _InputStatus+07h
                                 1740   
                                 1741   ;;					InputStatus[8] = PD3DIR + 0x30;
                                 1742   CLINEA 0000H 0001H 0242H 0006H 0024H
00:07BE 10-90 69-F2              1743   	l	r0,	0f269h
00:07C2 3C-90                    1744   	srl	r0,	#03h
00:07C4 01 20                    1745   	and	r0,	#01h
00:07C6 30 10                    1746   	add	r0,	#030h
00:07C8 11-90 00-00'             1747   	st	r0,	NEAR _InputStatus+08h
                                 1748   
                                 1749   ;;					InputStatus[9] = PD2DIR + 0x30;
                                 1750   CLINEA 0000H 0001H 0243H 0006H 0024H
00:07CC 10-90 69-F2              1751   	l	r0,	0f269h
00:07D0 2C-90                    1752   	srl	r0,	#02h
00:07D2 01 20                    1753   	and	r0,	#01h
00:07D4 30 10                    1754   	add	r0,	#030h
00:07D6 11-90 00-00'             1755   	st	r0,	NEAR _InputStatus+09h
                                 1756   
                                 1757   ;;					InputStatus[10] = PD1DIR + 0x30;
                                 1758   CLINEA 0000H 0001H 0244H 0006H 0025H
00:07DA 10-90 69-F2              1759   	l	r0,	0f269h
00:07DE 1C-90                    1760   	srl	r0,	#01h
00:07E0 01 20                    1761   	and	r0,	#01h
00:07E2 30 10                    1762   	add	r0,	#030h
00:07E4 11-90 00-00'             1763   	st	r0,	NEAR _InputStatus+0ah
                                 1764   
                                 1765   ;;					InputStatus[11] = PD0DIR + 0x30;
                                 1766   CLINEA 0000H 0001H 0245H 0006H 0025H
00:07E8 10-90 69-F2              1767   	l	r0,	0f269h
00:07EC 01 20                    1768   	and	r0,	#01h
00:07EE 30 10                    1769   	add	r0,	#030h
00:07F0 11-90 00-00'             1770   	st	r0,	NEAR _InputStatus+0bh
                                 1771   
                                 1772   ;;					InputStatus[13] = 0x78;
                                 1773   CLINEA 0000H 0001H 0248H 0006H 001CH
00:07F4 78 00                    1774   	mov	r0,	#078h
00:07F6 11-90 00-00'             1775   	st	r0,	NEAR _InputStatus+0dh
                                 1776   
                                 1777   ;;					InputStatus[14] = 0x78;
                                 1778   CLINEA 0000H 0001H 0249H 0006H 001CH
00:07FA 11-90 00-00'             1779   	st	r0,	NEAR _InputStatus+0eh
                                 1780   
                                 1781   ;;					InputStatus[15] = PD5D + 0x30;
                                 1782   CLINEA 0000H 0001H 024AH 0006H 0023H
00:07FE 10-90 68-F2              1783   	l	r0,	0f268h
00:0802 5C-90                    1784   	srl	r0,	#05h
00:0804 01 20                    1785   	and	r0,	#01h
00:0806 30 10                    1786   	add	r0,	#030h
00:0808 11-90 00-00'             1787   	st	r0,	NEAR _InputStatus+0fh
                                 1788   
                                 1789   ;;					InputStatus[16] = PD4D + 0x30;
                                 1790   CLINEA 0000H 0001H 024BH 0006H 0023H
00:080C 10-90 68-F2              1791   	l	r0,	0f268h
00:0810 4C-90                    1792   	srl	r0,	#04h
00:0812 01 20                    1793   	and	r0,	#01h
00:0814 30 10                    1794   	add	r0,	#030h
00:0816 11-90 00-00'             1795   	st	r0,	NEAR _InputStatus+010h
                                 1796   
                                 1797   ;;					InputStatus[17] = PD3D + 0x30;
                                 1798   CLINEA 0000H 0001H 024CH 0006H 0023H
00:081A 10-90 68-F2              1799   	l	r0,	0f268h
00:081E 3C-90                    1800   	srl	r0,	#03h
00:0820 01 20                    1801   	and	r0,	#01h
00:0822 30 10                    1802   	add	r0,	#030h
00:0824 11-90 00-00'             1803   	st	r0,	NEAR _InputStatus+011h
                                 1804   
                                 1805   ;;					InputStatus[18] = PD2D + 0x30;
                                 1806   CLINEA 0000H 0001H 024DH 0006H 0023H
00:0828 10-90 68-F2              1807   	l	r0,	0f268h
00:082C 2C-90                    1808   	srl	r0,	#02h
00:082E 01 20                    1809   	and	r0,	#01h
00:0830 30 10                    1810   	add	r0,	#030h
00:0832 11-90 00-00'             1811   	st	r0,	NEAR _InputStatus+012h
                                 1812   
                                 1813   ;;					InputStatus[19] = PD1D + 0x30;
                                 1814   CLINEA 0000H 0001H 024EH 0006H 0023H
00:0836 10-90 68-F2              1815   	l	r0,	0f268h
00:083A 1C-90                    1816   	srl	r0,	#01h
00:083C 01 20                    1817   	and	r0,	#01h
00:083E 30 10                    1818   	add	r0,	#030h
00:0840 11-90 00-00'             1819   	st	r0,	NEAR _InputStatus+013h
                                 1820   
                                 1821   ;;					InputStatus[20] = PD0D + 0x30;
                                 1822   CLINEA 0000H 0001H 024FH 0006H 0023H
00:0844 10-90 68-F2              1823   	l	r0,	0f268h
00:0848 01 20                    1824   	and	r0,	#01h
00:084A 30 10                    1825   	add	r0,	#030h
00:084C 11-90 00-00'             1826   	st	r0,	NEAR _InputStatus+014h
                                 1827   
                                 1828   ;;					_flgUartFin = 0;
                                 1829   CLINEA 0000H 0001H 0253H 0006H 0015H
00:0850 00 00                    1830   	mov	r0,	#00h
00:0852 11-90 00-00'             1831   	st	r0,	NEAR __flgUartFin
                                 1832   
                                 1833   ;;					uart_stop();
                                 1834   CLINEA 0000H 0001H 0254H 0006H 0011H
00:0856 01-F0'00-00'             1835   	bl	_uart_stop
                                 1836   
                                 1837   ;;					uart_startSend(InputStatus, 23, _funcUartFin);
                                 1838   CLINEA 0000H 0001H 0255H 0006H 0033H
00:085A 00'00                    1839   	mov	r0,	#BYTE1 OFFSET __funcUartFin
00:085C 00'01                    1840   	mov	r1,	#BYTE2 OFFSET __funcUartFin
00:085E 5E-F0                    1841   	push	er0
00:0860 17 E2                    1842   	mov	er2,	#23
00:0862 00'00                    1843   	mov	r0,	#BYTE1 OFFSET _InputStatus
00:0864 00'01                    1844   	mov	r1,	#BYTE2 OFFSET _InputStatus
00:0866 01-F0'00-00'             1845   	bl	_uart_startSend
00:086A 02 E1                    1846   	add	sp,	#2 
                                 1847   
                                 1848   ;;					while(_flgUartFin != 1){
                                 1849   CLINEA 0000H 0000H 0256H 0001H 000BH
00:086C 04 CE                    1850   	bal	_$L475
                                 1851   
                                 1852   ;;					while(_flgUartFin != 1){
                                 1853   CLINEA 0000H 0000H 0256H 0006H 001DH
00:086E                          1854   _$L167 :
                                 1855   CBLOCK 141 40 598
                                 1856   
                                 1857   ;;						NOP1000();
                                 1858   CLINEA 0000H 0001H 0257H 0007H 0010H
00:086E 01-F0'00-00'             1859   	bl	_NOP1000
                                 1860   
                                 1861   ;;						main_clrWDT();
                                 1862   CLINEA 0000H 0001H 0258H 0007H 0014H
00:0872 01-F0'00-00'             1863   	bl	_main_clrWDT
                                 1864   CBLOCKEND 141 40 601
                                 1865   
                                 1866   ;;					while(_flgUartFin != 1){
                                 1867   CLINEA 0000H 0000H 0256H 0001H 000BH
00:0876                          1868   _$L475 :
00:0876 10-90 00-00'             1869   	l	r0,	NEAR __flgUartFin
00:087A 01 70                    1870   	cmp	r0,	#01h
00:087C F8 C8                    1871   	bne	_$L167
                                 1872   
                                 1873   ;;					_flgUartFin = 0;
                                 1874   CLINEA 0000H 0001H 025CH 0006H 0015H
00:087E 00 00                    1875   	mov	r0,	#00h
00:0880 11-90 00-00'             1876   	st	r0,	NEAR __flgUartFin
                                 1877   
                                 1878   ;;					uart_stop();
                                 1879   CLINEA 0000H 0001H 025DH 0006H 0011H
00:0884 01-F0'00-00'             1880   	bl	_uart_stop
                                 1881   
                                 1882   ;;					uart_startSend(InputRec, 14, _funcUartFin);
                                 1883   CLINEA 0000H 0001H 025EH 0006H 0030H
00:0888 00'00                    1884   	mov	r0,	#BYTE1 OFFSET __funcUartFin
00:088A 00'01                    1885   	mov	r1,	#BYTE2 OFFSET __funcUartFin
00:088C 5E-F0                    1886   	push	er0
00:088E 0E E2                    1887   	mov	er2,	#14
00:0890 00'00                    1888   	mov	r0,	#BYTE1 OFFSET _InputRec
00:0892 00'01                    1889   	mov	r1,	#BYTE2 OFFSET _InputRec
00:0894 01-F0'00-00'             1890   	bl	_uart_startSend
00:0898 02 E1                    1891   	add	sp,	#2 
                                 1892   
                                 1893   ;;					while(_flgUartFin != 1){
                                 1894   CLINEA 0000H 0000H 025FH 0001H 000BH
00:089A 04 CE                    1895   	bal	_$L476
                                 1896   
                                 1897   ;;					while(_flgUartFin != 1){
                                 1898   CLINEA 0000H 0000H 025FH 0006H 001DH
00:089C                          1899   _$L171 :
                                 1900   CBLOCK 141 41 607
                                 1901   
                                 1902   ;;						NOP1000();
                                 1903   CLINEA 0000H 0001H 0260H 0007H 0010H
00:089C 01-F0'00-00'             1904   	bl	_NOP1000
                                 1905   
                                 1906   ;;						main_clrWDT();
                                 1907   CLINEA 0000H 0001H 0261H 0007H 0014H
00:08A0 01-F0'00-00'             1908   	bl	_main_clrWDT
                                 1909   CBLOCKEND 141 41 610
                                 1910   
                                 1911   ;;					while(_flgUartFin != 1){
                                 1912   CLINEA 0000H 0000H 025FH 0001H 000BH
00:08A4                          1913   _$L476 :
00:08A4 10-90 00-00'             1914   	l	r0,	NEAR __flgUartFin
00:08A8 01 70                    1915   	cmp	r0,	#01h
00:08AA F8 C8                    1916   	bne	_$L171
                                 1917   
                                 1918   ;;					}
                                 1919   CLINEA 0000H 0000H 0262H 0006H 0006H
00:08AC                          1920   _$L170 :
                                 1921   CBLOCKEND 141 37 611
                                 1922   CBLOCKEND 141 36 612
                                 1923   CBLOCKEND 141 35 613
                                 1924   
                                 1925   ;;		if(RecWorld[0] == 0x4F){			//if RECWORLD == "OUD"
                                 1926   CLINEA 0000H 0001H 0268H 0003H 0033H
00:08AC 10-90 00-00'             1927   	l	r0,	NEAR _RecWorld
00:08B0 4F 70                    1928   	cmp	r0,	#04fh
00:08B2 02 C9                    1929   	beq	_$M112
00:08B4 00-F0'00-00'             1930   	b	_$L196
00:08B8                          1931   _$M112 :
                                 1932   CBLOCK 141 42 616
                                 1933   
                                 1934   ;;			if(RecWorld[1] == 0x55){
                                 1935   CLINEA 0000H 0001H 0269H 0004H 001BH
00:08B8 10-90 00-00'             1936   	l	r0,	NEAR _RecWorld+01h
00:08BC 55 70                    1937   	cmp	r0,	#055h
00:08BE 02 C9                    1938   	beq	_$M113
00:08C0 00-F0'00-00'             1939   	b	_$L196
00:08C4                          1940   _$M113 :
                                 1941   CBLOCK 141 43 617
                                 1942   
                                 1943   ;;				if(RecWorld[2] == 0x44){
                                 1944   CLINEA 0000H 0001H 026AH 0005H 001CH
00:08C4 10-90 00-00'             1945   	l	r0,	NEAR _RecWorld+02h
00:08C8 44 70                    1946   	cmp	r0,	#044h
00:08CA 02 C9                    1947   	beq	_$M114
00:08CC 00-F0'00-00'             1948   	b	_$L196
00:08D0                          1949   _$M114 :
                                 1950   CBLOCK 141 44 618
                                 1951   
                                 1952   ;;					OutputRec[2] = 0x44;
                                 1953   CLINEA 0000H 0001H 026BH 0006H 0019H
00:08D0 44 00                    1954   	mov	r0,	#044h
00:08D2 11-90 00-00'             1955   	st	r0,	NEAR _OutputRec+02h
                                 1956   
                                 1957   ;;					for(count = 4; count < 21; count++)
                                 1958   CLINEA 0000H 0001H 026CH 0006H 0028H
00:08D6 04 E4                    1959   	mov	er4,	#4 
00:08D8                          1960   _$L181 :
                                 1961   CBLOCK 141 45 621
                                 1962   
                                 1963   ;;						RecWorld[count] -= 0x30;
                                 1964   CLINEA 0000H 0001H 026EH 0007H 001EH
00:08D8 48-92 00-00'             1965   	l	r2,	NEAR _RecWorld[er4]
00:08DC D0 12                    1966   	add	r2,	#0d0h
00:08DE 49-92 00-00'             1967   	st	r2,	NEAR _RecWorld[er4]
                                 1968   
                                 1969   ;;						if(RecWorld[count] != (0x01||0x00)){
                                 1970   CLINEA 0000H 0001H 026FH 0007H 002AH
00:08E2 20-80                    1971   	mov	r0,	r2
00:08E4 01 70                    1972   	cmp	r0,	#01h
00:08E6 03 C9                    1973   	beq	_$L193
                                 1974   CBLOCK 141 46 623
                                 1975   
                                 1976   ;;							RecWorld[count] = 0;
                                 1977   CLINEA 0000H 0001H 0270H 0008H 001BH
00:08E8 00 02                    1978   	mov	r2,	#00h
00:08EA 49-92 00-00'             1979   	st	r2,	NEAR _RecWorld[er4]
                                 1980   CBLOCKEND 141 46 625
                                 1981   
                                 1982   ;;						}
                                 1983   CLINEA 0000H 0000H 0271H 0007H 0007H
00:08EE                          1984   _$L193 :
                                 1985   CBLOCKEND 141 45 626
                                 1986   
                                 1987   ;;					for(count = 4; count < 21; count++)
                                 1988   CLINEA 0000H 0000H 026CH 0006H 0028H
00:08EE 81 E4                    1989   	add	er4,	#1 
00:08F0 15 74                    1990   	cmp	r4,	#015h
00:08F2 00 55                    1991   	cmpc	r5,	#00h
00:08F4 F1 C1                    1992   	blt	_$L181
                                 1993   
                                 1994   ;;					PD5DIR = RecWorld[6];
                                 1995   CLINEA 0000H 0001H 0276H 0006H 001AH
00:08F6 10-90 00-00'             1996   	l	r0,	NEAR _RecWorld+06h
00:08FA 01 20                    1997   	and	r0,	#01h
00:08FC 03 C9                    1998   	beq	_$M73
00:08FE D0-A0 69-F2              1999   	sb	0f269h.5
00:0902 02 CE                    2000   	bal	_$M74
00:0904                          2001   _$M73 :
00:0904 D2-A0 69-F2              2002   	rb	0f269h.5
00:0908                          2003   _$M74 :
                                 2004   
                                 2005   ;;					PD4DIR = RecWorld[7];
                                 2006   CLINEA 0000H 0001H 0277H 0006H 001AH
00:0908 10-90 00-00'             2007   	l	r0,	NEAR _RecWorld+07h
00:090C 01 20                    2008   	and	r0,	#01h
00:090E 03 C9                    2009   	beq	_$M75
00:0910 C0-A0 69-F2              2010   	sb	0f269h.4
00:0914 02 CE                    2011   	bal	_$M76
00:0916                          2012   _$M75 :
00:0916 C2-A0 69-F2              2013   	rb	0f269h.4
00:091A                          2014   _$M76 :
                                 2015   
                                 2016   ;;					PD3DIR = RecWorld[8];
                                 2017   CLINEA 0000H 0001H 0278H 0006H 001AH
00:091A 10-90 00-00'             2018   	l	r0,	NEAR _RecWorld+08h
00:091E 01 20                    2019   	and	r0,	#01h
00:0920 03 C9                    2020   	beq	_$M77
00:0922 B0-A0 69-F2              2021   	sb	0f269h.3
00:0926 02 CE                    2022   	bal	_$M78
00:0928                          2023   _$M77 :
00:0928 B2-A0 69-F2              2024   	rb	0f269h.3
00:092C                          2025   _$M78 :
                                 2026   
                                 2027   ;;					PD2DIR = RecWorld[9];
                                 2028   CLINEA 0000H 0001H 0279H 0006H 001AH
00:092C 10-90 00-00'             2029   	l	r0,	NEAR _RecWorld+09h
00:0930 01 20                    2030   	and	r0,	#01h
00:0932 03 C9                    2031   	beq	_$M79
00:0934 A0-A0 69-F2              2032   	sb	0f269h.2
00:0938 02 CE                    2033   	bal	_$M80
00:093A                          2034   _$M79 :
00:093A A2-A0 69-F2              2035   	rb	0f269h.2
00:093E                          2036   _$M80 :
                                 2037   
                                 2038   ;;					PD1DIR = RecWorld[10];
                                 2039   CLINEA 0000H 0001H 027AH 0006H 001BH
00:093E 10-90 00-00'             2040   	l	r0,	NEAR _RecWorld+0ah
00:0942 01 20                    2041   	and	r0,	#01h
00:0944 03 C9                    2042   	beq	_$M81
00:0946 90-A0 69-F2              2043   	sb	0f269h.1
00:094A 02 CE                    2044   	bal	_$M82
00:094C                          2045   _$M81 :
00:094C 92-A0 69-F2              2046   	rb	0f269h.1
00:0950                          2047   _$M82 :
                                 2048   
                                 2049   ;;					PD0DIR = RecWorld[11];
                                 2050   CLINEA 0000H 0001H 027BH 0006H 001BH
00:0950 10-90 00-00'             2051   	l	r0,	NEAR _RecWorld+0bh
00:0954 01 20                    2052   	and	r0,	#01h
00:0956 03 C9                    2053   	beq	_$M83
00:0958 80-A0 69-F2              2054   	sb	0f269h.0
00:095C 02 CE                    2055   	bal	_$M84
00:095E                          2056   _$M83 :
00:095E 82-A0 69-F2              2057   	rb	0f269h.0
00:0962                          2058   _$M84 :
                                 2059   
                                 2060   ;;					PD5D = RecWorld[15];
                                 2061   CLINEA 0000H 0001H 0280H 0006H 0019H
00:0962 10-90 00-00'             2062   	l	r0,	NEAR _RecWorld+0fh
00:0966 01 20                    2063   	and	r0,	#01h
00:0968 03 C9                    2064   	beq	_$M85
00:096A D0-A0 68-F2              2065   	sb	0f268h.5
00:096E 02 CE                    2066   	bal	_$M86
00:0970                          2067   _$M85 :
00:0970 D2-A0 68-F2              2068   	rb	0f268h.5
00:0974                          2069   _$M86 :
                                 2070   
                                 2071   ;;					PD4D = RecWorld[16];
                                 2072   CLINEA 0000H 0001H 0281H 0006H 0019H
00:0974 10-90 00-00'             2073   	l	r0,	NEAR _RecWorld+010h
00:0978 01 20                    2074   	and	r0,	#01h
00:097A 03 C9                    2075   	beq	_$M87
00:097C C0-A0 68-F2              2076   	sb	0f268h.4
00:0980 02 CE                    2077   	bal	_$M88
00:0982                          2078   _$M87 :
00:0982 C2-A0 68-F2              2079   	rb	0f268h.4
00:0986                          2080   _$M88 :
                                 2081   
                                 2082   ;;					PD3D = RecWorld[17];
                                 2083   CLINEA 0000H 0001H 0282H 0006H 0019H
00:0986 10-90 00-00'             2084   	l	r0,	NEAR _RecWorld+011h
00:098A 01 20                    2085   	and	r0,	#01h
00:098C 03 C9                    2086   	beq	_$M89
00:098E B0-A0 68-F2              2087   	sb	0f268h.3
00:0992 02 CE                    2088   	bal	_$M90
00:0994                          2089   _$M89 :
00:0994 B2-A0 68-F2              2090   	rb	0f268h.3
00:0998                          2091   _$M90 :
                                 2092   
                                 2093   ;;					PD2D = RecWorld[18];
                                 2094   CLINEA 0000H 0001H 0283H 0006H 0019H
00:0998 10-90 00-00'             2095   	l	r0,	NEAR _RecWorld+012h
00:099C 01 20                    2096   	and	r0,	#01h
00:099E 03 C9                    2097   	beq	_$M91
00:09A0 A0-A0 68-F2              2098   	sb	0f268h.2
00:09A4 02 CE                    2099   	bal	_$M92
00:09A6                          2100   _$M91 :
00:09A6 A2-A0 68-F2              2101   	rb	0f268h.2
00:09AA                          2102   _$M92 :
                                 2103   
                                 2104   ;;					PD1D = RecWorld[19];
                                 2105   CLINEA 0000H 0001H 0284H 0006H 0019H
00:09AA 10-90 00-00'             2106   	l	r0,	NEAR _RecWorld+013h
00:09AE 01 20                    2107   	and	r0,	#01h
00:09B0 03 C9                    2108   	beq	_$M93
00:09B2 90-A0 68-F2              2109   	sb	0f268h.1
00:09B6 02 CE                    2110   	bal	_$M94
00:09B8                          2111   _$M93 :
00:09B8 92-A0 68-F2              2112   	rb	0f268h.1
00:09BC                          2113   _$M94 :
                                 2114   
                                 2115   ;;					PD0D = RecWorld[20];
                                 2116   CLINEA 0000H 0001H 0285H 0006H 0019H
00:09BC 10-90 00-00'             2117   	l	r0,	NEAR _RecWorld+014h
00:09C0 01 20                    2118   	and	r0,	#01h
00:09C2 03 C9                    2119   	beq	_$M95
00:09C4 80-A0 68-F2              2120   	sb	0f268h.0
00:09C8 02 CE                    2121   	bal	_$M96
00:09CA                          2122   _$M95 :
00:09CA 82-A0 68-F2              2123   	rb	0f268h.0
00:09CE                          2124   _$M96 :
                                 2125   
                                 2126   ;;					OutputRec[13] = 0x78;
                                 2127   CLINEA 0000H 0001H 0288H 0006H 001AH
00:09CE 78 00                    2128   	mov	r0,	#078h
00:09D0 11-90 00-00'             2129   	st	r0,	NEAR _OutputRec+0dh
                                 2130   
                                 2131   ;;					OutputRec[14] = 0x78;
                                 2132   CLINEA 0000H 0001H 0289H 0006H 001AH
00:09D4 11-90 00-00'             2133   	st	r0,	NEAR _OutputRec+0eh
                                 2134   
                                 2135   ;;					OutputRec[15] = PD5D + 0x30;
                                 2136   CLINEA 0000H 0001H 028AH 0006H 0021H
00:09D8 10-90 68-F2              2137   	l	r0,	0f268h
00:09DC 5C-90                    2138   	srl	r0,	#05h
00:09DE 01 20                    2139   	and	r0,	#01h
00:09E0 30 10                    2140   	add	r0,	#030h
00:09E2 11-90 00-00'             2141   	st	r0,	NEAR _OutputRec+0fh
                                 2142   
                                 2143   ;;					OutputRec[16] = PD4D + 0x30;
                                 2144   CLINEA 0000H 0001H 028BH 0006H 0021H
00:09E6 10-90 68-F2              2145   	l	r0,	0f268h
00:09EA 4C-90                    2146   	srl	r0,	#04h
00:09EC 01 20                    2147   	and	r0,	#01h
00:09EE 30 10                    2148   	add	r0,	#030h
00:09F0 11-90 00-00'             2149   	st	r0,	NEAR _OutputRec+010h
                                 2150   
                                 2151   ;;					OutputRec[17] = PD3D + 0x30;
                                 2152   CLINEA 0000H 0001H 028CH 0006H 0021H
00:09F4 10-90 68-F2              2153   	l	r0,	0f268h
00:09F8 3C-90                    2154   	srl	r0,	#03h
00:09FA 01 20                    2155   	and	r0,	#01h
00:09FC 30 10                    2156   	add	r0,	#030h
00:09FE 11-90 00-00'             2157   	st	r0,	NEAR _OutputRec+011h
                                 2158   
                                 2159   ;;					OutputRec[18] = PD2D + 0x30;
                                 2160   CLINEA 0000H 0001H 028DH 0006H 0021H
00:0A02 10-90 68-F2              2161   	l	r0,	0f268h
00:0A06 2C-90                    2162   	srl	r0,	#02h
00:0A08 01 20                    2163   	and	r0,	#01h
00:0A0A 30 10                    2164   	add	r0,	#030h
00:0A0C 11-90 00-00'             2165   	st	r0,	NEAR _OutputRec+012h
                                 2166   
                                 2167   ;;					OutputRec[19] = PD1D + 0x30;
                                 2168   CLINEA 0000H 0001H 028EH 0006H 0021H
00:0A10 10-90 68-F2              2169   	l	r0,	0f268h
00:0A14 1C-90                    2170   	srl	r0,	#01h
00:0A16 01 20                    2171   	and	r0,	#01h
00:0A18 30 10                    2172   	add	r0,	#030h
00:0A1A 11-90 00-00'             2173   	st	r0,	NEAR _OutputRec+013h
                                 2174   
                                 2175   ;;					OutputRec[20] = PD0D + 0x30;
                                 2176   CLINEA 0000H 0001H 028FH 0006H 0021H
00:0A1E 10-90 68-F2              2177   	l	r0,	0f268h
00:0A22 01 20                    2178   	and	r0,	#01h
00:0A24 30 10                    2179   	add	r0,	#030h
00:0A26 11-90 00-00'             2180   	st	r0,	NEAR _OutputRec+014h
                                 2181   
                                 2182   ;;					_flgUartFin = 0;
                                 2183   CLINEA 0000H 0001H 0291H 0006H 0015H
00:0A2A 00 00                    2184   	mov	r0,	#00h
00:0A2C 11-90 00-00'             2185   	st	r0,	NEAR __flgUartFin
                                 2186   
                                 2187   ;;					uart_stop();
                                 2188   CLINEA 0000H 0001H 0292H 0006H 0011H
00:0A30 01-F0'00-00'             2189   	bl	_uart_stop
                                 2190   
                                 2191   ;;					uart_startSend(OutputRec, 23, _funcUartFin);
                                 2192   CLINEA 0000H 0001H 0293H 0006H 0031H
00:0A34 00'00                    2193   	mov	r0,	#BYTE1 OFFSET __funcUartFin
00:0A36 00'01                    2194   	mov	r1,	#BYTE2 OFFSET __funcUartFin
00:0A38 5E-F0                    2195   	push	er0
00:0A3A 17 E2                    2196   	mov	er2,	#23
00:0A3C 00'00                    2197   	mov	r0,	#BYTE1 OFFSET _OutputRec
00:0A3E 00'01                    2198   	mov	r1,	#BYTE2 OFFSET _OutputRec
00:0A40 01-F0'00-00'             2199   	bl	_uart_startSend
00:0A44 02 E1                    2200   	add	sp,	#2 
                                 2201   
                                 2202   ;;					while(_flgUartFin != 1){
                                 2203   CLINEA 0000H 0000H 0294H 0001H 000BH
00:0A46 04 CE                    2204   	bal	_$L477
                                 2205   
                                 2206   ;;					while(_flgUartFin != 1){
                                 2207   CLINEA 0000H 0000H 0294H 0006H 001DH
00:0A48                          2208   _$L197 :
                                 2209   CBLOCK 141 47 660
                                 2210   
                                 2211   ;;						NOP1000();
                                 2212   CLINEA 0000H 0001H 0295H 0007H 0010H
00:0A48 01-F0'00-00'             2213   	bl	_NOP1000
                                 2214   
                                 2215   ;;						main_clrWDT();
                                 2216   CLINEA 0000H 0001H 0296H 0007H 0014H
00:0A4C 01-F0'00-00'             2217   	bl	_main_clrWDT
                                 2218   CBLOCKEND 141 47 663
                                 2219   
                                 2220   ;;					while(_flgUartFin != 1){
                                 2221   CLINEA 0000H 0000H 0294H 0001H 000BH
00:0A50                          2222   _$L477 :
00:0A50 10-90 00-00'             2223   	l	r0,	NEAR __flgUartFin
00:0A54 01 70                    2224   	cmp	r0,	#01h
00:0A56 F8 C8                    2225   	bne	_$L197
                                 2226   
                                 2227   ;;					}
                                 2228   CLINEA 0000H 0000H 0297H 0006H 0006H
00:0A58                          2229   _$L196 :
                                 2230   CBLOCKEND 141 44 664
                                 2231   CBLOCKEND 141 43 665
                                 2232   CBLOCKEND 141 42 666
                                 2233   
                                 2234   ;;		if(RecWorld[0] == 0x49){			//if RECWORLD == "I2CTX"
                                 2235   CLINEA 0000H 0001H 029DH 0003H 0035H
00:0A58 10-90 00-00'             2236   	l	r0,	NEAR _RecWorld
00:0A5C 49 70                    2237   	cmp	r0,	#049h
00:0A5E 02 C9                    2238   	beq	_$M115
00:0A60 00-F0'00-00'             2239   	b	_$L384
00:0A64                          2240   _$M115 :
                                 2241   CBLOCK 141 48 669
                                 2242   
                                 2243   ;;			if(RecWorld[1] == 0x32){
                                 2244   CLINEA 0000H 0001H 029EH 0004H 001BH
00:0A64 10-90 00-00'             2245   	l	r0,	NEAR _RecWorld+01h
00:0A68 32 70                    2246   	cmp	r0,	#032h
00:0A6A 02 C9                    2247   	beq	_$M116
00:0A6C 00-F0'00-00'             2248   	b	_$L384
00:0A70                          2249   _$M116 :
                                 2250   CBLOCK 141 49 670
                                 2251   
                                 2252   ;;				if(RecWorld[2] == 0x43){
                                 2253   CLINEA 0000H 0001H 029FH 0005H 001CH
00:0A70 10-90 00-00'             2254   	l	r0,	NEAR _RecWorld+02h
00:0A74 43 70                    2255   	cmp	r0,	#043h
00:0A76 02 C9                    2256   	beq	_$M117
00:0A78 00-F0'00-00'             2257   	b	_$L384
00:0A7C                          2258   _$M117 :
                                 2259   CBLOCK 141 50 671
                                 2260   
                                 2261   ;;					if(RecWorld[3] == 0x54){
                                 2262   CLINEA 0000H 0001H 02A0H 0006H 001DH
00:0A7C 10-90 00-00'             2263   	l	r0,	NEAR _RecWorld+03h
00:0A80 54 70                    2264   	cmp	r0,	#054h
00:0A82 02 C9                    2265   	beq	_$M118
00:0A84 00-F0'00-00'             2266   	b	_$L384
00:0A88                          2267   _$M118 :
                                 2268   CBLOCK 141 51 672
                                 2269   
                                 2270   ;;						if(RecWorld[4] == 0x58){
                                 2271   CLINEA 0000H 0001H 02A1H 0007H 001EH
00:0A88 10-90 00-00'             2272   	l	r0,	NEAR _RecWorld+04h
00:0A8C 58 70                    2273   	cmp	r0,	#058h
00:0A8E 02 C9                    2274   	beq	_$M119
00:0A90 00-F0'00-00'             2275   	b	_$L384
00:0A94                          2276   _$M119 :
                                 2277   CBLOCK 141 52 673
                                 2278   
                                 2279   ;;							_flgUartFin = 0;
                                 2280   CLINEA 0000H 0001H 02A4H 0008H 0017H
00:0A94 00 00                    2281   	mov	r0,	#00h
00:0A96 11-90 00-00'             2282   	st	r0,	NEAR __flgUartFin
                                 2283   
                                 2284   ;;							uart_stop();
                                 2285   CLINEA 0000H 0001H 02A5H 0008H 0013H
00:0A9A 01-F0'00-00'             2286   	bl	_uart_stop
                                 2287   
                                 2288   ;;							uart_startReceive(I2C_BUFF, 46, _funcUartFin);
                                 2289   CLINEA 0000H 0001H 02A6H 0008H 0035H
00:0A9E 00'00                    2290   	mov	r0,	#BYTE1 OFFSET __funcUartFin
00:0AA0 00'01                    2291   	mov	r1,	#BYTE2 OFFSET __funcUartFin
00:0AA2 5E-F0                    2292   	push	er0
00:0AA4 2E E2                    2293   	mov	er2,	#46
00:0AA6 00'00                    2294   	mov	r0,	#BYTE1 OFFSET _I2C_BUFF
00:0AA8 00'01                    2295   	mov	r1,	#BYTE2 OFFSET _I2C_BUFF
00:0AAA 01-F0'00-00'             2296   	bl	_uart_startReceive
00:0AAE 02 E1                    2297   	add	sp,	#2 
                                 2298   
                                 2299   ;;							while(_flgUartFin != 1){
                                 2300   CLINEA 0000H 0000H 02A7H 0001H 000BH
00:0AB0 04 CE                    2301   	bal	_$L478
                                 2302   
                                 2303   ;;							while(_flgUartFin != 1){
                                 2304   CLINEA 0000H 0000H 02A7H 0008H 001FH
00:0AB2                          2305   _$L211 :
                                 2306   CBLOCK 141 53 679
                                 2307   
                                 2308   ;;								NOP1000();
                                 2309   CLINEA 0000H 0001H 02A8H 0009H 0012H
00:0AB2 01-F0'00-00'             2310   	bl	_NOP1000
                                 2311   
                                 2312   ;;								main_clrWDT();
                                 2313   CLINEA 0000H 0001H 02A9H 0009H 0016H
00:0AB6 01-F0'00-00'             2314   	bl	_main_clrWDT
                                 2315   CBLOCKEND 141 53 682
                                 2316   
                                 2317   ;;							while(_flgUartFin != 1){
                                 2318   CLINEA 0000H 0000H 02A7H 0001H 000BH
00:0ABA                          2319   _$L478 :
00:0ABA 10-90 00-00'             2320   	l	r0,	NEAR __flgUartFin
00:0ABE 01 70                    2321   	cmp	r0,	#01h
00:0AC0 F8 C8                    2322   	bne	_$L211
                                 2323   
                                 2324   ;;							chari = 2;
                                 2325   CLINEA 0000H 0001H 02ADH 0008H 0011H
00:0AC2 02 00                    2326   	mov	r0,	#02h
00:0AC4 11-90 00-00'             2327   	st	r0,	NEAR _chari
                                 2328   
                                 2329   ;;							charj = 0;
                                 2330   CLINEA 0000H 0001H 02AEH 0008H 0011H
00:0AC8 00 00                    2331   	mov	r0,	#00h
00:0ACA 11-90 00-00'             2332   	st	r0,	NEAR _charj
                                 2333   
                                 2334   ;;							while(I2C_BUFF[chari]!=0x20){
                                 2335   CLINEA 0000H 0001H 02B0H 0008H 0024H
00:0ACE 10-90 00-00'             2336   	l	r0,	NEAR _I2C_BUFF+02h
00:0AD2 20 70                    2337   	cmp	r0,	#020h
00:0AD4 0D C9                    2338   	beq	_$L214
00:0AD6                          2339   _$L215 :
                                 2340   CBLOCK 141 54 688
                                 2341   
                                 2342   ;;								chari++;
                                 2343   CLINEA 0000H 0000H 02B1H 0009H 0010H
00:0AD6 0C-F0 00-00'             2344   	lea	OFFSET _chari
00:0ADA 2F-FE                    2345   	inc	[ea]
                                 2346   
                                 2347   ;;								charj++;
                                 2348   CLINEA 0000H 0000H 02B2H 0009H 0010H
00:0ADC 0C-F0 00-00'             2349   	lea	OFFSET _charj
00:0AE0 2F-FE                    2350   	inc	[ea]
                                 2351   CBLOCKEND 141 54 691
                                 2352   
                                 2353   ;;							while(I2C_BUFF[chari]!=0x20){
                                 2354   CLINEA 0000H 0000H 02B0H 001BH 0022H
00:0AE2 10-90 00-00'             2355   	l	r0,	NEAR _chari
00:0AE6 00 01                    2356   	mov	r1,	#00h
00:0AE8 08-90 00-00'             2357   	l	r0,	NEAR _I2C_BUFF[er0]
00:0AEC 20 70                    2358   	cmp	r0,	#020h
00:0AEE F3 C8                    2359   	bne	_$L215
                                 2360   
                                 2361   ;;							}
                                 2362   CLINEA 0000H 0000H 02B3H 0008H 0008H
00:0AF0                          2363   _$L214 :
                                 2364   
                                 2365   ;;							for(chark = charj; chark>0; chark--){
                                 2366   CLINEA 0000H 0001H 02B4H 000CH 0019H
00:0AF0 10-90 00-00'             2367   	l	r0,	NEAR _charj
                                 2368   
                                 2369   ;;							for(chark = charj; chark>0; chark--){
                                 2370   CLINEA 0000H 0000H 02B4H 0001H 000BH
00:0AF4 40 CE                    2371   	bal	_$L479
                                 2372   
                                 2373   ;;							for(chark = charj; chark>0; chark--){
                                 2374   CLINEA 0000H 0000H 02B4H 0024H 002AH
00:0AF6                          2375   _$L219 :
                                 2376   CBLOCK 141 55 692
                                 2377   
                                 2378   ;;								if(chark == 3){I2CAdd_temp = (I2C_BUFF[chari-chark]-0x30)*100;}
                                 2379   CLINEA 0000H 0001H 02B5H 0009H 0047H
00:0AF6 03 70                    2380   	cmp	r0,	#03h
00:0AF8 14 C8                    2381   	bne	_$L223
                                 2382   CBLOCK 141 56 693
00:0AFA 10-90 00-00'             2383   	l	r0,	NEAR _chari
00:0AFE 00 01                    2384   	mov	r1,	#00h
00:0B00 10-92 00-00'             2385   	l	r2,	NEAR _chark
00:0B04 00 03                    2386   	mov	r3,	#00h
00:0B06 28-80                    2387   	sub	r0,	r2
00:0B08 39-81                    2388   	subc	r1,	r3
00:0B0A 08-90 00-00'             2389   	l	r0,	NEAR _I2C_BUFF[er0]
00:0B0E D0 10                    2390   	add	r0,	#0d0h
00:0B10 00-81                    2391   	mov	r1,	r0
00:0B12 1A-91                    2392   	sll	r1,	#01h
00:0B14 01-81                    2393   	add	r1,	r0
00:0B16 3A-91                    2394   	sll	r1,	#03h
00:0B18 01-81                    2395   	add	r1,	r0
00:0B1A 2A-91                    2396   	sll	r1,	#02h
00:0B1C 11-91 00-00'             2397   	st	r1,	NEAR _I2CAdd_temp
                                 2398   
                                 2399   ;;								else if(chark == 2){I2CAdd_temp = (I2C_BUFF[chari-chark]-0x30)*10;}
                                 2400   CLINEA 0000H 0001H 02B6H 0009H 004BH
00:0B20 21 CE                    2401   	bal	_$L228
00:0B22                          2402   _$L223 :
00:0B22 02 70                    2403   	cmp	r0,	#02h
00:0B24 12 C8                    2404   	bne	_$L226
                                 2405   CBLOCK 141 57 694
00:0B26 10-90 00-00'             2406   	l	r0,	NEAR _chari
00:0B2A 00 01                    2407   	mov	r1,	#00h
00:0B2C 10-92 00-00'             2408   	l	r2,	NEAR _chark
00:0B30 00 03                    2409   	mov	r3,	#00h
00:0B32 28-80                    2410   	sub	r0,	r2
00:0B34 39-81                    2411   	subc	r1,	r3
00:0B36 08-90 00-00'             2412   	l	r0,	NEAR _I2C_BUFF[er0]
00:0B3A D0 10                    2413   	add	r0,	#0d0h
00:0B3C 00-81                    2414   	mov	r1,	r0
00:0B3E 2A-91                    2415   	sll	r1,	#02h
00:0B40 01-81                    2416   	add	r1,	r0
00:0B42 1A-91                    2417   	sll	r1,	#01h
00:0B44 11-91 00-00'             2418   	st	r1,	NEAR _I2CAdd_temp
                                 2419   CBLOCKEND 141 57 694
                                 2420   
                                 2421   ;;								else {I2CAdd_temp = (I2C_BUFF[chari-chark]-0x30);}
                                 2422   CLINEA 0000H 0001H 02B7H 0009H 003AH
00:0B48 0D CE                    2423   	bal	_$L228
00:0B4A                          2424   _$L226 :
                                 2425   CBLOCK 141 58 695
00:0B4A 10-90 00-00'             2426   	l	r0,	NEAR _chari
00:0B4E 00 01                    2427   	mov	r1,	#00h
00:0B50 10-92 00-00'             2428   	l	r2,	NEAR _chark
00:0B54 00 03                    2429   	mov	r3,	#00h
00:0B56 28-80                    2430   	sub	r0,	r2
00:0B58 39-81                    2431   	subc	r1,	r3
00:0B5A 08-90 00-00'             2432   	l	r0,	NEAR _I2C_BUFF[er0]
00:0B5E D0 10                    2433   	add	r0,	#0d0h
00:0B60 11-90 00-00'             2434   	st	r0,	NEAR _I2CAdd_temp
                                 2435   CBLOCKEND 141 58 695
00:0B64                          2436   _$L228 :
                                 2437   
                                 2438   ;;								I2CAdd += I2CAdd_temp;
                                 2439   CLINEA 0000H 0001H 02B8H 0009H 001EH
00:0B64 10-90 00-00'             2440   	l	r0,	NEAR _I2CAdd
00:0B68 10-91 00-00'             2441   	l	r1,	NEAR _I2CAdd_temp
00:0B6C 11-80                    2442   	add	r0,	r1
00:0B6E 11-90 00-00'             2443   	st	r0,	NEAR _I2CAdd
                                 2444   CBLOCKEND 141 55 697
                                 2445   CBLOCKEND 141 56 973
                                 2446   
                                 2447   ;;							for(chark = charj; chark>0; chark--){
                                 2448   CLINEA 0000H 0000H 02B4H 0024H 002AH
00:0B72 20-80                    2449   	mov	r0,	r2
00:0B74 FF 10                    2450   	add	r0,	#0ffh
                                 2451   
                                 2452   ;;							for(chark = charj; chark>0; chark--){
                                 2453   CLINEA 0000H 0000H 02B4H 0001H 000BH
00:0B76                          2454   _$L479 :
00:0B76 11-90 00-00'             2455   	st	r0,	NEAR _chark
                                 2456   
                                 2457   ;;							for(chark = charj; chark>0; chark--){
                                 2458   CLINEA 0000H 0000H 02B4H 001BH 0022H
00:0B7A 00 70                    2459   	cmp	r0,	#00h
00:0B7C 02 C3                    2460   	ble	_$M120
00:0B7E 00-F0'00-00'             2461   	b	_$L219
00:0B82                          2462   _$M120 :
                                 2463   
                                 2464   ;;							chari++;
                                 2465   CLINEA 0000H 0000H 02BAH 0008H 000FH
00:0B82 0C-F0 00-00'             2466   	lea	OFFSET _chari
00:0B86 2F-FE                    2467   	inc	[ea]
                                 2468   
                                 2469   ;;							charj = 0;
                                 2470   CLINEA 0000H 0001H 02BBH 0008H 0011H
00:0B88 00 00                    2471   	mov	r0,	#00h
                                 2472   
                                 2473   ;;							while(I2C_BUFF[chari]!=0x20){
                                 2474   CLINEA 0000H 0000H 02BCH 0001H 000BH
00:0B8A 06 CE                    2475   	bal	_$L480
                                 2476   
                                 2477   ;;							while(I2C_BUFF[chari]!=0x20){
                                 2478   CLINEA 0000H 0000H 02BCH 0008H 0024H
00:0B8C                          2479   _$L231 :
                                 2480   CBLOCK 141 59 700
                                 2481   
                                 2482   ;;								chari++;
                                 2483   CLINEA 0000H 0000H 02BDH 0009H 0010H
00:0B8C 0C-F0 00-00'             2484   	lea	OFFSET _chari
00:0B90 2F-FE                    2485   	inc	[ea]
                                 2486   
                                 2487   ;;								charj++;
                                 2488   CLINEA 0000H 0000H 02BEH 0009H 0010H
00:0B92 10-90 00-00'             2489   	l	r0,	NEAR _charj
00:0B96 01 10                    2490   	add	r0,	#01h
                                 2491   CBLOCKEND 141 59 703
                                 2492   
                                 2493   ;;							while(I2C_BUFF[chari]!=0x20){
                                 2494   CLINEA 0000H 0000H 02BCH 0001H 000BH
00:0B98                          2495   _$L480 :
00:0B98 11-90 00-00'             2496   	st	r0,	NEAR _charj
                                 2497   
                                 2498   ;;							while(I2C_BUFF[chari]!=0x20){
                                 2499   CLINEA 0000H 0000H 02BCH 001BH 0022H
00:0B9C 10-90 00-00'             2500   	l	r0,	NEAR _chari
00:0BA0 00 01                    2501   	mov	r1,	#00h
00:0BA2 08-90 00-00'             2502   	l	r0,	NEAR _I2C_BUFF[er0]
00:0BA6 20 70                    2503   	cmp	r0,	#020h
00:0BA8 F1 C8                    2504   	bne	_$L231
                                 2505   
                                 2506   ;;							for(chark = charj; chark>0; chark--){
                                 2507   CLINEA 0000H 0001H 02C0H 000CH 0019H
00:0BAA 10-90 00-00'             2508   	l	r0,	NEAR _charj
                                 2509   
                                 2510   ;;							for(chark = charj; chark>0; chark--){
                                 2511   CLINEA 0000H 0000H 02C0H 0001H 000BH
00:0BAE 40 CE                    2512   	bal	_$L481
                                 2513   
                                 2514   ;;							for(chark = charj; chark>0; chark--){
                                 2515   CLINEA 0000H 0000H 02C0H 0024H 002AH
00:0BB0                          2516   _$L235 :
                                 2517   CBLOCK 141 60 704
                                 2518   
                                 2519   ;;								if(chark == 3){I2CNumBytes_temp = (I2C_BUFF[chari-chark]-0x30)*100;}
                                 2520   CLINEA 0000H 0001H 02C1H 0009H 004CH
00:0BB0 03 70                    2521   	cmp	r0,	#03h
00:0BB2 14 C8                    2522   	bne	_$L239
                                 2523   CBLOCK 141 61 705
00:0BB4 10-90 00-00'             2524   	l	r0,	NEAR _chari
00:0BB8 00 01                    2525   	mov	r1,	#00h
00:0BBA 10-92 00-00'             2526   	l	r2,	NEAR _chark
00:0BBE 00 03                    2527   	mov	r3,	#00h
00:0BC0 28-80                    2528   	sub	r0,	r2
00:0BC2 39-81                    2529   	subc	r1,	r3
00:0BC4 08-90 00-00'             2530   	l	r0,	NEAR _I2C_BUFF[er0]
00:0BC8 D0 10                    2531   	add	r0,	#0d0h
00:0BCA 00-81                    2532   	mov	r1,	r0
00:0BCC 1A-91                    2533   	sll	r1,	#01h
00:0BCE 01-81                    2534   	add	r1,	r0
00:0BD0 3A-91                    2535   	sll	r1,	#03h
00:0BD2 01-81                    2536   	add	r1,	r0
00:0BD4 2A-91                    2537   	sll	r1,	#02h
00:0BD6 11-91 00-00'             2538   	st	r1,	NEAR _I2CNumBytes_temp
                                 2539   
                                 2540   ;;								else if(chark == 2){I2CNumBytes_temp = (I2C_BUFF[chari-chark]-0x30)*10;}
                                 2541   CLINEA 0000H 0001H 02C2H 0009H 0050H
00:0BDA 21 CE                    2542   	bal	_$L244
00:0BDC                          2543   _$L239 :
00:0BDC 02 70                    2544   	cmp	r0,	#02h
00:0BDE 12 C8                    2545   	bne	_$L242
                                 2546   CBLOCK 141 62 706
00:0BE0 10-90 00-00'             2547   	l	r0,	NEAR _chari
00:0BE4 00 01                    2548   	mov	r1,	#00h
00:0BE6 10-92 00-00'             2549   	l	r2,	NEAR _chark
00:0BEA 00 03                    2550   	mov	r3,	#00h
00:0BEC 28-80                    2551   	sub	r0,	r2
00:0BEE 39-81                    2552   	subc	r1,	r3
00:0BF0 08-90 00-00'             2553   	l	r0,	NEAR _I2C_BUFF[er0]
00:0BF4 D0 10                    2554   	add	r0,	#0d0h
00:0BF6 00-81                    2555   	mov	r1,	r0
00:0BF8 2A-91                    2556   	sll	r1,	#02h
00:0BFA 01-81                    2557   	add	r1,	r0
00:0BFC 1A-91                    2558   	sll	r1,	#01h
00:0BFE 11-91 00-00'             2559   	st	r1,	NEAR _I2CNumBytes_temp
                                 2560   CBLOCKEND 141 62 706
                                 2561   
                                 2562   ;;								else {I2CNumBytes_temp = (I2C_BUFF[chari-chark]-0x30);}
                                 2563   CLINEA 0000H 0001H 02C3H 0009H 003FH
00:0C02 0D CE                    2564   	bal	_$L244
00:0C04                          2565   _$L242 :
                                 2566   CBLOCK 141 63 707
00:0C04 10-90 00-00'             2567   	l	r0,	NEAR _chari
00:0C08 00 01                    2568   	mov	r1,	#00h
00:0C0A 10-92 00-00'             2569   	l	r2,	NEAR _chark
00:0C0E 00 03                    2570   	mov	r3,	#00h
00:0C10 28-80                    2571   	sub	r0,	r2
00:0C12 39-81                    2572   	subc	r1,	r3
00:0C14 08-90 00-00'             2573   	l	r0,	NEAR _I2C_BUFF[er0]
00:0C18 D0 10                    2574   	add	r0,	#0d0h
00:0C1A 11-90 00-00'             2575   	st	r0,	NEAR _I2CNumBytes_temp
                                 2576   CBLOCKEND 141 63 707
00:0C1E                          2577   _$L244 :
                                 2578   
                                 2579   ;;								I2CNumBytes += I2CNumBytes_temp;
                                 2580   CLINEA 0000H 0001H 02C4H 0009H 0028H
00:0C1E 10-90 00-00'             2581   	l	r0,	NEAR _I2CNumBytes
00:0C22 10-91 00-00'             2582   	l	r1,	NEAR _I2CNumBytes_temp
00:0C26 11-80                    2583   	add	r0,	r1
00:0C28 11-90 00-00'             2584   	st	r0,	NEAR _I2CNumBytes
                                 2585   CBLOCKEND 141 60 709
                                 2586   CBLOCKEND 141 61 973
                                 2587   
                                 2588   ;;							for(chark = charj; chark>0; chark--){
                                 2589   CLINEA 0000H 0000H 02C0H 0024H 002AH
00:0C2C 20-80                    2590   	mov	r0,	r2
00:0C2E FF 10                    2591   	add	r0,	#0ffh
                                 2592   
                                 2593   ;;							for(chark = charj; chark>0; chark--){
                                 2594   CLINEA 0000H 0000H 02C0H 0001H 000BH
00:0C30                          2595   _$L481 :
00:0C30 11-90 00-00'             2596   	st	r0,	NEAR _chark
                                 2597   
                                 2598   ;;							for(chark = charj; chark>0; chark--){
                                 2599   CLINEA 0000H 0000H 02C0H 001BH 0022H
00:0C34 00 70                    2600   	cmp	r0,	#00h
00:0C36 02 C3                    2601   	ble	_$M121
00:0C38 00-F0'00-00'             2602   	b	_$L235
00:0C3C                          2603   _$M121 :
                                 2604   
                                 2605   ;;							chari++;
                                 2606   CLINEA 0000H 0000H 02C6H 0008H 000FH
00:0C3C 0C-F0 00-00'             2607   	lea	OFFSET _chari
00:0C40 2F-FE                    2608   	inc	[ea]
                                 2609   
                                 2610   ;;							charj = 0;
                                 2611   CLINEA 0000H 0001H 02C7H 0008H 0011H
00:0C42 00 00                    2612   	mov	r0,	#00h
                                 2613   
                                 2614   ;;							while(I2C_BUFF[chari]!=0x20){
                                 2615   CLINEA 0000H 0000H 02C9H 0001H 000BH
00:0C44 06 CE                    2616   	bal	_$L482
                                 2617   
                                 2618   ;;							while(I2C_BUFF[chari]!=0x20){
                                 2619   CLINEA 0000H 0000H 02C9H 0008H 0024H
00:0C46                          2620   _$L247 :
                                 2621   CBLOCK 141 64 713
                                 2622   
                                 2623   ;;								chari++;
                                 2624   CLINEA 0000H 0000H 02CAH 0009H 0010H
00:0C46 0C-F0 00-00'             2625   	lea	OFFSET _chari
00:0C4A 2F-FE                    2626   	inc	[ea]
                                 2627   
                                 2628   ;;								charj++;
                                 2629   CLINEA 0000H 0000H 02CBH 0009H 0010H
00:0C4C 10-90 00-00'             2630   	l	r0,	NEAR _charj
00:0C50 01 10                    2631   	add	r0,	#01h
                                 2632   CBLOCKEND 141 64 716
                                 2633   
                                 2634   ;;							while(I2C_BUFF[chari]!=0x20){
                                 2635   CLINEA 0000H 0000H 02C9H 0001H 000BH
00:0C52                          2636   _$L482 :
00:0C52 11-90 00-00'             2637   	st	r0,	NEAR _charj
                                 2638   
                                 2639   ;;							while(I2C_BUFF[chari]!=0x20){
                                 2640   CLINEA 0000H 0000H 02C9H 001BH 0022H
00:0C56 10-90 00-00'             2641   	l	r0,	NEAR _chari
00:0C5A 00 01                    2642   	mov	r1,	#00h
00:0C5C 08-90 00-00'             2643   	l	r0,	NEAR _I2C_BUFF[er0]
00:0C60 20 70                    2644   	cmp	r0,	#020h
00:0C62 F1 C8                    2645   	bne	_$L247
                                 2646   
                                 2647   ;;							for(chark = charj; chark>0; chark--){
                                 2648   CLINEA 0000H 0001H 02CDH 000CH 0019H
00:0C64 10-90 00-00'             2649   	l	r0,	NEAR _charj
                                 2650   
                                 2651   ;;							for(chark = charj; chark>0; chark--){
                                 2652   CLINEA 0000H 0000H 02CDH 0001H 000BH
00:0C68 40 CE                    2653   	bal	_$L483
                                 2654   
                                 2655   ;;							for(chark = charj; chark>0; chark--){
                                 2656   CLINEA 0000H 0000H 02CDH 0024H 002AH
00:0C6A                          2657   _$L251 :
                                 2658   CBLOCK 141 65 717
                                 2659   
                                 2660   ;;								if(chark == 3){Data0Str_temp = (I2C_BUFF[chari-chark]-0x30)*100;}
                                 2661   CLINEA 0000H 0001H 02CEH 0009H 0049H
00:0C6A 03 70                    2662   	cmp	r0,	#03h
00:0C6C 14 C8                    2663   	bne	_$L255
                                 2664   CBLOCK 141 66 718
00:0C6E 10-90 00-00'             2665   	l	r0,	NEAR _chari
00:0C72 00 01                    2666   	mov	r1,	#00h
00:0C74 10-92 00-00'             2667   	l	r2,	NEAR _chark
00:0C78 00 03                    2668   	mov	r3,	#00h
00:0C7A 28-80                    2669   	sub	r0,	r2
00:0C7C 39-81                    2670   	subc	r1,	r3
00:0C7E 08-90 00-00'             2671   	l	r0,	NEAR _I2C_BUFF[er0]
00:0C82 D0 10                    2672   	add	r0,	#0d0h
00:0C84 00-81                    2673   	mov	r1,	r0
00:0C86 1A-91                    2674   	sll	r1,	#01h
00:0C88 01-81                    2675   	add	r1,	r0
00:0C8A 3A-91                    2676   	sll	r1,	#03h
00:0C8C 01-81                    2677   	add	r1,	r0
00:0C8E 2A-91                    2678   	sll	r1,	#02h
00:0C90 11-91 00-00'             2679   	st	r1,	NEAR _Data0Str_temp
                                 2680   
                                 2681   ;;								else if(chark == 2){Data0Str_temp = (I2C_BUFF[chari-chark]-0x30)*10;}
                                 2682   CLINEA 0000H 0001H 02CFH 0009H 004DH
00:0C94 21 CE                    2683   	bal	_$L260
00:0C96                          2684   _$L255 :
00:0C96 02 70                    2685   	cmp	r0,	#02h
00:0C98 12 C8                    2686   	bne	_$L258
                                 2687   CBLOCK 141 67 719
00:0C9A 10-90 00-00'             2688   	l	r0,	NEAR _chari
00:0C9E 00 01                    2689   	mov	r1,	#00h
00:0CA0 10-92 00-00'             2690   	l	r2,	NEAR _chark
00:0CA4 00 03                    2691   	mov	r3,	#00h
00:0CA6 28-80                    2692   	sub	r0,	r2
00:0CA8 39-81                    2693   	subc	r1,	r3
00:0CAA 08-90 00-00'             2694   	l	r0,	NEAR _I2C_BUFF[er0]
00:0CAE D0 10                    2695   	add	r0,	#0d0h
00:0CB0 00-81                    2696   	mov	r1,	r0
00:0CB2 2A-91                    2697   	sll	r1,	#02h
00:0CB4 01-81                    2698   	add	r1,	r0
00:0CB6 1A-91                    2699   	sll	r1,	#01h
00:0CB8 11-91 00-00'             2700   	st	r1,	NEAR _Data0Str_temp
                                 2701   CBLOCKEND 141 67 719
                                 2702   
                                 2703   ;;								else {Data0Str_temp = (I2C_BUFF[chari-chark]-0x30);}
                                 2704   CLINEA 0000H 0001H 02D0H 0009H 003CH
00:0CBC 0D CE                    2705   	bal	_$L260
00:0CBE                          2706   _$L258 :
                                 2707   CBLOCK 141 68 720
00:0CBE 10-90 00-00'             2708   	l	r0,	NEAR _chari
00:0CC2 00 01                    2709   	mov	r1,	#00h
00:0CC4 10-92 00-00'             2710   	l	r2,	NEAR _chark
00:0CC8 00 03                    2711   	mov	r3,	#00h
00:0CCA 28-80                    2712   	sub	r0,	r2
00:0CCC 39-81                    2713   	subc	r1,	r3
00:0CCE 08-90 00-00'             2714   	l	r0,	NEAR _I2C_BUFF[er0]
00:0CD2 D0 10                    2715   	add	r0,	#0d0h
00:0CD4 11-90 00-00'             2716   	st	r0,	NEAR _Data0Str_temp
                                 2717   CBLOCKEND 141 68 720
00:0CD8                          2718   _$L260 :
                                 2719   
                                 2720   ;;								Data0Str += Data0Str_temp;
                                 2721   CLINEA 0000H 0001H 02D1H 0009H 0022H
00:0CD8 10-90 00-00'             2722   	l	r0,	NEAR _Data0Str
00:0CDC 10-91 00-00'             2723   	l	r1,	NEAR _Data0Str_temp
00:0CE0 11-80                    2724   	add	r0,	r1
00:0CE2 11-90 00-00'             2725   	st	r0,	NEAR _Data0Str
                                 2726   CBLOCKEND 141 65 722
                                 2727   CBLOCKEND 141 66 973
                                 2728   
                                 2729   ;;							for(chark = charj; chark>0; chark--){
                                 2730   CLINEA 0000H 0000H 02CDH 0024H 002AH
00:0CE6 20-80                    2731   	mov	r0,	r2
00:0CE8 FF 10                    2732   	add	r0,	#0ffh
                                 2733   
                                 2734   ;;							for(chark = charj; chark>0; chark--){
                                 2735   CLINEA 0000H 0000H 02CDH 0001H 000BH
00:0CEA                          2736   _$L483 :
00:0CEA 11-90 00-00'             2737   	st	r0,	NEAR _chark
                                 2738   
                                 2739   ;;							for(chark = charj; chark>0; chark--){
                                 2740   CLINEA 0000H 0000H 02CDH 001BH 0022H
00:0CEE 00 70                    2741   	cmp	r0,	#00h
00:0CF0 02 C3                    2742   	ble	_$M122
00:0CF2 00-F0'00-00'             2743   	b	_$L251
00:0CF6                          2744   _$M122 :
                                 2745   
                                 2746   ;;							chari++;
                                 2747   CLINEA 0000H 0000H 02D3H 0008H 000FH
00:0CF6 0C-F0 00-00'             2748   	lea	OFFSET _chari
00:0CFA 2F-FE                    2749   	inc	[ea]
                                 2750   
                                 2751   ;;							charj = 0;
                                 2752   CLINEA 0000H 0001H 02D4H 0008H 0011H
00:0CFC 00 00                    2753   	mov	r0,	#00h
                                 2754   
                                 2755   ;;							while(I2C_BUFF[chari]!=0x20){
                                 2756   CLINEA 0000H 0000H 02D6H 0001H 000BH
00:0CFE 06 CE                    2757   	bal	_$L484
                                 2758   
                                 2759   ;;							while(I2C_BUFF[chari]!=0x20){
                                 2760   CLINEA 0000H 0000H 02D6H 0008H 0024H
00:0D00                          2761   _$L263 :
                                 2762   CBLOCK 141 69 726
                                 2763   
                                 2764   ;;								chari++;
                                 2765   CLINEA 0000H 0000H 02D7H 0009H 0010H
00:0D00 0C-F0 00-00'             2766   	lea	OFFSET _chari
00:0D04 2F-FE                    2767   	inc	[ea]
                                 2768   
                                 2769   ;;								charj++;
                                 2770   CLINEA 0000H 0000H 02D8H 0009H 0010H
00:0D06 10-90 00-00'             2771   	l	r0,	NEAR _charj
00:0D0A 01 10                    2772   	add	r0,	#01h
                                 2773   CBLOCKEND 141 69 729
                                 2774   
                                 2775   ;;							while(I2C_BUFF[chari]!=0x20){
                                 2776   CLINEA 0000H 0000H 02D6H 0001H 000BH
00:0D0C                          2777   _$L484 :
00:0D0C 11-90 00-00'             2778   	st	r0,	NEAR _charj
                                 2779   
                                 2780   ;;							while(I2C_BUFF[chari]!=0x20){
                                 2781   CLINEA 0000H 0000H 02D6H 001BH 0022H
00:0D10 10-90 00-00'             2782   	l	r0,	NEAR _chari
00:0D14 00 01                    2783   	mov	r1,	#00h
00:0D16 08-90 00-00'             2784   	l	r0,	NEAR _I2C_BUFF[er0]
00:0D1A 20 70                    2785   	cmp	r0,	#020h
00:0D1C F1 C8                    2786   	bne	_$L263
                                 2787   
                                 2788   ;;							for(chark = charj; chark>0; chark--){
                                 2789   CLINEA 0000H 0001H 02DAH 000CH 0019H
00:0D1E 10-90 00-00'             2790   	l	r0,	NEAR _charj
                                 2791   
                                 2792   ;;							for(chark = charj; chark>0; chark--){
                                 2793   CLINEA 0000H 0000H 02DAH 0001H 000BH
00:0D22 40 CE                    2794   	bal	_$L485
                                 2795   
                                 2796   ;;							for(chark = charj; chark>0; chark--){
                                 2797   CLINEA 0000H 0000H 02DAH 0024H 002AH
00:0D24                          2798   _$L267 :
                                 2799   CBLOCK 141 70 730
                                 2800   
                                 2801   ;;								if(chark == 3){Data1Str_temp = (I2C_BUFF[chari-chark]-0x30)*100;}
                                 2802   CLINEA 0000H 0001H 02DBH 0009H 0049H
00:0D24 03 70                    2803   	cmp	r0,	#03h
00:0D26 14 C8                    2804   	bne	_$L271
                                 2805   CBLOCK 141 71 731
00:0D28 10-90 00-00'             2806   	l	r0,	NEAR _chari
00:0D2C 00 01                    2807   	mov	r1,	#00h
00:0D2E 10-92 00-00'             2808   	l	r2,	NEAR _chark
00:0D32 00 03                    2809   	mov	r3,	#00h
00:0D34 28-80                    2810   	sub	r0,	r2
00:0D36 39-81                    2811   	subc	r1,	r3
00:0D38 08-90 00-00'             2812   	l	r0,	NEAR _I2C_BUFF[er0]
00:0D3C D0 10                    2813   	add	r0,	#0d0h
00:0D3E 00-81                    2814   	mov	r1,	r0
00:0D40 1A-91                    2815   	sll	r1,	#01h
00:0D42 01-81                    2816   	add	r1,	r0
00:0D44 3A-91                    2817   	sll	r1,	#03h
00:0D46 01-81                    2818   	add	r1,	r0
00:0D48 2A-91                    2819   	sll	r1,	#02h
00:0D4A 11-91 00-00'             2820   	st	r1,	NEAR _Data1Str_temp
                                 2821   
                                 2822   ;;								else if(chark == 2){Data1Str_temp = (I2C_BUFF[chari-chark]-0x30)*10;}
                                 2823   CLINEA 0000H 0001H 02DCH 0009H 004DH
00:0D4E 21 CE                    2824   	bal	_$L276
00:0D50                          2825   _$L271 :
00:0D50 02 70                    2826   	cmp	r0,	#02h
00:0D52 12 C8                    2827   	bne	_$L274
                                 2828   CBLOCK 141 72 732
00:0D54 10-90 00-00'             2829   	l	r0,	NEAR _chari
00:0D58 00 01                    2830   	mov	r1,	#00h
00:0D5A 10-92 00-00'             2831   	l	r2,	NEAR _chark
00:0D5E 00 03                    2832   	mov	r3,	#00h
00:0D60 28-80                    2833   	sub	r0,	r2
00:0D62 39-81                    2834   	subc	r1,	r3
00:0D64 08-90 00-00'             2835   	l	r0,	NEAR _I2C_BUFF[er0]
00:0D68 D0 10                    2836   	add	r0,	#0d0h
00:0D6A 00-81                    2837   	mov	r1,	r0
00:0D6C 2A-91                    2838   	sll	r1,	#02h
00:0D6E 01-81                    2839   	add	r1,	r0
00:0D70 1A-91                    2840   	sll	r1,	#01h
00:0D72 11-91 00-00'             2841   	st	r1,	NEAR _Data1Str_temp
                                 2842   CBLOCKEND 141 72 732
                                 2843   
                                 2844   ;;								else {Data1Str_temp = (I2C_BUFF[chari-chark]-0x30);}
                                 2845   CLINEA 0000H 0001H 02DDH 0009H 003CH
00:0D76 0D CE                    2846   	bal	_$L276
00:0D78                          2847   _$L274 :
                                 2848   CBLOCK 141 73 733
00:0D78 10-90 00-00'             2849   	l	r0,	NEAR _chari
00:0D7C 00 01                    2850   	mov	r1,	#00h
00:0D7E 10-92 00-00'             2851   	l	r2,	NEAR _chark
00:0D82 00 03                    2852   	mov	r3,	#00h
00:0D84 28-80                    2853   	sub	r0,	r2
00:0D86 39-81                    2854   	subc	r1,	r3
00:0D88 08-90 00-00'             2855   	l	r0,	NEAR _I2C_BUFF[er0]
00:0D8C D0 10                    2856   	add	r0,	#0d0h
00:0D8E 11-90 00-00'             2857   	st	r0,	NEAR _Data1Str_temp
                                 2858   CBLOCKEND 141 73 733
00:0D92                          2859   _$L276 :
                                 2860   
                                 2861   ;;								Data1Str += Data1Str_temp;
                                 2862   CLINEA 0000H 0001H 02DEH 0009H 0022H
00:0D92 10-90 00-00'             2863   	l	r0,	NEAR _Data1Str
00:0D96 10-91 00-00'             2864   	l	r1,	NEAR _Data1Str_temp
00:0D9A 11-80                    2865   	add	r0,	r1
00:0D9C 11-90 00-00'             2866   	st	r0,	NEAR _Data1Str
                                 2867   CBLOCKEND 141 70 735
                                 2868   CBLOCKEND 141 71 973
                                 2869   
                                 2870   ;;							for(chark = charj; chark>0; chark--){
                                 2871   CLINEA 0000H 0000H 02DAH 0024H 002AH
00:0DA0 20-80                    2872   	mov	r0,	r2
00:0DA2 FF 10                    2873   	add	r0,	#0ffh
                                 2874   
                                 2875   ;;							for(chark = charj; chark>0; chark--){
                                 2876   CLINEA 0000H 0000H 02DAH 0001H 000BH
00:0DA4                          2877   _$L485 :
00:0DA4 11-90 00-00'             2878   	st	r0,	NEAR _chark
                                 2879   
                                 2880   ;;							for(chark = charj; chark>0; chark--){
                                 2881   CLINEA 0000H 0000H 02DAH 001BH 0022H
00:0DA8 00 70                    2882   	cmp	r0,	#00h
00:0DAA 02 C3                    2883   	ble	_$M123
00:0DAC 00-F0'00-00'             2884   	b	_$L267
00:0DB0                          2885   _$M123 :
                                 2886   
                                 2887   ;;							chari++;
                                 2888   CLINEA 0000H 0000H 02E0H 0008H 000FH
00:0DB0 0C-F0 00-00'             2889   	lea	OFFSET _chari
00:0DB4 2F-FE                    2890   	inc	[ea]
                                 2891   
                                 2892   ;;							charj = 0;
                                 2893   CLINEA 0000H 0001H 02E1H 0008H 0011H
00:0DB6 00 00                    2894   	mov	r0,	#00h
                                 2895   
                                 2896   ;;							while(I2C_BUFF[chari]!=0x20){
                                 2897   CLINEA 0000H 0000H 02E3H 0001H 000BH
00:0DB8 06 CE                    2898   	bal	_$L486
                                 2899   
                                 2900   ;;							while(I2C_BUFF[chari]!=0x20){
                                 2901   CLINEA 0000H 0000H 02E3H 0008H 0024H
00:0DBA                          2902   _$L279 :
                                 2903   CBLOCK 141 74 739
                                 2904   
                                 2905   ;;								chari++;
                                 2906   CLINEA 0000H 0000H 02E4H 0009H 0010H
00:0DBA 0C-F0 00-00'             2907   	lea	OFFSET _chari
00:0DBE 2F-FE                    2908   	inc	[ea]
                                 2909   
                                 2910   ;;								charj++;
                                 2911   CLINEA 0000H 0000H 02E5H 0009H 0010H
00:0DC0 10-90 00-00'             2912   	l	r0,	NEAR _charj
00:0DC4 01 10                    2913   	add	r0,	#01h
                                 2914   CBLOCKEND 141 74 742
                                 2915   
                                 2916   ;;							while(I2C_BUFF[chari]!=0x20){
                                 2917   CLINEA 0000H 0000H 02E3H 0001H 000BH
00:0DC6                          2918   _$L486 :
00:0DC6 11-90 00-00'             2919   	st	r0,	NEAR _charj
                                 2920   
                                 2921   ;;							while(I2C_BUFF[chari]!=0x20){
                                 2922   CLINEA 0000H 0000H 02E3H 001BH 0022H
00:0DCA 10-90 00-00'             2923   	l	r0,	NEAR _chari
00:0DCE 00 01                    2924   	mov	r1,	#00h
00:0DD0 08-90 00-00'             2925   	l	r0,	NEAR _I2C_BUFF[er0]
00:0DD4 20 70                    2926   	cmp	r0,	#020h
00:0DD6 F1 C8                    2927   	bne	_$L279
                                 2928   
                                 2929   ;;							for(chark = charj; chark>0; chark--){
                                 2930   CLINEA 0000H 0001H 02E7H 000CH 0019H
00:0DD8 10-90 00-00'             2931   	l	r0,	NEAR _charj
                                 2932   
                                 2933   ;;							for(chark = charj; chark>0; chark--){
                                 2934   CLINEA 0000H 0000H 02E7H 0001H 000BH
00:0DDC 40 CE                    2935   	bal	_$L487
                                 2936   
                                 2937   ;;							for(chark = charj; chark>0; chark--){
                                 2938   CLINEA 0000H 0000H 02E7H 0024H 002AH
00:0DDE                          2939   _$L283 :
                                 2940   CBLOCK 141 75 743
                                 2941   
                                 2942   ;;								if(chark == 3){Data2Str_temp = (I2C_BUFF[chari-chark]-0x30)*100;}
                                 2943   CLINEA 0000H 0001H 02E8H 0009H 0049H
00:0DDE 03 70                    2944   	cmp	r0,	#03h
00:0DE0 14 C8                    2945   	bne	_$L287
                                 2946   CBLOCK 141 76 744
00:0DE2 10-90 00-00'             2947   	l	r0,	NEAR _chari
00:0DE6 00 01                    2948   	mov	r1,	#00h
00:0DE8 10-92 00-00'             2949   	l	r2,	NEAR _chark
00:0DEC 00 03                    2950   	mov	r3,	#00h
00:0DEE 28-80                    2951   	sub	r0,	r2
00:0DF0 39-81                    2952   	subc	r1,	r3
00:0DF2 08-90 00-00'             2953   	l	r0,	NEAR _I2C_BUFF[er0]
00:0DF6 D0 10                    2954   	add	r0,	#0d0h
00:0DF8 00-81                    2955   	mov	r1,	r0
00:0DFA 1A-91                    2956   	sll	r1,	#01h
00:0DFC 01-81                    2957   	add	r1,	r0
00:0DFE 3A-91                    2958   	sll	r1,	#03h
00:0E00 01-81                    2959   	add	r1,	r0
00:0E02 2A-91                    2960   	sll	r1,	#02h
00:0E04 11-91 00-00'             2961   	st	r1,	NEAR _Data2Str_temp
                                 2962   
                                 2963   ;;								else if(chark == 2){Data2Str_temp = (I2C_BUFF[chari-chark]-0x30)*10;}
                                 2964   CLINEA 0000H 0001H 02E9H 0009H 004DH
00:0E08 21 CE                    2965   	bal	_$L292
00:0E0A                          2966   _$L287 :
00:0E0A 02 70                    2967   	cmp	r0,	#02h
00:0E0C 12 C8                    2968   	bne	_$L290
                                 2969   CBLOCK 141 77 745
00:0E0E 10-90 00-00'             2970   	l	r0,	NEAR _chari
00:0E12 00 01                    2971   	mov	r1,	#00h
00:0E14 10-92 00-00'             2972   	l	r2,	NEAR _chark
00:0E18 00 03                    2973   	mov	r3,	#00h
00:0E1A 28-80                    2974   	sub	r0,	r2
00:0E1C 39-81                    2975   	subc	r1,	r3
00:0E1E 08-90 00-00'             2976   	l	r0,	NEAR _I2C_BUFF[er0]
00:0E22 D0 10                    2977   	add	r0,	#0d0h
00:0E24 00-81                    2978   	mov	r1,	r0
00:0E26 2A-91                    2979   	sll	r1,	#02h
00:0E28 01-81                    2980   	add	r1,	r0
00:0E2A 1A-91                    2981   	sll	r1,	#01h
00:0E2C 11-91 00-00'             2982   	st	r1,	NEAR _Data2Str_temp
                                 2983   CBLOCKEND 141 77 745
                                 2984   
                                 2985   ;;								else {Data2Str_temp = (I2C_BUFF[chari-chark]-0x30);}
                                 2986   CLINEA 0000H 0001H 02EAH 0009H 003CH
00:0E30 0D CE                    2987   	bal	_$L292
00:0E32                          2988   _$L290 :
                                 2989   CBLOCK 141 78 746
00:0E32 10-90 00-00'             2990   	l	r0,	NEAR _chari
00:0E36 00 01                    2991   	mov	r1,	#00h
00:0E38 10-92 00-00'             2992   	l	r2,	NEAR _chark
00:0E3C 00 03                    2993   	mov	r3,	#00h
00:0E3E 28-80                    2994   	sub	r0,	r2
00:0E40 39-81                    2995   	subc	r1,	r3
00:0E42 08-90 00-00'             2996   	l	r0,	NEAR _I2C_BUFF[er0]
00:0E46 D0 10                    2997   	add	r0,	#0d0h
00:0E48 11-90 00-00'             2998   	st	r0,	NEAR _Data2Str_temp
                                 2999   CBLOCKEND 141 78 746
00:0E4C                          3000   _$L292 :
                                 3001   
                                 3002   ;;								Data2Str += Data2Str_temp;
                                 3003   CLINEA 0000H 0001H 02EBH 0009H 0022H
00:0E4C 10-90 00-00'             3004   	l	r0,	NEAR _Data2Str
00:0E50 10-91 00-00'             3005   	l	r1,	NEAR _Data2Str_temp
00:0E54 11-80                    3006   	add	r0,	r1
00:0E56 11-90 00-00'             3007   	st	r0,	NEAR _Data2Str
                                 3008   CBLOCKEND 141 75 748
                                 3009   CBLOCKEND 141 76 973
                                 3010   
                                 3011   ;;							for(chark = charj; chark>0; chark--){
                                 3012   CLINEA 0000H 0000H 02E7H 0024H 002AH
00:0E5A 20-80                    3013   	mov	r0,	r2
00:0E5C FF 10                    3014   	add	r0,	#0ffh
                                 3015   
                                 3016   ;;							for(chark = charj; chark>0; chark--){
                                 3017   CLINEA 0000H 0000H 02E7H 0001H 000BH
00:0E5E                          3018   _$L487 :
00:0E5E 11-90 00-00'             3019   	st	r0,	NEAR _chark
                                 3020   
                                 3021   ;;							for(chark = charj; chark>0; chark--){
                                 3022   CLINEA 0000H 0000H 02E7H 001BH 0022H
00:0E62 00 70                    3023   	cmp	r0,	#00h
00:0E64 02 C3                    3024   	ble	_$M124
00:0E66 00-F0'00-00'             3025   	b	_$L283
00:0E6A                          3026   _$M124 :
                                 3027   
                                 3028   ;;							chari++;
                                 3029   CLINEA 0000H 0000H 02EDH 0008H 000FH
00:0E6A 0C-F0 00-00'             3030   	lea	OFFSET _chari
00:0E6E 2F-FE                    3031   	inc	[ea]
                                 3032   
                                 3033   ;;							charj = 0;
                                 3034   CLINEA 0000H 0001H 02EEH 0008H 0011H
00:0E70 00 00                    3035   	mov	r0,	#00h
                                 3036   
                                 3037   ;;							while(I2C_BUFF[chari]!=0x20){
                                 3038   CLINEA 0000H 0000H 02F0H 0001H 000BH
00:0E72 06 CE                    3039   	bal	_$L488
                                 3040   
                                 3041   ;;							while(I2C_BUFF[chari]!=0x20){
                                 3042   CLINEA 0000H 0000H 02F0H 0008H 0024H
00:0E74                          3043   _$L295 :
                                 3044   CBLOCK 141 79 752
                                 3045   
                                 3046   ;;								chari++;
                                 3047   CLINEA 0000H 0000H 02F1H 0009H 0010H
00:0E74 0C-F0 00-00'             3048   	lea	OFFSET _chari
00:0E78 2F-FE                    3049   	inc	[ea]
                                 3050   
                                 3051   ;;								charj++;
                                 3052   CLINEA 0000H 0000H 02F2H 0009H 0010H
00:0E7A 10-90 00-00'             3053   	l	r0,	NEAR _charj
00:0E7E 01 10                    3054   	add	r0,	#01h
                                 3055   CBLOCKEND 141 79 755
                                 3056   
                                 3057   ;;							while(I2C_BUFF[chari]!=0x20){
                                 3058   CLINEA 0000H 0000H 02F0H 0001H 000BH
00:0E80                          3059   _$L488 :
00:0E80 11-90 00-00'             3060   	st	r0,	NEAR _charj
                                 3061   
                                 3062   ;;							while(I2C_BUFF[chari]!=0x20){
                                 3063   CLINEA 0000H 0000H 02F0H 001BH 0022H
00:0E84 10-90 00-00'             3064   	l	r0,	NEAR _chari
00:0E88 00 01                    3065   	mov	r1,	#00h
00:0E8A 08-90 00-00'             3066   	l	r0,	NEAR _I2C_BUFF[er0]
00:0E8E 20 70                    3067   	cmp	r0,	#020h
00:0E90 F1 C8                    3068   	bne	_$L295
                                 3069   
                                 3070   ;;							for(chark = charj; chark>0; chark--){
                                 3071   CLINEA 0000H 0001H 02F4H 000CH 0019H
00:0E92 10-90 00-00'             3072   	l	r0,	NEAR _charj
                                 3073   
                                 3074   ;;							for(chark = charj; chark>0; chark--){
                                 3075   CLINEA 0000H 0000H 02F4H 0001H 000BH
00:0E96 40 CE                    3076   	bal	_$L489
                                 3077   
                                 3078   ;;							for(chark = charj; chark>0; chark--){
                                 3079   CLINEA 0000H 0000H 02F4H 0024H 002AH
00:0E98                          3080   _$L299 :
                                 3081   CBLOCK 141 80 756
                                 3082   
                                 3083   ;;								if(chark == 3){Data3Str_temp = (I2C_BUFF[chari-chark]-0x30)*100;}
                                 3084   CLINEA 0000H 0001H 02F5H 0009H 0049H
00:0E98 03 70                    3085   	cmp	r0,	#03h
00:0E9A 14 C8                    3086   	bne	_$L303
                                 3087   CBLOCK 141 81 757
00:0E9C 10-90 00-00'             3088   	l	r0,	NEAR _chari
00:0EA0 00 01                    3089   	mov	r1,	#00h
00:0EA2 10-92 00-00'             3090   	l	r2,	NEAR _chark
00:0EA6 00 03                    3091   	mov	r3,	#00h
00:0EA8 28-80                    3092   	sub	r0,	r2
00:0EAA 39-81                    3093   	subc	r1,	r3
00:0EAC 08-90 00-00'             3094   	l	r0,	NEAR _I2C_BUFF[er0]
00:0EB0 D0 10                    3095   	add	r0,	#0d0h
00:0EB2 00-81                    3096   	mov	r1,	r0
00:0EB4 1A-91                    3097   	sll	r1,	#01h
00:0EB6 01-81                    3098   	add	r1,	r0
00:0EB8 3A-91                    3099   	sll	r1,	#03h
00:0EBA 01-81                    3100   	add	r1,	r0
00:0EBC 2A-91                    3101   	sll	r1,	#02h
00:0EBE 11-91 00-00'             3102   	st	r1,	NEAR _Data3Str_temp
                                 3103   
                                 3104   ;;								else if(chark == 2){Data3Str_temp = (I2C_BUFF[chari-chark]-0x30)*10;}
                                 3105   CLINEA 0000H 0001H 02F6H 0009H 004DH
00:0EC2 21 CE                    3106   	bal	_$L308
00:0EC4                          3107   _$L303 :
00:0EC4 02 70                    3108   	cmp	r0,	#02h
00:0EC6 12 C8                    3109   	bne	_$L306
                                 3110   CBLOCK 141 82 758
00:0EC8 10-90 00-00'             3111   	l	r0,	NEAR _chari
00:0ECC 00 01                    3112   	mov	r1,	#00h
00:0ECE 10-92 00-00'             3113   	l	r2,	NEAR _chark
00:0ED2 00 03                    3114   	mov	r3,	#00h
00:0ED4 28-80                    3115   	sub	r0,	r2
00:0ED6 39-81                    3116   	subc	r1,	r3
00:0ED8 08-90 00-00'             3117   	l	r0,	NEAR _I2C_BUFF[er0]
00:0EDC D0 10                    3118   	add	r0,	#0d0h
00:0EDE 00-81                    3119   	mov	r1,	r0
00:0EE0 2A-91                    3120   	sll	r1,	#02h
00:0EE2 01-81                    3121   	add	r1,	r0
00:0EE4 1A-91                    3122   	sll	r1,	#01h
00:0EE6 11-91 00-00'             3123   	st	r1,	NEAR _Data3Str_temp
                                 3124   CBLOCKEND 141 82 758
                                 3125   
                                 3126   ;;								else {Data3Str_temp = (I2C_BUFF[chari-chark]-0x30);}
                                 3127   CLINEA 0000H 0001H 02F7H 0009H 003CH
00:0EEA 0D CE                    3128   	bal	_$L308
00:0EEC                          3129   _$L306 :
                                 3130   CBLOCK 141 83 759
00:0EEC 10-90 00-00'             3131   	l	r0,	NEAR _chari
00:0EF0 00 01                    3132   	mov	r1,	#00h
00:0EF2 10-92 00-00'             3133   	l	r2,	NEAR _chark
00:0EF6 00 03                    3134   	mov	r3,	#00h
00:0EF8 28-80                    3135   	sub	r0,	r2
00:0EFA 39-81                    3136   	subc	r1,	r3
00:0EFC 08-90 00-00'             3137   	l	r0,	NEAR _I2C_BUFF[er0]
00:0F00 D0 10                    3138   	add	r0,	#0d0h
00:0F02 11-90 00-00'             3139   	st	r0,	NEAR _Data3Str_temp
                                 3140   CBLOCKEND 141 83 759
00:0F06                          3141   _$L308 :
                                 3142   
                                 3143   ;;								Data3Str += Data3Str_temp;
                                 3144   CLINEA 0000H 0001H 02F8H 0009H 0022H
00:0F06 10-90 00-00'             3145   	l	r0,	NEAR _Data3Str
00:0F0A 10-91 00-00'             3146   	l	r1,	NEAR _Data3Str_temp
00:0F0E 11-80                    3147   	add	r0,	r1
00:0F10 11-90 00-00'             3148   	st	r0,	NEAR _Data3Str
                                 3149   CBLOCKEND 141 80 761
                                 3150   CBLOCKEND 141 81 973
                                 3151   
                                 3152   ;;							for(chark = charj; chark>0; chark--){
                                 3153   CLINEA 0000H 0000H 02F4H 0024H 002AH
00:0F14 20-80                    3154   	mov	r0,	r2
00:0F16 FF 10                    3155   	add	r0,	#0ffh
                                 3156   
                                 3157   ;;							for(chark = charj; chark>0; chark--){
                                 3158   CLINEA 0000H 0000H 02F4H 0001H 000BH
00:0F18                          3159   _$L489 :
00:0F18 11-90 00-00'             3160   	st	r0,	NEAR _chark
                                 3161   
                                 3162   ;;							for(chark = charj; chark>0; chark--){
                                 3163   CLINEA 0000H 0000H 02F4H 001BH 0022H
00:0F1C 00 70                    3164   	cmp	r0,	#00h
00:0F1E 02 C3                    3165   	ble	_$M125
00:0F20 00-F0'00-00'             3166   	b	_$L299
00:0F24                          3167   _$M125 :
                                 3168   
                                 3169   ;;							chari++;
                                 3170   CLINEA 0000H 0000H 02FAH 0008H 000FH
00:0F24 0C-F0 00-00'             3171   	lea	OFFSET _chari
00:0F28 2F-FE                    3172   	inc	[ea]
                                 3173   
                                 3174   ;;							charj = 0;
                                 3175   CLINEA 0000H 0001H 02FBH 0008H 0011H
00:0F2A 00 00                    3176   	mov	r0,	#00h
                                 3177   
                                 3178   ;;							while(I2C_BUFF[chari]!=0x20){
                                 3179   CLINEA 0000H 0000H 02FDH 0001H 000BH
00:0F2C 06 CE                    3180   	bal	_$L490
                                 3181   
                                 3182   ;;							while(I2C_BUFF[chari]!=0x20){
                                 3183   CLINEA 0000H 0000H 02FDH 0008H 0024H
00:0F2E                          3184   _$L311 :
                                 3185   CBLOCK 141 84 765
                                 3186   
                                 3187   ;;								chari++;
                                 3188   CLINEA 0000H 0000H 02FEH 0009H 0010H
00:0F2E 0C-F0 00-00'             3189   	lea	OFFSET _chari
00:0F32 2F-FE                    3190   	inc	[ea]
                                 3191   
                                 3192   ;;								charj++;
                                 3193   CLINEA 0000H 0000H 02FFH 0009H 0010H
00:0F34 10-90 00-00'             3194   	l	r0,	NEAR _charj
00:0F38 01 10                    3195   	add	r0,	#01h
                                 3196   CBLOCKEND 141 84 768
                                 3197   
                                 3198   ;;							while(I2C_BUFF[chari]!=0x20){
                                 3199   CLINEA 0000H 0000H 02FDH 0001H 000BH
00:0F3A                          3200   _$L490 :
00:0F3A 11-90 00-00'             3201   	st	r0,	NEAR _charj
                                 3202   
                                 3203   ;;							while(I2C_BUFF[chari]!=0x20){
                                 3204   CLINEA 0000H 0000H 02FDH 001BH 0022H
00:0F3E 10-90 00-00'             3205   	l	r0,	NEAR _chari
00:0F42 00 01                    3206   	mov	r1,	#00h
00:0F44 08-90 00-00'             3207   	l	r0,	NEAR _I2C_BUFF[er0]
00:0F48 20 70                    3208   	cmp	r0,	#020h
00:0F4A F1 C8                    3209   	bne	_$L311
                                 3210   
                                 3211   ;;							for(chark = charj; chark>0; chark--){
                                 3212   CLINEA 0000H 0001H 0301H 000CH 0019H
00:0F4C 10-90 00-00'             3213   	l	r0,	NEAR _charj
                                 3214   
                                 3215   ;;							for(chark = charj; chark>0; chark--){
                                 3216   CLINEA 0000H 0000H 0301H 0001H 000BH
00:0F50 40 CE                    3217   	bal	_$L491
                                 3218   
                                 3219   ;;							for(chark = charj; chark>0; chark--){
                                 3220   CLINEA 0000H 0000H 0301H 0024H 002AH
00:0F52                          3221   _$L315 :
                                 3222   CBLOCK 141 85 769
                                 3223   
                                 3224   ;;								if(chark == 3){Data4Str_temp = (I2C_BUFF[chari-chark]-0x30)*100;}
                                 3225   CLINEA 0000H 0001H 0302H 0009H 0049H
00:0F52 03 70                    3226   	cmp	r0,	#03h
00:0F54 14 C8                    3227   	bne	_$L319
                                 3228   CBLOCK 141 86 770
00:0F56 10-90 00-00'             3229   	l	r0,	NEAR _chari
00:0F5A 00 01                    3230   	mov	r1,	#00h
00:0F5C 10-92 00-00'             3231   	l	r2,	NEAR _chark
00:0F60 00 03                    3232   	mov	r3,	#00h
00:0F62 28-80                    3233   	sub	r0,	r2
00:0F64 39-81                    3234   	subc	r1,	r3
00:0F66 08-90 00-00'             3235   	l	r0,	NEAR _I2C_BUFF[er0]
00:0F6A D0 10                    3236   	add	r0,	#0d0h
00:0F6C 00-81                    3237   	mov	r1,	r0
00:0F6E 1A-91                    3238   	sll	r1,	#01h
00:0F70 01-81                    3239   	add	r1,	r0
00:0F72 3A-91                    3240   	sll	r1,	#03h
00:0F74 01-81                    3241   	add	r1,	r0
00:0F76 2A-91                    3242   	sll	r1,	#02h
00:0F78 11-91 00-00'             3243   	st	r1,	NEAR _Data4Str_temp
                                 3244   
                                 3245   ;;								else if(chark == 2){Data4Str_temp = (I2C_BUFF[chari-chark]-0x30)*10;}
                                 3246   CLINEA 0000H 0001H 0303H 0009H 004DH
00:0F7C 21 CE                    3247   	bal	_$L324
00:0F7E                          3248   _$L319 :
00:0F7E 02 70                    3249   	cmp	r0,	#02h
00:0F80 12 C8                    3250   	bne	_$L322
                                 3251   CBLOCK 141 87 771
00:0F82 10-90 00-00'             3252   	l	r0,	NEAR _chari
00:0F86 00 01                    3253   	mov	r1,	#00h
00:0F88 10-92 00-00'             3254   	l	r2,	NEAR _chark
00:0F8C 00 03                    3255   	mov	r3,	#00h
00:0F8E 28-80                    3256   	sub	r0,	r2
00:0F90 39-81                    3257   	subc	r1,	r3
00:0F92 08-90 00-00'             3258   	l	r0,	NEAR _I2C_BUFF[er0]
00:0F96 D0 10                    3259   	add	r0,	#0d0h
00:0F98 00-81                    3260   	mov	r1,	r0
00:0F9A 2A-91                    3261   	sll	r1,	#02h
00:0F9C 01-81                    3262   	add	r1,	r0
00:0F9E 1A-91                    3263   	sll	r1,	#01h
00:0FA0 11-91 00-00'             3264   	st	r1,	NEAR _Data4Str_temp
                                 3265   CBLOCKEND 141 87 771
                                 3266   
                                 3267   ;;								else {Data4Str_temp = (I2C_BUFF[chari-chark]-0x30);}
                                 3268   CLINEA 0000H 0001H 0304H 0009H 003CH
00:0FA4 0D CE                    3269   	bal	_$L324
00:0FA6                          3270   _$L322 :
                                 3271   CBLOCK 141 88 772
00:0FA6 10-90 00-00'             3272   	l	r0,	NEAR _chari
00:0FAA 00 01                    3273   	mov	r1,	#00h
00:0FAC 10-92 00-00'             3274   	l	r2,	NEAR _chark
00:0FB0 00 03                    3275   	mov	r3,	#00h
00:0FB2 28-80                    3276   	sub	r0,	r2
00:0FB4 39-81                    3277   	subc	r1,	r3
00:0FB6 08-90 00-00'             3278   	l	r0,	NEAR _I2C_BUFF[er0]
00:0FBA D0 10                    3279   	add	r0,	#0d0h
00:0FBC 11-90 00-00'             3280   	st	r0,	NEAR _Data4Str_temp
                                 3281   CBLOCKEND 141 88 772
00:0FC0                          3282   _$L324 :
                                 3283   
                                 3284   ;;								Data4Str += Data4Str_temp;
                                 3285   CLINEA 0000H 0001H 0305H 0009H 0022H
00:0FC0 10-90 00-00'             3286   	l	r0,	NEAR _Data4Str
00:0FC4 10-91 00-00'             3287   	l	r1,	NEAR _Data4Str_temp
00:0FC8 11-80                    3288   	add	r0,	r1
00:0FCA 11-90 00-00'             3289   	st	r0,	NEAR _Data4Str
                                 3290   CBLOCKEND 141 85 774
                                 3291   CBLOCKEND 141 86 973
                                 3292   
                                 3293   ;;							for(chark = charj; chark>0; chark--){
                                 3294   CLINEA 0000H 0000H 0301H 0024H 002AH
00:0FCE 20-80                    3295   	mov	r0,	r2
00:0FD0 FF 10                    3296   	add	r0,	#0ffh
                                 3297   
                                 3298   ;;							for(chark = charj; chark>0; chark--){
                                 3299   CLINEA 0000H 0000H 0301H 0001H 000BH
00:0FD2                          3300   _$L491 :
00:0FD2 11-90 00-00'             3301   	st	r0,	NEAR _chark
                                 3302   
                                 3303   ;;							for(chark = charj; chark>0; chark--){
                                 3304   CLINEA 0000H 0000H 0301H 001BH 0022H
00:0FD6 00 70                    3305   	cmp	r0,	#00h
00:0FD8 02 C3                    3306   	ble	_$M126
00:0FDA 00-F0'00-00'             3307   	b	_$L315
00:0FDE                          3308   _$M126 :
                                 3309   
                                 3310   ;;							chari++;
                                 3311   CLINEA 0000H 0000H 0307H 0008H 000FH
00:0FDE 0C-F0 00-00'             3312   	lea	OFFSET _chari
00:0FE2 2F-FE                    3313   	inc	[ea]
                                 3314   
                                 3315   ;;							charj = 0;
                                 3316   CLINEA 0000H 0001H 0308H 0008H 0011H
00:0FE4 00 00                    3317   	mov	r0,	#00h
                                 3318   
                                 3319   ;;							while(I2C_BUFF[chari]!=0x20){
                                 3320   CLINEA 0000H 0000H 030AH 0001H 000BH
00:0FE6 06 CE                    3321   	bal	_$L492
                                 3322   
                                 3323   ;;							while(I2C_BUFF[chari]!=0x20){
                                 3324   CLINEA 0000H 0000H 030AH 0008H 0024H
00:0FE8                          3325   _$L327 :
                                 3326   CBLOCK 141 89 778
                                 3327   
                                 3328   ;;								chari++;
                                 3329   CLINEA 0000H 0000H 030BH 0009H 0010H
00:0FE8 0C-F0 00-00'             3330   	lea	OFFSET _chari
00:0FEC 2F-FE                    3331   	inc	[ea]
                                 3332   
                                 3333   ;;								charj++;
                                 3334   CLINEA 0000H 0000H 030CH 0009H 0010H
00:0FEE 10-90 00-00'             3335   	l	r0,	NEAR _charj
00:0FF2 01 10                    3336   	add	r0,	#01h
                                 3337   CBLOCKEND 141 89 781
                                 3338   
                                 3339   ;;							while(I2C_BUFF[chari]!=0x20){
                                 3340   CLINEA 0000H 0000H 030AH 0001H 000BH
00:0FF4                          3341   _$L492 :
00:0FF4 11-90 00-00'             3342   	st	r0,	NEAR _charj
                                 3343   
                                 3344   ;;							while(I2C_BUFF[chari]!=0x20){
                                 3345   CLINEA 0000H 0000H 030AH 001BH 0022H
00:0FF8 10-90 00-00'             3346   	l	r0,	NEAR _chari
00:0FFC 00 01                    3347   	mov	r1,	#00h
00:0FFE 08-90 00-00'             3348   	l	r0,	NEAR _I2C_BUFF[er0]
00:1002 20 70                    3349   	cmp	r0,	#020h
00:1004 F1 C8                    3350   	bne	_$L327
                                 3351   
                                 3352   ;;							for(chark = charj; chark>0; chark--){
                                 3353   CLINEA 0000H 0001H 030EH 000CH 0019H
00:1006 10-90 00-00'             3354   	l	r0,	NEAR _charj
                                 3355   
                                 3356   ;;							for(chark = charj; chark>0; chark--){
                                 3357   CLINEA 0000H 0000H 030EH 0001H 000BH
00:100A 40 CE                    3358   	bal	_$L493
                                 3359   
                                 3360   ;;							for(chark = charj; chark>0; chark--){
                                 3361   CLINEA 0000H 0000H 030EH 0024H 002AH
00:100C                          3362   _$L331 :
                                 3363   CBLOCK 141 90 782
                                 3364   
                                 3365   ;;								if(chark == 3){Data5Str_temp = (I2C_BUFF[chari-chark]-0x30)*100;}
                                 3366   CLINEA 0000H 0001H 030FH 0009H 0049H
00:100C 03 70                    3367   	cmp	r0,	#03h
00:100E 14 C8                    3368   	bne	_$L335
                                 3369   CBLOCK 141 91 783
00:1010 10-90 00-00'             3370   	l	r0,	NEAR _chari
00:1014 00 01                    3371   	mov	r1,	#00h
00:1016 10-92 00-00'             3372   	l	r2,	NEAR _chark
00:101A 00 03                    3373   	mov	r3,	#00h
00:101C 28-80                    3374   	sub	r0,	r2
00:101E 39-81                    3375   	subc	r1,	r3
00:1020 08-90 00-00'             3376   	l	r0,	NEAR _I2C_BUFF[er0]
00:1024 D0 10                    3377   	add	r0,	#0d0h
00:1026 00-81                    3378   	mov	r1,	r0
00:1028 1A-91                    3379   	sll	r1,	#01h
00:102A 01-81                    3380   	add	r1,	r0
00:102C 3A-91                    3381   	sll	r1,	#03h
00:102E 01-81                    3382   	add	r1,	r0
00:1030 2A-91                    3383   	sll	r1,	#02h
00:1032 11-91 00-00'             3384   	st	r1,	NEAR _Data5Str_temp
                                 3385   
                                 3386   ;;								else if(chark == 2){Data5Str_temp = (I2C_BUFF[chari-chark]-0x30)*10;}
                                 3387   CLINEA 0000H 0001H 0310H 0009H 004DH
00:1036 21 CE                    3388   	bal	_$L340
00:1038                          3389   _$L335 :
00:1038 02 70                    3390   	cmp	r0,	#02h
00:103A 12 C8                    3391   	bne	_$L338
                                 3392   CBLOCK 141 92 784
00:103C 10-90 00-00'             3393   	l	r0,	NEAR _chari
00:1040 00 01                    3394   	mov	r1,	#00h
00:1042 10-92 00-00'             3395   	l	r2,	NEAR _chark
00:1046 00 03                    3396   	mov	r3,	#00h
00:1048 28-80                    3397   	sub	r0,	r2
00:104A 39-81                    3398   	subc	r1,	r3
00:104C 08-90 00-00'             3399   	l	r0,	NEAR _I2C_BUFF[er0]
00:1050 D0 10                    3400   	add	r0,	#0d0h
00:1052 00-81                    3401   	mov	r1,	r0
00:1054 2A-91                    3402   	sll	r1,	#02h
00:1056 01-81                    3403   	add	r1,	r0
00:1058 1A-91                    3404   	sll	r1,	#01h
00:105A 11-91 00-00'             3405   	st	r1,	NEAR _Data5Str_temp
                                 3406   CBLOCKEND 141 92 784
                                 3407   
                                 3408   ;;								else {Data5Str_temp = (I2C_BUFF[chari-chark]-0x30);}
                                 3409   CLINEA 0000H 0001H 0311H 0009H 003CH
00:105E 0D CE                    3410   	bal	_$L340
00:1060                          3411   _$L338 :
                                 3412   CBLOCK 141 93 785
00:1060 10-90 00-00'             3413   	l	r0,	NEAR _chari
00:1064 00 01                    3414   	mov	r1,	#00h
00:1066 10-92 00-00'             3415   	l	r2,	NEAR _chark
00:106A 00 03                    3416   	mov	r3,	#00h
00:106C 28-80                    3417   	sub	r0,	r2
00:106E 39-81                    3418   	subc	r1,	r3
00:1070 08-90 00-00'             3419   	l	r0,	NEAR _I2C_BUFF[er0]
00:1074 D0 10                    3420   	add	r0,	#0d0h
00:1076 11-90 00-00'             3421   	st	r0,	NEAR _Data5Str_temp
                                 3422   CBLOCKEND 141 93 785
00:107A                          3423   _$L340 :
                                 3424   
                                 3425   ;;								Data5Str += Data5Str_temp;
                                 3426   CLINEA 0000H 0001H 0312H 0009H 0022H
00:107A 10-90 00-00'             3427   	l	r0,	NEAR _Data5Str
00:107E 10-91 00-00'             3428   	l	r1,	NEAR _Data5Str_temp
00:1082 11-80                    3429   	add	r0,	r1
00:1084 11-90 00-00'             3430   	st	r0,	NEAR _Data5Str
                                 3431   CBLOCKEND 141 90 787
                                 3432   CBLOCKEND 141 91 973
                                 3433   
                                 3434   ;;							for(chark = charj; chark>0; chark--){
                                 3435   CLINEA 0000H 0000H 030EH 0024H 002AH
00:1088 20-80                    3436   	mov	r0,	r2
00:108A FF 10                    3437   	add	r0,	#0ffh
                                 3438   
                                 3439   ;;							for(chark = charj; chark>0; chark--){
                                 3440   CLINEA 0000H 0000H 030EH 0001H 000BH
00:108C                          3441   _$L493 :
00:108C 11-90 00-00'             3442   	st	r0,	NEAR _chark
                                 3443   
                                 3444   ;;							for(chark = charj; chark>0; chark--){
                                 3445   CLINEA 0000H 0000H 030EH 001BH 0022H
00:1090 00 70                    3446   	cmp	r0,	#00h
00:1092 02 C3                    3447   	ble	_$M127
00:1094 00-F0'00-00'             3448   	b	_$L331
00:1098                          3449   _$M127 :
                                 3450   
                                 3451   ;;							chari++;
                                 3452   CLINEA 0000H 0000H 0314H 0008H 000FH
00:1098 0C-F0 00-00'             3453   	lea	OFFSET _chari
00:109C 2F-FE                    3454   	inc	[ea]
                                 3455   
                                 3456   ;;							charj = 0;
                                 3457   CLINEA 0000H 0001H 0315H 0008H 0011H
00:109E 00 00                    3458   	mov	r0,	#00h
                                 3459   
                                 3460   ;;							while(I2C_BUFF[chari]!=0x20){
                                 3461   CLINEA 0000H 0000H 0317H 0001H 000BH
00:10A0 06 CE                    3462   	bal	_$L494
                                 3463   
                                 3464   ;;							while(I2C_BUFF[chari]!=0x20){
                                 3465   CLINEA 0000H 0000H 0317H 0008H 0024H
00:10A2                          3466   _$L343 :
                                 3467   CBLOCK 141 94 791
                                 3468   
                                 3469   ;;								chari++;
                                 3470   CLINEA 0000H 0000H 0318H 0009H 0010H
00:10A2 0C-F0 00-00'             3471   	lea	OFFSET _chari
00:10A6 2F-FE                    3472   	inc	[ea]
                                 3473   
                                 3474   ;;								charj++;
                                 3475   CLINEA 0000H 0000H 0319H 0009H 0010H
00:10A8 10-90 00-00'             3476   	l	r0,	NEAR _charj
00:10AC 01 10                    3477   	add	r0,	#01h
                                 3478   CBLOCKEND 141 94 794
                                 3479   
                                 3480   ;;							while(I2C_BUFF[chari]!=0x20){
                                 3481   CLINEA 0000H 0000H 0317H 0001H 000BH
00:10AE                          3482   _$L494 :
00:10AE 11-90 00-00'             3483   	st	r0,	NEAR _charj
                                 3484   
                                 3485   ;;							while(I2C_BUFF[chari]!=0x20){
                                 3486   CLINEA 0000H 0000H 0317H 001BH 0022H
00:10B2 10-90 00-00'             3487   	l	r0,	NEAR _chari
00:10B6 00 01                    3488   	mov	r1,	#00h
00:10B8 08-90 00-00'             3489   	l	r0,	NEAR _I2C_BUFF[er0]
00:10BC 20 70                    3490   	cmp	r0,	#020h
00:10BE F1 C8                    3491   	bne	_$L343
                                 3492   
                                 3493   ;;							for(chark = charj; chark>0; chark--){
                                 3494   CLINEA 0000H 0001H 031BH 000CH 0019H
00:10C0 10-90 00-00'             3495   	l	r0,	NEAR _charj
                                 3496   
                                 3497   ;;							for(chark = charj; chark>0; chark--){
                                 3498   CLINEA 0000H 0000H 031BH 0001H 000BH
00:10C4 40 CE                    3499   	bal	_$L495
                                 3500   
                                 3501   ;;							for(chark = charj; chark>0; chark--){
                                 3502   CLINEA 0000H 0000H 031BH 0024H 002AH
00:10C6                          3503   _$L347 :
                                 3504   CBLOCK 141 95 795
                                 3505   
                                 3506   ;;								if(chark == 3){Data6Str_temp = (I2C_BUFF[chari-chark]-0x30)*100;}
                                 3507   CLINEA 0000H 0001H 031CH 0009H 0049H
00:10C6 03 70                    3508   	cmp	r0,	#03h
00:10C8 14 C8                    3509   	bne	_$L351
                                 3510   CBLOCK 141 96 796
00:10CA 10-90 00-00'             3511   	l	r0,	NEAR _chari
00:10CE 00 01                    3512   	mov	r1,	#00h
00:10D0 10-92 00-00'             3513   	l	r2,	NEAR _chark
00:10D4 00 03                    3514   	mov	r3,	#00h
00:10D6 28-80                    3515   	sub	r0,	r2
00:10D8 39-81                    3516   	subc	r1,	r3
00:10DA 08-90 00-00'             3517   	l	r0,	NEAR _I2C_BUFF[er0]
00:10DE D0 10                    3518   	add	r0,	#0d0h
00:10E0 00-81                    3519   	mov	r1,	r0
00:10E2 1A-91                    3520   	sll	r1,	#01h
00:10E4 01-81                    3521   	add	r1,	r0
00:10E6 3A-91                    3522   	sll	r1,	#03h
00:10E8 01-81                    3523   	add	r1,	r0
00:10EA 2A-91                    3524   	sll	r1,	#02h
00:10EC 11-91 00-00'             3525   	st	r1,	NEAR _Data6Str_temp
                                 3526   
                                 3527   ;;								else if(chark == 2){Data6Str_temp = (I2C_BUFF[chari-chark]-0x30)*10;}
                                 3528   CLINEA 0000H 0001H 031DH 0009H 004DH
00:10F0 21 CE                    3529   	bal	_$L356
00:10F2                          3530   _$L351 :
00:10F2 02 70                    3531   	cmp	r0,	#02h
00:10F4 12 C8                    3532   	bne	_$L354
                                 3533   CBLOCK 141 97 797
00:10F6 10-90 00-00'             3534   	l	r0,	NEAR _chari
00:10FA 00 01                    3535   	mov	r1,	#00h
00:10FC 10-92 00-00'             3536   	l	r2,	NEAR _chark
00:1100 00 03                    3537   	mov	r3,	#00h
00:1102 28-80                    3538   	sub	r0,	r2
00:1104 39-81                    3539   	subc	r1,	r3
00:1106 08-90 00-00'             3540   	l	r0,	NEAR _I2C_BUFF[er0]
00:110A D0 10                    3541   	add	r0,	#0d0h
00:110C 00-81                    3542   	mov	r1,	r0
00:110E 2A-91                    3543   	sll	r1,	#02h
00:1110 01-81                    3544   	add	r1,	r0
00:1112 1A-91                    3545   	sll	r1,	#01h
00:1114 11-91 00-00'             3546   	st	r1,	NEAR _Data6Str_temp
                                 3547   CBLOCKEND 141 97 797
                                 3548   
                                 3549   ;;								else {Data6Str_temp = (I2C_BUFF[chari-chark]-0x30);}
                                 3550   CLINEA 0000H 0001H 031EH 0009H 003CH
00:1118 0D CE                    3551   	bal	_$L356
00:111A                          3552   _$L354 :
                                 3553   CBLOCK 141 98 798
00:111A 10-90 00-00'             3554   	l	r0,	NEAR _chari
00:111E 00 01                    3555   	mov	r1,	#00h
00:1120 10-92 00-00'             3556   	l	r2,	NEAR _chark
00:1124 00 03                    3557   	mov	r3,	#00h
00:1126 28-80                    3558   	sub	r0,	r2
00:1128 39-81                    3559   	subc	r1,	r3
00:112A 08-90 00-00'             3560   	l	r0,	NEAR _I2C_BUFF[er0]
00:112E D0 10                    3561   	add	r0,	#0d0h
00:1130 11-90 00-00'             3562   	st	r0,	NEAR _Data6Str_temp
                                 3563   CBLOCKEND 141 98 798
00:1134                          3564   _$L356 :
                                 3565   
                                 3566   ;;								Data6Str += Data6Str_temp;
                                 3567   CLINEA 0000H 0001H 031FH 0009H 0022H
00:1134 10-90 00-00'             3568   	l	r0,	NEAR _Data6Str
00:1138 10-91 00-00'             3569   	l	r1,	NEAR _Data6Str_temp
00:113C 11-80                    3570   	add	r0,	r1
00:113E 11-90 00-00'             3571   	st	r0,	NEAR _Data6Str
                                 3572   CBLOCKEND 141 95 800
                                 3573   CBLOCKEND 141 96 973
                                 3574   
                                 3575   ;;							for(chark = charj; chark>0; chark--){
                                 3576   CLINEA 0000H 0000H 031BH 0024H 002AH
00:1142 20-80                    3577   	mov	r0,	r2
00:1144 FF 10                    3578   	add	r0,	#0ffh
                                 3579   
                                 3580   ;;							for(chark = charj; chark>0; chark--){
                                 3581   CLINEA 0000H 0000H 031BH 0001H 000BH
00:1146                          3582   _$L495 :
00:1146 11-90 00-00'             3583   	st	r0,	NEAR _chark
                                 3584   
                                 3585   ;;							for(chark = charj; chark>0; chark--){
                                 3586   CLINEA 0000H 0000H 031BH 001BH 0022H
00:114A 00 70                    3587   	cmp	r0,	#00h
00:114C 02 C3                    3588   	ble	_$M128
00:114E 00-F0'00-00'             3589   	b	_$L347
00:1152                          3590   _$M128 :
                                 3591   
                                 3592   ;;							chari++;
                                 3593   CLINEA 0000H 0000H 0321H 0008H 000FH
00:1152 0C-F0 00-00'             3594   	lea	OFFSET _chari
00:1156 2F-FE                    3595   	inc	[ea]
                                 3596   
                                 3597   ;;							charj = 0;
                                 3598   CLINEA 0000H 0001H 0322H 0008H 0011H
00:1158 00 00                    3599   	mov	r0,	#00h
                                 3600   
                                 3601   ;;							while(I2C_BUFF[chari]!=0x20){
                                 3602   CLINEA 0000H 0000H 0324H 0001H 000BH
00:115A 06 CE                    3603   	bal	_$L496
                                 3604   
                                 3605   ;;							while(I2C_BUFF[chari]!=0x20){
                                 3606   CLINEA 0000H 0000H 0324H 0008H 0024H
00:115C                          3607   _$L359 :
                                 3608   CBLOCK 141 99 804
                                 3609   
                                 3610   ;;								chari++;
                                 3611   CLINEA 0000H 0000H 0325H 0009H 0010H
00:115C 0C-F0 00-00'             3612   	lea	OFFSET _chari
00:1160 2F-FE                    3613   	inc	[ea]
                                 3614   
                                 3615   ;;								charj++;
                                 3616   CLINEA 0000H 0000H 0326H 0009H 0010H
00:1162 10-90 00-00'             3617   	l	r0,	NEAR _charj
00:1166 01 10                    3618   	add	r0,	#01h
                                 3619   CBLOCKEND 141 99 807
                                 3620   
                                 3621   ;;							while(I2C_BUFF[chari]!=0x20){
                                 3622   CLINEA 0000H 0000H 0324H 0001H 000BH
00:1168                          3623   _$L496 :
00:1168 11-90 00-00'             3624   	st	r0,	NEAR _charj
                                 3625   
                                 3626   ;;							while(I2C_BUFF[chari]!=0x20){
                                 3627   CLINEA 0000H 0000H 0324H 001BH 0022H
00:116C 10-90 00-00'             3628   	l	r0,	NEAR _chari
00:1170 00 01                    3629   	mov	r1,	#00h
00:1172 08-90 00-00'             3630   	l	r0,	NEAR _I2C_BUFF[er0]
00:1176 20 70                    3631   	cmp	r0,	#020h
00:1178 F1 C8                    3632   	bne	_$L359
                                 3633   
                                 3634   ;;							for(chark = charj; chark>0; chark--){
                                 3635   CLINEA 0000H 0001H 0328H 000CH 0019H
00:117A 10-90 00-00'             3636   	l	r0,	NEAR _charj
                                 3637   
                                 3638   ;;							for(chark = charj; chark>0; chark--){
                                 3639   CLINEA 0000H 0000H 0328H 0001H 000BH
00:117E 40 CE                    3640   	bal	_$L497
                                 3641   
                                 3642   ;;							for(chark = charj; chark>0; chark--){
                                 3643   CLINEA 0000H 0000H 0328H 0024H 002AH
00:1180                          3644   _$L363 :
                                 3645   CBLOCK 141 100 808
                                 3646   
                                 3647   ;;								if(chark == 3){Data7Str_temp = (I2C_BUFF[chari-chark]-0x30)*100;}
                                 3648   CLINEA 0000H 0001H 0329H 0009H 0049H
00:1180 03 70                    3649   	cmp	r0,	#03h
00:1182 14 C8                    3650   	bne	_$L367
                                 3651   CBLOCK 141 101 809
00:1184 10-90 00-00'             3652   	l	r0,	NEAR _chari
00:1188 00 01                    3653   	mov	r1,	#00h
00:118A 10-92 00-00'             3654   	l	r2,	NEAR _chark
00:118E 00 03                    3655   	mov	r3,	#00h
00:1190 28-80                    3656   	sub	r0,	r2
00:1192 39-81                    3657   	subc	r1,	r3
00:1194 08-90 00-00'             3658   	l	r0,	NEAR _I2C_BUFF[er0]
00:1198 D0 10                    3659   	add	r0,	#0d0h
00:119A 00-81                    3660   	mov	r1,	r0
00:119C 1A-91                    3661   	sll	r1,	#01h
00:119E 01-81                    3662   	add	r1,	r0
00:11A0 3A-91                    3663   	sll	r1,	#03h
00:11A2 01-81                    3664   	add	r1,	r0
00:11A4 2A-91                    3665   	sll	r1,	#02h
00:11A6 11-91 00-00'             3666   	st	r1,	NEAR _Data7Str_temp
                                 3667   
                                 3668   ;;								else if(chark == 2){Data7Str_temp = (I2C_BUFF[chari-chark]-0x30)*10;}
                                 3669   CLINEA 0000H 0001H 032AH 0009H 004DH
00:11AA 21 CE                    3670   	bal	_$L372
00:11AC                          3671   _$L367 :
00:11AC 02 70                    3672   	cmp	r0,	#02h
00:11AE 12 C8                    3673   	bne	_$L370
                                 3674   CBLOCK 141 102 810
00:11B0 10-90 00-00'             3675   	l	r0,	NEAR _chari
00:11B4 00 01                    3676   	mov	r1,	#00h
00:11B6 10-92 00-00'             3677   	l	r2,	NEAR _chark
00:11BA 00 03                    3678   	mov	r3,	#00h
00:11BC 28-80                    3679   	sub	r0,	r2
00:11BE 39-81                    3680   	subc	r1,	r3
00:11C0 08-90 00-00'             3681   	l	r0,	NEAR _I2C_BUFF[er0]
00:11C4 D0 10                    3682   	add	r0,	#0d0h
00:11C6 00-81                    3683   	mov	r1,	r0
00:11C8 2A-91                    3684   	sll	r1,	#02h
00:11CA 01-81                    3685   	add	r1,	r0
00:11CC 1A-91                    3686   	sll	r1,	#01h
00:11CE 11-91 00-00'             3687   	st	r1,	NEAR _Data7Str_temp
                                 3688   CBLOCKEND 141 102 810
                                 3689   
                                 3690   ;;								else {Data7Str_temp = (I2C_BUFF[chari-chark]-0x30);}
                                 3691   CLINEA 0000H 0001H 032BH 0009H 003CH
00:11D2 0D CE                    3692   	bal	_$L372
00:11D4                          3693   _$L370 :
                                 3694   CBLOCK 141 103 811
00:11D4 10-90 00-00'             3695   	l	r0,	NEAR _chari
00:11D8 00 01                    3696   	mov	r1,	#00h
00:11DA 10-92 00-00'             3697   	l	r2,	NEAR _chark
00:11DE 00 03                    3698   	mov	r3,	#00h
00:11E0 28-80                    3699   	sub	r0,	r2
00:11E2 39-81                    3700   	subc	r1,	r3
00:11E4 08-90 00-00'             3701   	l	r0,	NEAR _I2C_BUFF[er0]
00:11E8 D0 10                    3702   	add	r0,	#0d0h
00:11EA 11-90 00-00'             3703   	st	r0,	NEAR _Data7Str_temp
                                 3704   CBLOCKEND 141 103 811
00:11EE                          3705   _$L372 :
                                 3706   
                                 3707   ;;								Data7Str += Data7Str_temp;
                                 3708   CLINEA 0000H 0001H 032CH 0009H 0022H
00:11EE 10-90 00-00'             3709   	l	r0,	NEAR _Data7Str
00:11F2 10-91 00-00'             3710   	l	r1,	NEAR _Data7Str_temp
00:11F6 11-80                    3711   	add	r0,	r1
00:11F8 11-90 00-00'             3712   	st	r0,	NEAR _Data7Str
                                 3713   CBLOCKEND 141 100 813
                                 3714   CBLOCKEND 141 101 973
                                 3715   
                                 3716   ;;							for(chark = charj; chark>0; chark--){
                                 3717   CLINEA 0000H 0000H 0328H 0024H 002AH
00:11FC 20-80                    3718   	mov	r0,	r2
00:11FE FF 10                    3719   	add	r0,	#0ffh
                                 3720   
                                 3721   ;;							for(chark = charj; chark>0; chark--){
                                 3722   CLINEA 0000H 0000H 0328H 0001H 000BH
00:1200                          3723   _$L497 :
00:1200 11-90 00-00'             3724   	st	r0,	NEAR _chark
                                 3725   
                                 3726   ;;							for(chark = charj; chark>0; chark--){
                                 3727   CLINEA 0000H 0000H 0328H 001BH 0022H
00:1204 00 70                    3728   	cmp	r0,	#00h
00:1206 02 C3                    3729   	ble	_$M129
00:1208 00-F0'00-00'             3730   	b	_$L363
00:120C                          3731   _$M129 :
                                 3732   
                                 3733   ;;							chari++;
                                 3734   CLINEA 0000H 0000H 032EH 0008H 000FH
00:120C 0C-F0 00-00'             3735   	lea	OFFSET _chari
00:1210 2F-FE                    3736   	inc	[ea]
                                 3737   
                                 3738   ;;							charj = 0;							
                                 3739   CLINEA 0000H 0001H 032FH 0008H 0018H
00:1212 00 00                    3740   	mov	r0,	#00h
00:1214 11-90 00-00'             3741   	st	r0,	NEAR _charj
                                 3742   
                                 3743   ;;							I2CSendInfo[0] = Data0Str;
                                 3744   CLINEA 0000H 0001H 0332H 0008H 0021H
00:1218 10-90 00-00'             3745   	l	r0,	NEAR _Data0Str
00:121C 11-90 00-00'             3746   	st	r0,	NEAR _I2CSendInfo
                                 3747   
                                 3748   ;;							I2CSendInfo[1] = Data1Str;
                                 3749   CLINEA 0000H 0001H 0333H 0008H 0021H
00:1220 10-90 00-00'             3750   	l	r0,	NEAR _Data1Str
00:1224 11-90 00-00'             3751   	st	r0,	NEAR _I2CSendInfo+01h
                                 3752   
                                 3753   ;;							I2CSendInfo[2] = Data2Str;
                                 3754   CLINEA 0000H 0001H 0334H 0008H 0021H
00:1228 10-90 00-00'             3755   	l	r0,	NEAR _Data2Str
00:122C 11-90 00-00'             3756   	st	r0,	NEAR _I2CSendInfo+02h
                                 3757   
                                 3758   ;;							I2CSendInfo[3] = Data3Str;
                                 3759   CLINEA 0000H 0001H 0335H 0008H 0021H
00:1230 10-90 00-00'             3760   	l	r0,	NEAR _Data3Str
00:1234 11-90 00-00'             3761   	st	r0,	NEAR _I2CSendInfo+03h
                                 3762   
                                 3763   ;;							I2CSendInfo[4] = Data4Str;
                                 3764   CLINEA 0000H 0001H 0336H 0008H 0021H
00:1238 10-90 00-00'             3765   	l	r0,	NEAR _Data4Str
00:123C 11-90 00-00'             3766   	st	r0,	NEAR _I2CSendInfo+04h
                                 3767   
                                 3768   ;;							I2CSendInfo[5] = Data5Str;
                                 3769   CLINEA 0000H 0001H 0337H 0008H 0021H
00:1240 10-90 00-00'             3770   	l	r0,	NEAR _Data5Str
00:1244 11-90 00-00'             3771   	st	r0,	NEAR _I2CSendInfo+05h
                                 3772   
                                 3773   ;;							I2CSendInfo[6] = Data6Str;
                                 3774   CLINEA 0000H 0001H 0338H 0008H 0021H
00:1248 10-90 00-00'             3775   	l	r0,	NEAR _Data6Str
00:124C 11-90 00-00'             3776   	st	r0,	NEAR _I2CSendInfo+06h
                                 3777   
                                 3778   ;;							I2CSendInfo[7] = Data7Str;
                                 3779   CLINEA 0000H 0001H 0339H 0008H 0021H
00:1250 10-90 00-00'             3780   	l	r0,	NEAR _Data7Str
00:1254 11-90 00-00'             3781   	st	r0,	NEAR _I2CSendInfo+07h
                                 3782   
                                 3783   ;;							Data0Str = Data1Str = Data2Str = Data3Str = Data4Str = Data5Str = Data6Str = Data7Str = 0;
                                 3784   CLINEA 0000H 0001H 033CH 0008H 0061H
00:1258 00 00                    3785   	mov	r0,	#00h
00:125A 11-90 00-00'             3786   	st	r0,	NEAR _Data7Str
00:125E 11-90 00-00'             3787   	st	r0,	NEAR _Data6Str
00:1262 11-90 00-00'             3788   	st	r0,	NEAR _Data5Str
00:1266 11-90 00-00'             3789   	st	r0,	NEAR _Data4Str
00:126A 11-90 00-00'             3790   	st	r0,	NEAR _Data3Str
00:126E 11-90 00-00'             3791   	st	r0,	NEAR _Data2Str
00:1272 11-90 00-00'             3792   	st	r0,	NEAR _Data1Str
00:1276 11-90 00-00'             3793   	st	r0,	NEAR _Data0Str
                                 3794   
                                 3795   ;;							_flgI2CFin = 0;														//reset I2C completed flag
                                 3796   CLINEA 0000H 0001H 033FH 0008H 003EH
00:127A 11-90 00-00'             3797   	st	r0,	NEAR __flgI2CFin
                                 3798   
                                 3799   ;;							i2c_stop();															//Make sure I2C is not currently running
                                 3800   CLINEA 0000H 0001H 0340H 0008H 0049H
00:127E 01-F0'00-00'             3801   	bl	_i2c_stop
                                 3802   
                                 3803   ;;							i2c_startSend( I2CAdd, &I2CSendInfo, I2CNumBytes, &I2CSendInfo, 0, (cbfI2c)_funcI2CFin);		//Begin I2C Recieve Command
                                 3804   CLINEA 0000H 0001H 0341H 0008H 007CH
00:1282 00'00                    3805   	mov	r0,	#BYTE1 OFFSET __funcI2CFin
00:1284 00'01                    3806   	mov	r1,	#BYTE2 OFFSET __funcI2CFin
00:1286 5E-F0                    3807   	push	er0
00:1288 00 E0                    3808   	mov	er0,	#0 
00:128A 5E-F0                    3809   	push	er0
00:128C 00'00                    3810   	mov	r0,	#BYTE1 OFFSET _I2CSendInfo
00:128E 00'01                    3811   	mov	r1,	#BYTE2 OFFSET _I2CSendInfo
00:1290 5E-F0                    3812   	push	er0
00:1292 10-90 00-00'             3813   	l	r0,	NEAR _I2CNumBytes
00:1296 00 01                    3814   	mov	r1,	#00h
00:1298 5E-F0                    3815   	push	er0
00:129A 00'02                    3816   	mov	r2,	#BYTE1 OFFSET _I2CSendInfo
00:129C 00'03                    3817   	mov	r3,	#BYTE2 OFFSET _I2CSendInfo
00:129E 10-90 00-00'             3818   	l	r0,	NEAR _I2CAdd
00:12A2 01-F0'00-00'             3819   	bl	_i2c_startSend
00:12A6 08 E1                    3820   	add	sp,	#8 
                                 3821   
                                 3822   ;;							while(_flgI2CFin != 1){												//Wait for I2C commands to finish transfer
                                 3823   CLINEA 0000H 0000H 0342H 0001H 000BH
00:12A8 04 CE                    3824   	bal	_$L498
                                 3825   
                                 3826   ;;							while(_flgI2CFin != 1){												//Wait for I2C commands to finish transfer
                                 3827   CLINEA 0000H 0000H 0342H 0008H 0054H
00:12AA                          3828   _$L375 :
                                 3829   CBLOCK 141 104 834
                                 3830   
                                 3831   ;;								NOP1000();
                                 3832   CLINEA 0000H 0001H 0343H 0009H 0012H
00:12AA 01-F0'00-00'             3833   	bl	_NOP1000
                                 3834   
                                 3835   ;;								main_clrWDT();
                                 3836   CLINEA 0000H 0001H 0344H 0009H 0016H
00:12AE 01-F0'00-00'             3837   	bl	_main_clrWDT
                                 3838   CBLOCKEND 141 104 837
                                 3839   
                                 3840   ;;							while(_flgI2CFin != 1){												//Wait for I2C commands to finish transfer
                                 3841   CLINEA 0000H 0000H 0342H 0001H 000BH
00:12B2                          3842   _$L498 :
                                 3843   
                                 3844   ;;							while(_flgI2CFin != 1){												//Wait for I2C commands to finish transfer
                                 3845   CLINEA 0000H 0000H 0342H 001BH 0022H
00:12B2 10-90 00-00'             3846   	l	r0,	NEAR __flgI2CFin
00:12B6 01 70                    3847   	cmp	r0,	#01h
00:12B8 F8 C8                    3848   	bne	_$L375
                                 3849   
                                 3850   ;;							I2CAdd = 0;
                                 3851   CLINEA 0000H 0001H 0348H 0008H 0012H
00:12BA 00 00                    3852   	mov	r0,	#00h
00:12BC 11-90 00-00'             3853   	st	r0,	NEAR _I2CAdd
                                 3854   
                                 3855   ;;							I2CNumBytes = 0;
                                 3856   CLINEA 0000H 0001H 0349H 0008H 0017H
00:12C0 11-90 00-00'             3857   	st	r0,	NEAR _I2CNumBytes
                                 3858   
                                 3859   ;;							chari = 0;
                                 3860   CLINEA 0000H 0001H 034AH 0008H 0011H
00:12C4 11-90 00-00'             3861   	st	r0,	NEAR _chari
                                 3862   
                                 3863   ;;							for(chari = 0; chari < 8; chari++){
                                 3864   CLINEA 0000H 0000H 034BH 0008H 002AH
00:12C8                          3865   _$L379 :
                                 3866   CBLOCK 141 105 843
                                 3867   
                                 3868   ;;								I2CSendInfo[chari] = 0;
                                 3869   CLINEA 0000H 0001H 034CH 0009H 001FH
00:12C8 00 01                    3870   	mov	r1,	#00h
00:12CA 00 02                    3871   	mov	r2,	#00h
00:12CC 09-92 00-00'             3872   	st	r2,	NEAR _I2CSendInfo[er0]
                                 3873   CBLOCKEND 141 105 845
                                 3874   
                                 3875   ;;							for(chari = 0; chari < 8; chari++){
                                 3876   CLINEA 0000H 0000H 034BH 0008H 002AH
00:12D0 0C-F0 00-00'             3877   	lea	OFFSET _chari
00:12D4 2F-FE                    3878   	inc	[ea]
00:12D6 10-90 00-00'             3879   	l	r0,	NEAR _chari
                                 3880   
                                 3881   ;;							for(chari = 0; chari < 8; chari++){
                                 3882   CLINEA 0000H 0000H 034BH 001BH 0022H
00:12DA 08 70                    3883   	cmp	r0,	#08h
00:12DC F5 C1                    3884   	blt	_$L379
                                 3885   
                                 3886   ;;							_flgUartFin = 0;
                                 3887   CLINEA 0000H 0001H 0350H 0008H 0017H
00:12DE 00 00                    3888   	mov	r0,	#00h
00:12E0 11-90 00-00'             3889   	st	r0,	NEAR __flgUartFin
                                 3890   
                                 3891   ;;							uart_stop();
                                 3892   CLINEA 0000H 0001H 0351H 0008H 0013H
00:12E4 01-F0'00-00'             3893   	bl	_uart_stop
                                 3894   
                                 3895   ;;							uart_startSend(I2C_TX_REC, 21, _funcUartFin);
                                 3896   CLINEA 0000H 0001H 0352H 0008H 0034H
00:12E8 00'00                    3897   	mov	r0,	#BYTE1 OFFSET __funcUartFin
00:12EA 00'01                    3898   	mov	r1,	#BYTE2 OFFSET __funcUartFin
00:12EC 5E-F0                    3899   	push	er0
00:12EE 15 E2                    3900   	mov	er2,	#21
00:12F0 00'00                    3901   	mov	r0,	#BYTE1 OFFSET _I2C_TX_REC
00:12F2 00'01                    3902   	mov	r1,	#BYTE2 OFFSET _I2C_TX_REC
00:12F4 01-F0'00-00'             3903   	bl	_uart_startSend
00:12F8 02 E1                    3904   	add	sp,	#2 
                                 3905   
                                 3906   ;;							while(_flgUartFin != 1){
                                 3907   CLINEA 0000H 0000H 0353H 0001H 000BH
00:12FA 04 CE                    3908   	bal	_$L499
                                 3909   
                                 3910   ;;							while(_flgUartFin != 1){
                                 3911   CLINEA 0000H 0000H 0353H 0008H 001FH
00:12FC                          3912   _$L385 :
                                 3913   CBLOCK 141 106 851
                                 3914   
                                 3915   ;;								NOP1000();
                                 3916   CLINEA 0000H 0001H 0354H 0009H 0012H
00:12FC 01-F0'00-00'             3917   	bl	_NOP1000
                                 3918   
                                 3919   ;;								main_clrWDT();
                                 3920   CLINEA 0000H 0001H 0355H 0009H 0016H
00:1300 01-F0'00-00'             3921   	bl	_main_clrWDT
                                 3922   CBLOCKEND 141 106 854
                                 3923   
                                 3924   ;;							while(_flgUartFin != 1){
                                 3925   CLINEA 0000H 0000H 0353H 0001H 000BH
00:1304                          3926   _$L499 :
                                 3927   
                                 3928   ;;							while(_flgUartFin != 1){
                                 3929   CLINEA 0000H 0000H 0353H 001BH 0022H
00:1304 10-90 00-00'             3930   	l	r0,	NEAR __flgUartFin
00:1308 01 70                    3931   	cmp	r0,	#01h
00:130A F8 C8                    3932   	bne	_$L385
                                 3933   
                                 3934   ;;							}
                                 3935   CLINEA 0000H 0000H 0356H 0008H 0008H
00:130C                          3936   _$L384 :
                                 3937   CBLOCKEND 141 52 855
                                 3938   CBLOCKEND 141 51 856
                                 3939   CBLOCKEND 141 50 857
                                 3940   CBLOCKEND 141 49 858
                                 3941   CBLOCKEND 141 48 859
                                 3942   
                                 3943   ;;		if(RecWorld[0] == 0x49){			//if RECWORLD == "I2CRX"
                                 3944   CLINEA 0000H 0001H 035EH 0003H 0035H
00:130C 10-90 00-00'             3945   	l	r0,	NEAR _RecWorld
00:1310 49 70                    3946   	cmp	r0,	#049h
00:1312 02 C9                    3947   	beq	_$M130
00:1314 00-F0'00-00'             3948   	b	_$L10
00:1318                          3949   _$M130 :
                                 3950   CBLOCK 141 107 862
                                 3951   
                                 3952   ;;			if(RecWorld[1] == 0x32){
                                 3953   CLINEA 0000H 0001H 035FH 0004H 001BH
00:1318 10-90 00-00'             3954   	l	r0,	NEAR _RecWorld+01h
00:131C 32 70                    3955   	cmp	r0,	#032h
00:131E 02 C9                    3956   	beq	_$M131
00:1320 00-F0'00-00'             3957   	b	_$L10
00:1324                          3958   _$M131 :
                                 3959   CBLOCK 141 108 863
                                 3960   
                                 3961   ;;				if(RecWorld[2] == 0x43){
                                 3962   CLINEA 0000H 0001H 0360H 0005H 001CH
00:1324 10-90 00-00'             3963   	l	r0,	NEAR _RecWorld+02h
00:1328 43 70                    3964   	cmp	r0,	#043h
00:132A 02 C9                    3965   	beq	_$M132
00:132C 00-F0'00-00'             3966   	b	_$L10
00:1330                          3967   _$M132 :
                                 3968   CBLOCK 141 109 864
                                 3969   
                                 3970   ;;					if(RecWorld[3] == 0x52){
                                 3971   CLINEA 0000H 0001H 0361H 0006H 001DH
00:1330 10-90 00-00'             3972   	l	r0,	NEAR _RecWorld+03h
00:1334 52 70                    3973   	cmp	r0,	#052h
00:1336 02 C9                    3974   	beq	_$M133
00:1338 00-F0'00-00'             3975   	b	_$L10
00:133C                          3976   _$M133 :
                                 3977   CBLOCK 141 110 865
                                 3978   
                                 3979   ;;						if(RecWorld[4] == 0x58){
                                 3980   CLINEA 0000H 0001H 0362H 0007H 001EH
00:133C 10-90 00-00'             3981   	l	r0,	NEAR _RecWorld+04h
00:1340 58 70                    3982   	cmp	r0,	#058h
00:1342 02 C9                    3983   	beq	_$M134
00:1344 00-F0'00-00'             3984   	b	_$L10
00:1348                          3985   _$M134 :
                                 3986   CBLOCK 141 111 866
                                 3987   
                                 3988   ;;							_flgUartFin = 0;
                                 3989   CLINEA 0000H 0001H 0365H 0008H 0017H
00:1348 00 00                    3990   	mov	r0,	#00h
00:134A 11-90 00-00'             3991   	st	r0,	NEAR __flgUartFin
                                 3992   
                                 3993   ;;							uart_stop();
                                 3994   CLINEA 0000H 0001H 0366H 0008H 0013H
00:134E 01-F0'00-00'             3995   	bl	_uart_stop
                                 3996   
                                 3997   ;;							uart_startReceive(I2C_BUFF, 46, _funcUartFin);
                                 3998   CLINEA 0000H 0001H 0367H 0008H 0035H
00:1352 00'00                    3999   	mov	r0,	#BYTE1 OFFSET __funcUartFin
00:1354 00'01                    4000   	mov	r1,	#BYTE2 OFFSET __funcUartFin
00:1356 5E-F0                    4001   	push	er0
00:1358 2E E2                    4002   	mov	er2,	#46
00:135A 00'00                    4003   	mov	r0,	#BYTE1 OFFSET _I2C_BUFF
00:135C 00'01                    4004   	mov	r1,	#BYTE2 OFFSET _I2C_BUFF
00:135E 01-F0'00-00'             4005   	bl	_uart_startReceive
00:1362 02 E1                    4006   	add	sp,	#2 
                                 4007   
                                 4008   ;;							while(_flgUartFin != 1){
                                 4009   CLINEA 0000H 0000H 0368H 0001H 000BH
00:1364 04 CE                    4010   	bal	_$L500
                                 4011   
                                 4012   ;;							while(_flgUartFin != 1){
                                 4013   CLINEA 0000H 0000H 0368H 0008H 001FH
00:1366                          4014   _$L399 :
                                 4015   CBLOCK 141 112 872
                                 4016   
                                 4017   ;;								NOP1000();
                                 4018   CLINEA 0000H 0001H 0369H 0009H 0012H
00:1366 01-F0'00-00'             4019   	bl	_NOP1000
                                 4020   
                                 4021   ;;								main_clrWDT();
                                 4022   CLINEA 0000H 0001H 036AH 0009H 0016H
00:136A 01-F0'00-00'             4023   	bl	_main_clrWDT
                                 4024   CBLOCKEND 141 112 875
                                 4025   
                                 4026   ;;							while(_flgUartFin != 1){
                                 4027   CLINEA 0000H 0000H 0368H 0001H 000BH
00:136E                          4028   _$L500 :
                                 4029   
                                 4030   ;;							while(_flgUartFin != 1){
                                 4031   CLINEA 0000H 0000H 0368H 001BH 0022H
00:136E 10-90 00-00'             4032   	l	r0,	NEAR __flgUartFin
00:1372 01 70                    4033   	cmp	r0,	#01h
00:1374 F8 C8                    4034   	bne	_$L399
                                 4035   
                                 4036   ;;							chari = 2;
                                 4037   CLINEA 0000H 0001H 036EH 0008H 0011H
00:1376 02 00                    4038   	mov	r0,	#02h
00:1378 11-90 00-00'             4039   	st	r0,	NEAR _chari
                                 4040   
                                 4041   ;;							charj = 0;
                                 4042   CLINEA 0000H 0001H 036FH 0008H 0011H
00:137C 00 00                    4043   	mov	r0,	#00h
00:137E 11-90 00-00'             4044   	st	r0,	NEAR _charj
                                 4045   
                                 4046   ;;							while(I2C_BUFF[chari]!=0x20){
                                 4047   CLINEA 0000H 0001H 0371H 0008H 0024H
00:1382 10-90 00-00'             4048   	l	r0,	NEAR _I2C_BUFF+02h
00:1386 20 70                    4049   	cmp	r0,	#020h
00:1388 0D C9                    4050   	beq	_$L402
00:138A                          4051   _$L403 :
                                 4052   CBLOCK 141 113 881
                                 4053   
                                 4054   ;;								chari++;
                                 4055   CLINEA 0000H 0000H 0372H 0009H 0010H
00:138A 0C-F0 00-00'             4056   	lea	OFFSET _chari
00:138E 2F-FE                    4057   	inc	[ea]
                                 4058   
                                 4059   ;;								charj++;
                                 4060   CLINEA 0000H 0000H 0373H 0009H 0010H
00:1390 0C-F0 00-00'             4061   	lea	OFFSET _charj
00:1394 2F-FE                    4062   	inc	[ea]
                                 4063   CBLOCKEND 141 113 884
                                 4064   
                                 4065   ;;							while(I2C_BUFF[chari]!=0x20){
                                 4066   CLINEA 0000H 0000H 0371H 001BH 0022H
00:1396 10-90 00-00'             4067   	l	r0,	NEAR _chari
00:139A 00 01                    4068   	mov	r1,	#00h
00:139C 08-90 00-00'             4069   	l	r0,	NEAR _I2C_BUFF[er0]
00:13A0 20 70                    4070   	cmp	r0,	#020h
00:13A2 F3 C8                    4071   	bne	_$L403
                                 4072   
                                 4073   ;;							}
                                 4074   CLINEA 0000H 0000H 0374H 0008H 0008H
00:13A4                          4075   _$L402 :
                                 4076   
                                 4077   ;;							for(chark = charj; chark>0; chark--){
                                 4078   CLINEA 0000H 0001H 0375H 000CH 0019H
00:13A4 10-90 00-00'             4079   	l	r0,	NEAR _charj
                                 4080   
                                 4081   ;;							for(chark = charj; chark>0; chark--){
                                 4082   CLINEA 0000H 0000H 0375H 0001H 000BH
00:13A8 40 CE                    4083   	bal	_$L501
                                 4084   
                                 4085   ;;							for(chark = charj; chark>0; chark--){
                                 4086   CLINEA 0000H 0000H 0375H 0024H 002AH
00:13AA                          4087   _$L407 :
                                 4088   CBLOCK 141 114 885
                                 4089   
                                 4090   ;;								if(chark == 3){I2CAdd_temp = (I2C_BUFF[chari-chark]-0x30)*100;}
                                 4091   CLINEA 0000H 0001H 0376H 0009H 0047H
00:13AA 03 70                    4092   	cmp	r0,	#03h
00:13AC 14 C8                    4093   	bne	_$L411
                                 4094   CBLOCK 141 115 886
00:13AE 10-90 00-00'             4095   	l	r0,	NEAR _chari
00:13B2 00 01                    4096   	mov	r1,	#00h
00:13B4 10-92 00-00'             4097   	l	r2,	NEAR _chark
00:13B8 00 03                    4098   	mov	r3,	#00h
00:13BA 28-80                    4099   	sub	r0,	r2
00:13BC 39-81                    4100   	subc	r1,	r3
00:13BE 08-90 00-00'             4101   	l	r0,	NEAR _I2C_BUFF[er0]
00:13C2 D0 10                    4102   	add	r0,	#0d0h
00:13C4 00-81                    4103   	mov	r1,	r0
00:13C6 1A-91                    4104   	sll	r1,	#01h
00:13C8 01-81                    4105   	add	r1,	r0
00:13CA 3A-91                    4106   	sll	r1,	#03h
00:13CC 01-81                    4107   	add	r1,	r0
00:13CE 2A-91                    4108   	sll	r1,	#02h
00:13D0 11-91 00-00'             4109   	st	r1,	NEAR _I2CAdd_temp
                                 4110   
                                 4111   ;;								else if(chark == 2){I2CAdd_temp = (I2C_BUFF[chari-chark]-0x30)*10;}
                                 4112   CLINEA 0000H 0001H 0377H 0009H 004BH
00:13D4 21 CE                    4113   	bal	_$L416
00:13D6                          4114   _$L411 :
00:13D6 02 70                    4115   	cmp	r0,	#02h
00:13D8 12 C8                    4116   	bne	_$L414
                                 4117   CBLOCK 141 116 887
00:13DA 10-90 00-00'             4118   	l	r0,	NEAR _chari
00:13DE 00 01                    4119   	mov	r1,	#00h
00:13E0 10-92 00-00'             4120   	l	r2,	NEAR _chark
00:13E4 00 03                    4121   	mov	r3,	#00h
00:13E6 28-80                    4122   	sub	r0,	r2
00:13E8 39-81                    4123   	subc	r1,	r3
00:13EA 08-90 00-00'             4124   	l	r0,	NEAR _I2C_BUFF[er0]
00:13EE D0 10                    4125   	add	r0,	#0d0h
00:13F0 00-81                    4126   	mov	r1,	r0
00:13F2 2A-91                    4127   	sll	r1,	#02h
00:13F4 01-81                    4128   	add	r1,	r0
00:13F6 1A-91                    4129   	sll	r1,	#01h
00:13F8 11-91 00-00'             4130   	st	r1,	NEAR _I2CAdd_temp
                                 4131   CBLOCKEND 141 116 887
                                 4132   
                                 4133   ;;								else {I2CAdd_temp = (I2C_BUFF[chari-chark]-0x30);}
                                 4134   CLINEA 0000H 0001H 0378H 0009H 003AH
00:13FC 0D CE                    4135   	bal	_$L416
00:13FE                          4136   _$L414 :
                                 4137   CBLOCK 141 117 888
00:13FE 10-90 00-00'             4138   	l	r0,	NEAR _chari
00:1402 00 01                    4139   	mov	r1,	#00h
00:1404 10-92 00-00'             4140   	l	r2,	NEAR _chark
00:1408 00 03                    4141   	mov	r3,	#00h
00:140A 28-80                    4142   	sub	r0,	r2
00:140C 39-81                    4143   	subc	r1,	r3
00:140E 08-90 00-00'             4144   	l	r0,	NEAR _I2C_BUFF[er0]
00:1412 D0 10                    4145   	add	r0,	#0d0h
00:1414 11-90 00-00'             4146   	st	r0,	NEAR _I2CAdd_temp
                                 4147   CBLOCKEND 141 117 888
00:1418                          4148   _$L416 :
                                 4149   
                                 4150   ;;								I2CAdd += I2CAdd_temp;
                                 4151   CLINEA 0000H 0001H 0379H 0009H 001EH
00:1418 10-90 00-00'             4152   	l	r0,	NEAR _I2CAdd
00:141C 10-91 00-00'             4153   	l	r1,	NEAR _I2CAdd_temp
00:1420 11-80                    4154   	add	r0,	r1
00:1422 11-90 00-00'             4155   	st	r0,	NEAR _I2CAdd
                                 4156   CBLOCKEND 141 114 890
                                 4157   CBLOCKEND 141 115 973
                                 4158   
                                 4159   ;;							for(chark = charj; chark>0; chark--){
                                 4160   CLINEA 0000H 0000H 0375H 0024H 002AH
00:1426 20-80                    4161   	mov	r0,	r2
00:1428 FF 10                    4162   	add	r0,	#0ffh
                                 4163   
                                 4164   ;;							for(chark = charj; chark>0; chark--){
                                 4165   CLINEA 0000H 0000H 0375H 0001H 000BH
00:142A                          4166   _$L501 :
00:142A 11-90 00-00'             4167   	st	r0,	NEAR _chark
                                 4168   
                                 4169   ;;							for(chark = charj; chark>0; chark--){
                                 4170   CLINEA 0000H 0000H 0375H 001BH 0022H
00:142E 00 70                    4171   	cmp	r0,	#00h
00:1430 02 C3                    4172   	ble	_$M135
00:1432 00-F0'00-00'             4173   	b	_$L407
00:1436                          4174   _$M135 :
                                 4175   
                                 4176   ;;							chari++;
                                 4177   CLINEA 0000H 0000H 037BH 0008H 000FH
00:1436 0C-F0 00-00'             4178   	lea	OFFSET _chari
00:143A 2F-FE                    4179   	inc	[ea]
                                 4180   
                                 4181   ;;							charj = 0;
                                 4182   CLINEA 0000H 0001H 037CH 0008H 0011H
00:143C 00 00                    4183   	mov	r0,	#00h
                                 4184   
                                 4185   ;;							while(I2C_BUFF[chari]!=0x20){
                                 4186   CLINEA 0000H 0000H 037DH 0001H 000BH
00:143E 06 CE                    4187   	bal	_$L502
                                 4188   
                                 4189   ;;							while(I2C_BUFF[chari]!=0x20){
                                 4190   CLINEA 0000H 0000H 037DH 0008H 0024H
00:1440                          4191   _$L419 :
                                 4192   CBLOCK 141 118 893
                                 4193   
                                 4194   ;;								chari++;
                                 4195   CLINEA 0000H 0000H 037EH 0009H 0010H
00:1440 0C-F0 00-00'             4196   	lea	OFFSET _chari
00:1444 2F-FE                    4197   	inc	[ea]
                                 4198   
                                 4199   ;;								charj++;
                                 4200   CLINEA 0000H 0000H 037FH 0009H 0010H
00:1446 10-90 00-00'             4201   	l	r0,	NEAR _charj
00:144A 01 10                    4202   	add	r0,	#01h
                                 4203   CBLOCKEND 141 118 896
                                 4204   
                                 4205   ;;							while(I2C_BUFF[chari]!=0x20){
                                 4206   CLINEA 0000H 0000H 037DH 0001H 000BH
00:144C                          4207   _$L502 :
00:144C 11-90 00-00'             4208   	st	r0,	NEAR _charj
                                 4209   
                                 4210   ;;							while(I2C_BUFF[chari]!=0x20){
                                 4211   CLINEA 0000H 0000H 037DH 001BH 0022H
00:1450 10-90 00-00'             4212   	l	r0,	NEAR _chari
00:1454 00 01                    4213   	mov	r1,	#00h
00:1456 08-90 00-00'             4214   	l	r0,	NEAR _I2C_BUFF[er0]
00:145A 20 70                    4215   	cmp	r0,	#020h
00:145C F1 C8                    4216   	bne	_$L419
                                 4217   
                                 4218   ;;							for(chark = charj; chark>0; chark--){
                                 4219   CLINEA 0000H 0001H 0381H 000CH 0019H
00:145E 10-90 00-00'             4220   	l	r0,	NEAR _charj
                                 4221   
                                 4222   ;;							for(chark = charj; chark>0; chark--){
                                 4223   CLINEA 0000H 0000H 0381H 0001H 000BH
00:1462 40 CE                    4224   	bal	_$L503
                                 4225   
                                 4226   ;;							for(chark = charj; chark>0; chark--){
                                 4227   CLINEA 0000H 0000H 0381H 0024H 002AH
00:1464                          4228   _$L423 :
                                 4229   CBLOCK 141 119 897
                                 4230   
                                 4231   ;;								if(chark == 3){I2CNumBytes_temp = (I2C_BUFF[chari-chark]-0x30)*100;}
                                 4232   CLINEA 0000H 0001H 0382H 0009H 004CH
00:1464 03 70                    4233   	cmp	r0,	#03h
00:1466 14 C8                    4234   	bne	_$L427
                                 4235   CBLOCK 141 120 898
00:1468 10-90 00-00'             4236   	l	r0,	NEAR _chari
00:146C 00 01                    4237   	mov	r1,	#00h
00:146E 10-92 00-00'             4238   	l	r2,	NEAR _chark
00:1472 00 03                    4239   	mov	r3,	#00h
00:1474 28-80                    4240   	sub	r0,	r2
00:1476 39-81                    4241   	subc	r1,	r3
00:1478 08-90 00-00'             4242   	l	r0,	NEAR _I2C_BUFF[er0]
00:147C D0 10                    4243   	add	r0,	#0d0h
00:147E 00-81                    4244   	mov	r1,	r0
00:1480 1A-91                    4245   	sll	r1,	#01h
00:1482 01-81                    4246   	add	r1,	r0
00:1484 3A-91                    4247   	sll	r1,	#03h
00:1486 01-81                    4248   	add	r1,	r0
00:1488 2A-91                    4249   	sll	r1,	#02h
00:148A 11-91 00-00'             4250   	st	r1,	NEAR _I2CNumBytes_temp
                                 4251   
                                 4252   ;;								else if(chark == 2){I2CNumBytes_temp = (I2C_BUFF[chari-chark]-0x30)*10;}
                                 4253   CLINEA 0000H 0001H 0383H 0009H 0050H
00:148E 21 CE                    4254   	bal	_$L432
00:1490                          4255   _$L427 :
00:1490 02 70                    4256   	cmp	r0,	#02h
00:1492 12 C8                    4257   	bne	_$L430
                                 4258   CBLOCK 141 121 899
00:1494 10-90 00-00'             4259   	l	r0,	NEAR _chari
00:1498 00 01                    4260   	mov	r1,	#00h
00:149A 10-92 00-00'             4261   	l	r2,	NEAR _chark
00:149E 00 03                    4262   	mov	r3,	#00h
00:14A0 28-80                    4263   	sub	r0,	r2
00:14A2 39-81                    4264   	subc	r1,	r3
00:14A4 08-90 00-00'             4265   	l	r0,	NEAR _I2C_BUFF[er0]
00:14A8 D0 10                    4266   	add	r0,	#0d0h
00:14AA 00-81                    4267   	mov	r1,	r0
00:14AC 2A-91                    4268   	sll	r1,	#02h
00:14AE 01-81                    4269   	add	r1,	r0
00:14B0 1A-91                    4270   	sll	r1,	#01h
00:14B2 11-91 00-00'             4271   	st	r1,	NEAR _I2CNumBytes_temp
                                 4272   CBLOCKEND 141 121 899
                                 4273   
                                 4274   ;;								else {I2CNumBytes_temp = (I2C_BUFF[chari-chark]-0x30);}
                                 4275   CLINEA 0000H 0001H 0384H 0009H 003FH
00:14B6 0D CE                    4276   	bal	_$L432
00:14B8                          4277   _$L430 :
                                 4278   CBLOCK 141 122 900
00:14B8 10-90 00-00'             4279   	l	r0,	NEAR _chari
00:14BC 00 01                    4280   	mov	r1,	#00h
00:14BE 10-92 00-00'             4281   	l	r2,	NEAR _chark
00:14C2 00 03                    4282   	mov	r3,	#00h
00:14C4 28-80                    4283   	sub	r0,	r2
00:14C6 39-81                    4284   	subc	r1,	r3
00:14C8 08-90 00-00'             4285   	l	r0,	NEAR _I2C_BUFF[er0]
00:14CC D0 10                    4286   	add	r0,	#0d0h
00:14CE 11-90 00-00'             4287   	st	r0,	NEAR _I2CNumBytes_temp
                                 4288   CBLOCKEND 141 122 900
00:14D2                          4289   _$L432 :
                                 4290   
                                 4291   ;;								I2CNumBytes += I2CNumBytes_temp;
                                 4292   CLINEA 0000H 0001H 0385H 0009H 0028H
00:14D2 10-90 00-00'             4293   	l	r0,	NEAR _I2CNumBytes
00:14D6 10-91 00-00'             4294   	l	r1,	NEAR _I2CNumBytes_temp
00:14DA 11-80                    4295   	add	r0,	r1
00:14DC 11-90 00-00'             4296   	st	r0,	NEAR _I2CNumBytes
                                 4297   CBLOCKEND 141 119 902
                                 4298   CBLOCKEND 141 120 973
                                 4299   
                                 4300   ;;							for(chark = charj; chark>0; chark--){
                                 4301   CLINEA 0000H 0000H 0381H 0024H 002AH
00:14E0 20-80                    4302   	mov	r0,	r2
00:14E2 FF 10                    4303   	add	r0,	#0ffh
                                 4304   
                                 4305   ;;							for(chark = charj; chark>0; chark--){
                                 4306   CLINEA 0000H 0000H 0381H 0001H 000BH
00:14E4                          4307   _$L503 :
00:14E4 11-90 00-00'             4308   	st	r0,	NEAR _chark
                                 4309   
                                 4310   ;;							for(chark = charj; chark>0; chark--){
                                 4311   CLINEA 0000H 0000H 0381H 001BH 0022H
00:14E8 00 70                    4312   	cmp	r0,	#00h
00:14EA 02 C3                    4313   	ble	_$M136
00:14EC 00-F0'00-00'             4314   	b	_$L423
00:14F0                          4315   _$M136 :
                                 4316   
                                 4317   ;;							chari++;
                                 4318   CLINEA 0000H 0000H 0387H 0008H 000FH
00:14F0 0C-F0 00-00'             4319   	lea	OFFSET _chari
00:14F4 2F-FE                    4320   	inc	[ea]
                                 4321   
                                 4322   ;;							charj = 0;
                                 4323   CLINEA 0000H 0001H 0388H 0008H 0011H
00:14F6 00 00                    4324   	mov	r0,	#00h
                                 4325   
                                 4326   ;;							while(I2C_BUFF[chari]!=0x20){
                                 4327   CLINEA 0000H 0000H 038AH 0001H 000BH
00:14F8 06 CE                    4328   	bal	_$L504
                                 4329   
                                 4330   ;;							while(I2C_BUFF[chari]!=0x20){
                                 4331   CLINEA 0000H 0000H 038AH 0008H 0024H
00:14FA                          4332   _$L435 :
                                 4333   CBLOCK 141 123 906
                                 4334   
                                 4335   ;;								chari++;
                                 4336   CLINEA 0000H 0000H 038BH 0009H 0010H
00:14FA 0C-F0 00-00'             4337   	lea	OFFSET _chari
00:14FE 2F-FE                    4338   	inc	[ea]
                                 4339   
                                 4340   ;;								charj++;
                                 4341   CLINEA 0000H 0000H 038CH 0009H 0010H
00:1500 10-90 00-00'             4342   	l	r0,	NEAR _charj
00:1504 01 10                    4343   	add	r0,	#01h
                                 4344   CBLOCKEND 141 123 909
                                 4345   
                                 4346   ;;							while(I2C_BUFF[chari]!=0x20){
                                 4347   CLINEA 0000H 0000H 038AH 0001H 000BH
00:1506                          4348   _$L504 :
00:1506 11-90 00-00'             4349   	st	r0,	NEAR _charj
                                 4350   
                                 4351   ;;							while(I2C_BUFF[chari]!=0x20){
                                 4352   CLINEA 0000H 0000H 038AH 001BH 0022H
00:150A 10-90 00-00'             4353   	l	r0,	NEAR _chari
00:150E 00 01                    4354   	mov	r1,	#00h
00:1510 08-90 00-00'             4355   	l	r0,	NEAR _I2C_BUFF[er0]
00:1514 20 70                    4356   	cmp	r0,	#020h
00:1516 F1 C8                    4357   	bne	_$L435
                                 4358   
                                 4359   ;;							for(chark = charj; chark>0; chark--){
                                 4360   CLINEA 0000H 0001H 038EH 000CH 0019H
00:1518 10-90 00-00'             4361   	l	r0,	NEAR _charj
                                 4362   
                                 4363   ;;							for(chark = charj; chark>0; chark--){
                                 4364   CLINEA 0000H 0000H 038EH 0001H 000BH
00:151C 40 CE                    4365   	bal	_$L505
                                 4366   
                                 4367   ;;							for(chark = charj; chark>0; chark--){
                                 4368   CLINEA 0000H 0000H 038EH 0024H 002AH
00:151E                          4369   _$L439 :
                                 4370   CBLOCK 141 124 910
                                 4371   
                                 4372   ;;								if(chark == 3){RegAddr_temp = (I2C_BUFF[chari-chark]-0x30)*100;}
                                 4373   CLINEA 0000H 0001H 038FH 0009H 0048H
00:151E 03 70                    4374   	cmp	r0,	#03h
00:1520 14 C8                    4375   	bne	_$L443
                                 4376   CBLOCK 141 125 911
00:1522 10-90 00-00'             4377   	l	r0,	NEAR _chari
00:1526 00 01                    4378   	mov	r1,	#00h
00:1528 10-92 00-00'             4379   	l	r2,	NEAR _chark
00:152C 00 03                    4380   	mov	r3,	#00h
00:152E 28-80                    4381   	sub	r0,	r2
00:1530 39-81                    4382   	subc	r1,	r3
00:1532 08-90 00-00'             4383   	l	r0,	NEAR _I2C_BUFF[er0]
00:1536 D0 10                    4384   	add	r0,	#0d0h
00:1538 00-81                    4385   	mov	r1,	r0
00:153A 1A-91                    4386   	sll	r1,	#01h
00:153C 01-81                    4387   	add	r1,	r0
00:153E 3A-91                    4388   	sll	r1,	#03h
00:1540 01-81                    4389   	add	r1,	r0
00:1542 2A-91                    4390   	sll	r1,	#02h
00:1544 11-91 00-00'             4391   	st	r1,	NEAR _RegAddr_temp
                                 4392   
                                 4393   ;;								else if(chark == 2){RegAddr_temp = (I2C_BUFF[chari-chark]-0x30)*10;}
                                 4394   CLINEA 0000H 0001H 0390H 0009H 004CH
00:1548 21 CE                    4395   	bal	_$L448
00:154A                          4396   _$L443 :
00:154A 02 70                    4397   	cmp	r0,	#02h
00:154C 12 C8                    4398   	bne	_$L446
                                 4399   CBLOCK 141 126 912
00:154E 10-90 00-00'             4400   	l	r0,	NEAR _chari
00:1552 00 01                    4401   	mov	r1,	#00h
00:1554 10-92 00-00'             4402   	l	r2,	NEAR _chark
00:1558 00 03                    4403   	mov	r3,	#00h
00:155A 28-80                    4404   	sub	r0,	r2
00:155C 39-81                    4405   	subc	r1,	r3
00:155E 08-90 00-00'             4406   	l	r0,	NEAR _I2C_BUFF[er0]
00:1562 D0 10                    4407   	add	r0,	#0d0h
00:1564 00-81                    4408   	mov	r1,	r0
00:1566 2A-91                    4409   	sll	r1,	#02h
00:1568 01-81                    4410   	add	r1,	r0
00:156A 1A-91                    4411   	sll	r1,	#01h
00:156C 11-91 00-00'             4412   	st	r1,	NEAR _RegAddr_temp
                                 4413   CBLOCKEND 141 126 912
                                 4414   
                                 4415   ;;								else {RegAddr_temp = (I2C_BUFF[chari-chark]-0x30);}
                                 4416   CLINEA 0000H 0001H 0391H 0009H 003BH
00:1570 0D CE                    4417   	bal	_$L448
00:1572                          4418   _$L446 :
                                 4419   CBLOCK 141 127 913
00:1572 10-90 00-00'             4420   	l	r0,	NEAR _chari
00:1576 00 01                    4421   	mov	r1,	#00h
00:1578 10-92 00-00'             4422   	l	r2,	NEAR _chark
00:157C 00 03                    4423   	mov	r3,	#00h
00:157E 28-80                    4424   	sub	r0,	r2
00:1580 39-81                    4425   	subc	r1,	r3
00:1582 08-90 00-00'             4426   	l	r0,	NEAR _I2C_BUFF[er0]
00:1586 D0 10                    4427   	add	r0,	#0d0h
00:1588 11-90 00-00'             4428   	st	r0,	NEAR _RegAddr_temp
                                 4429   CBLOCKEND 141 127 913
00:158C                          4430   _$L448 :
                                 4431   
                                 4432   ;;								RegAddr += RegAddr_temp;
                                 4433   CLINEA 0000H 0001H 0392H 0009H 0020H
00:158C 10-90 00-00'             4434   	l	r0,	NEAR _RegAddr
00:1590 10-91 00-00'             4435   	l	r1,	NEAR _RegAddr_temp
00:1594 11-80                    4436   	add	r0,	r1
00:1596 11-90 00-00'             4437   	st	r0,	NEAR _RegAddr
                                 4438   CBLOCKEND 141 124 915
                                 4439   CBLOCKEND 141 125 973
                                 4440   
                                 4441   ;;							for(chark = charj; chark>0; chark--){
                                 4442   CLINEA 0000H 0000H 038EH 0024H 002AH
00:159A 20-80                    4443   	mov	r0,	r2
00:159C FF 10                    4444   	add	r0,	#0ffh
                                 4445   
                                 4446   ;;							for(chark = charj; chark>0; chark--){
                                 4447   CLINEA 0000H 0000H 038EH 0001H 000BH
00:159E                          4448   _$L505 :
00:159E 11-90 00-00'             4449   	st	r0,	NEAR _chark
                                 4450   
                                 4451   ;;							for(chark = charj; chark>0; chark--){
                                 4452   CLINEA 0000H 0000H 038EH 001BH 0022H
00:15A2 00 70                    4453   	cmp	r0,	#00h
00:15A4 02 C3                    4454   	ble	_$M137
00:15A6 00-F0'00-00'             4455   	b	_$L439
00:15AA                          4456   _$M137 :
                                 4457   
                                 4458   ;;							chari++;
                                 4459   CLINEA 0000H 0000H 0394H 0008H 000FH
00:15AA 0C-F0 00-00'             4460   	lea	OFFSET _chari
00:15AE 2F-FE                    4461   	inc	[ea]
                                 4462   
                                 4463   ;;							charj = 0;
                                 4464   CLINEA 0000H 0001H 0395H 0008H 0011H
00:15B0 00 00                    4465   	mov	r0,	#00h
00:15B2 11-90 00-00'             4466   	st	r0,	NEAR _charj
                                 4467   
                                 4468   ;;							_flgI2CFin = 0;																	//reset I2C completed Flag
                                 4469   CLINEA 0000H 0001H 0398H 0008H 0041H
00:15B6 11-90 00-00'             4470   	st	r0,	NEAR __flgI2CFin
                                 4471   
                                 4472   ;;							i2c_stop();																		//Make sure I2C is not currently running
                                 4473   CLINEA 0000H 0001H 0399H 0008H 004CH
00:15BA 01-F0'00-00'             4474   	bl	_i2c_stop
                                 4475   
                                 4476   ;;							i2c_startReceive(I2CAdd, &RegAddr, 1, &I2CReceInfo, I2CNumBytes, (cbfI2c)_funcI2CFin);	//Begin I2C Recieve Command
                                 4477   CLINEA 0000H 0001H 039AH 0008H 0079H
00:15BE 00'00                    4478   	mov	r0,	#BYTE1 OFFSET __funcI2CFin
00:15C0 00'01                    4479   	mov	r1,	#BYTE2 OFFSET __funcI2CFin
00:15C2 5E-F0                    4480   	push	er0
00:15C4 10-90 00-00'             4481   	l	r0,	NEAR _I2CNumBytes
00:15C8 00 01                    4482   	mov	r1,	#00h
00:15CA 5E-F0                    4483   	push	er0
00:15CC 00'00                    4484   	mov	r0,	#BYTE1 OFFSET _I2CReceInfo
00:15CE 00'01                    4485   	mov	r1,	#BYTE2 OFFSET _I2CReceInfo
00:15D0 5E-F0                    4486   	push	er0
00:15D2 01 E0                    4487   	mov	er0,	#1 
00:15D4 5E-F0                    4488   	push	er0
00:15D6 00'02                    4489   	mov	r2,	#BYTE1 OFFSET _RegAddr
00:15D8 00'03                    4490   	mov	r3,	#BYTE2 OFFSET _RegAddr
00:15DA 10-90 00-00'             4491   	l	r0,	NEAR _I2CAdd
00:15DE 01-F0'00-00'             4492   	bl	_i2c_startReceive
00:15E2 08 E1                    4493   	add	sp,	#8 
                                 4494   
                                 4495   ;;							while(_flgI2CFin != 1){															//Wait for I2C commands to finish transfer
                                 4496   CLINEA 0000H 0000H 039BH 0001H 000BH
00:15E4 04 CE                    4497   	bal	_$L506
                                 4498   
                                 4499   ;;							while(_flgI2CFin != 1){															//Wait for I2C commands to finish transfer
                                 4500   CLINEA 0000H 0000H 039BH 0008H 0057H
00:15E6                          4501   _$L451 :
                                 4502   CBLOCK 141 128 923
                                 4503   
                                 4504   ;;								NOP1000();
                                 4505   CLINEA 0000H 0001H 039CH 0009H 0012H
00:15E6 01-F0'00-00'             4506   	bl	_NOP1000
                                 4507   
                                 4508   ;;								main_clrWDT();
                                 4509   CLINEA 0000H 0001H 039DH 0009H 0016H
00:15EA 01-F0'00-00'             4510   	bl	_main_clrWDT
                                 4511   CBLOCKEND 141 128 926
                                 4512   
                                 4513   ;;							while(_flgI2CFin != 1){															//Wait for I2C commands to finish transfer
                                 4514   CLINEA 0000H 0000H 039BH 0001H 000BH
00:15EE                          4515   _$L506 :
                                 4516   
                                 4517   ;;							while(_flgI2CFin != 1){															//Wait for I2C commands to finish transfer
                                 4518   CLINEA 0000H 0000H 039BH 001BH 0022H
00:15EE 10-90 00-00'             4519   	l	r0,	NEAR __flgI2CFin
00:15F2 01 70                    4520   	cmp	r0,	#01h
00:15F4 F8 C8                    4521   	bne	_$L451
                                 4522   
                                 4523   ;;							I2C_RX_Data[6] = I2CReceInfo[0];
                                 4524   CLINEA 0000H 0001H 03A4H 0008H 0027H
00:15F6 10-90 00-00'             4525   	l	r0,	NEAR _I2CReceInfo
00:15FA 11-90 00-00'             4526   	st	r0,	NEAR _I2C_RX_Data+06h
                                 4527   
                                 4528   ;;							I2C_RX_Data[8] = I2CReceInfo[1];
                                 4529   CLINEA 0000H 0001H 03A5H 0008H 0027H
00:15FE 10-90 00-00'             4530   	l	r0,	NEAR _I2CReceInfo+01h
00:1602 11-90 00-00'             4531   	st	r0,	NEAR _I2C_RX_Data+08h
                                 4532   
                                 4533   ;;							I2C_RX_Data[10] = I2CReceInfo[2];
                                 4534   CLINEA 0000H 0001H 03A6H 0008H 0028H
00:1606 10-90 00-00'             4535   	l	r0,	NEAR _I2CReceInfo+02h
00:160A 11-90 00-00'             4536   	st	r0,	NEAR _I2C_RX_Data+0ah
                                 4537   
                                 4538   ;;							I2C_RX_Data[12] = I2CReceInfo[3];
                                 4539   CLINEA 0000H 0001H 03A7H 0008H 0028H
00:160E 10-90 00-00'             4540   	l	r0,	NEAR _I2CReceInfo+03h
00:1612 11-90 00-00'             4541   	st	r0,	NEAR _I2C_RX_Data+0ch
                                 4542   
                                 4543   ;;							I2C_RX_Data[14] = I2CReceInfo[4];
                                 4544   CLINEA 0000H 0001H 03A8H 0008H 0028H
00:1616 10-90 00-00'             4545   	l	r0,	NEAR _I2CReceInfo+04h
00:161A 11-90 00-00'             4546   	st	r0,	NEAR _I2C_RX_Data+0eh
                                 4547   
                                 4548   ;;							I2C_RX_Data[16] = I2CReceInfo[5];
                                 4549   CLINEA 0000H 0001H 03A9H 0008H 0028H
00:161E 10-90 00-00'             4550   	l	r0,	NEAR _I2CReceInfo+05h
00:1622 11-90 00-00'             4551   	st	r0,	NEAR _I2C_RX_Data+010h
                                 4552   
                                 4553   ;;							I2C_RX_Data[18] = I2CReceInfo[6];
                                 4554   CLINEA 0000H 0001H 03AAH 0008H 0028H
00:1626 10-90 00-00'             4555   	l	r0,	NEAR _I2CReceInfo+06h
00:162A 11-90 00-00'             4556   	st	r0,	NEAR _I2C_RX_Data+012h
                                 4557   
                                 4558   ;;							I2C_RX_Data[20] = I2CReceInfo[7];
                                 4559   CLINEA 0000H 0001H 03ABH 0008H 0028H
00:162E 10-90 00-00'             4560   	l	r0,	NEAR _I2CReceInfo+07h
00:1632 11-90 00-00'             4561   	st	r0,	NEAR _I2C_RX_Data+014h
                                 4562   
                                 4563   ;;							_flgUartFin = 0;
                                 4564   CLINEA 0000H 0001H 03ADH 0008H 0017H
00:1636 00 00                    4565   	mov	r0,	#00h
00:1638 11-90 00-00'             4566   	st	r0,	NEAR __flgUartFin
                                 4567   
                                 4568   ;;							uart_stop();
                                 4569   CLINEA 0000H 0001H 03AEH 0008H 0013H
00:163C 01-F0'00-00'             4570   	bl	_uart_stop
                                 4571   
                                 4572   ;;							uart_startSend(I2C_RX_Data, 23, _funcUartFin);
                                 4573   CLINEA 0000H 0001H 03AFH 0008H 0035H
00:1640 00'00                    4574   	mov	r0,	#BYTE1 OFFSET __funcUartFin
00:1642 00'01                    4575   	mov	r1,	#BYTE2 OFFSET __funcUartFin
00:1644 5E-F0                    4576   	push	er0
00:1646 17 E2                    4577   	mov	er2,	#23
00:1648 00'00                    4578   	mov	r0,	#BYTE1 OFFSET _I2C_RX_Data
00:164A 00'01                    4579   	mov	r1,	#BYTE2 OFFSET _I2C_RX_Data
00:164C 01-F0'00-00'             4580   	bl	_uart_startSend
00:1650 02 E1                    4581   	add	sp,	#2 
                                 4582   
                                 4583   ;;							while(_flgUartFin != 1){
                                 4584   CLINEA 0000H 0000H 03B0H 0001H 000BH
00:1652 04 CE                    4585   	bal	_$L507
                                 4586   
                                 4587   ;;							while(_flgUartFin != 1){
                                 4588   CLINEA 0000H 0000H 03B0H 0008H 001FH
00:1654                          4589   _$L455 :
                                 4590   CBLOCK 141 129 944
                                 4591   
                                 4592   ;;								NOP1000();
                                 4593   CLINEA 0000H 0001H 03B1H 0009H 0012H
00:1654 01-F0'00-00'             4594   	bl	_NOP1000
                                 4595   
                                 4596   ;;								main_clrWDT();
                                 4597   CLINEA 0000H 0001H 03B2H 0009H 0016H
00:1658 01-F0'00-00'             4598   	bl	_main_clrWDT
                                 4599   CBLOCKEND 141 129 947
                                 4600   
                                 4601   ;;							while(_flgUartFin != 1){
                                 4602   CLINEA 0000H 0000H 03B0H 0001H 000BH
00:165C                          4603   _$L507 :
                                 4604   
                                 4605   ;;							while(_flgUartFin != 1){
                                 4606   CLINEA 0000H 0000H 03B0H 001BH 0022H
00:165C 10-90 00-00'             4607   	l	r0,	NEAR __flgUartFin
00:1660 01 70                    4608   	cmp	r0,	#01h
00:1662 F8 C8                    4609   	bne	_$L455
                                 4610   
                                 4611   ;;							I2CAdd = 0;
                                 4612   CLINEA 0000H 0001H 03B6H 0008H 0012H
00:1664 00 00                    4613   	mov	r0,	#00h
00:1666 11-90 00-00'             4614   	st	r0,	NEAR _I2CAdd
                                 4615   
                                 4616   ;;							I2CNumBytes = 0;
                                 4617   CLINEA 0000H 0001H 03B7H 0008H 0017H
00:166A 11-90 00-00'             4618   	st	r0,	NEAR _I2CNumBytes
                                 4619   
                                 4620   ;;							RegAddr = 0;
                                 4621   CLINEA 0000H 0001H 03B8H 0008H 0013H
00:166E 11-90 00-00'             4622   	st	r0,	NEAR _RegAddr
                                 4623   
                                 4624   ;;							chari = 0;
                                 4625   CLINEA 0000H 0001H 03B9H 0008H 0011H
00:1672 11-90 00-00'             4626   	st	r0,	NEAR _chari
                                 4627   
                                 4628   ;;							for(chari = 0; chari < 8; chari++){
                                 4629   CLINEA 0000H 0000H 03BAH 0008H 002AH
00:1676                          4630   _$L459 :
                                 4631   CBLOCK 141 130 954
                                 4632   
                                 4633   ;;								I2CReceInfo[chari] = 0;
                                 4634   CLINEA 0000H 0001H 03BBH 0009H 001FH
00:1676 00 01                    4635   	mov	r1,	#00h
00:1678 00 02                    4636   	mov	r2,	#00h
00:167A 09-92 00-00'             4637   	st	r2,	NEAR _I2CReceInfo[er0]
                                 4638   CBLOCKEND 141 130 956
                                 4639   
                                 4640   ;;							for(chari = 0; chari < 8; chari++){
                                 4641   CLINEA 0000H 0000H 03BAH 0008H 002AH
00:167E 0C-F0 00-00'             4642   	lea	OFFSET _chari
00:1682 2F-FE                    4643   	inc	[ea]
00:1684 10-90 00-00'             4644   	l	r0,	NEAR _chari
                                 4645   
                                 4646   ;;							for(chari = 0; chari < 8; chari++){
                                 4647   CLINEA 0000H 0000H 03BAH 001BH 0022H
00:1688 08 70                    4648   	cmp	r0,	#08h
00:168A F5 C1                    4649   	blt	_$L459
                                 4650   
                                 4651   ;;							_flgUartFin = 0;
                                 4652   CLINEA 0000H 0001H 03BFH 0008H 0017H
00:168C 00 00                    4653   	mov	r0,	#00h
00:168E 11-90 00-00'             4654   	st	r0,	NEAR __flgUartFin
                                 4655   
                                 4656   ;;							uart_stop();
                                 4657   CLINEA 0000H 0001H 03C0H 0008H 0013H
00:1692 01-F0'00-00'             4658   	bl	_uart_stop
                                 4659   
                                 4660   ;;							uart_startSend(I2C_RX_REC, 21, _funcUartFin);
                                 4661   CLINEA 0000H 0001H 03C1H 0008H 0034H
00:1696 00'00                    4662   	mov	r0,	#BYTE1 OFFSET __funcUartFin
00:1698 00'01                    4663   	mov	r1,	#BYTE2 OFFSET __funcUartFin
00:169A 5E-F0                    4664   	push	er0
00:169C 15 E2                    4665   	mov	er2,	#21
00:169E 00'00                    4666   	mov	r0,	#BYTE1 OFFSET _I2C_RX_REC
00:16A0 00'01                    4667   	mov	r1,	#BYTE2 OFFSET _I2C_RX_REC
00:16A2 01-F0'00-00'             4668   	bl	_uart_startSend
00:16A6 02 E1                    4669   	add	sp,	#2 
                                 4670   
                                 4671   ;;							while(_flgUartFin != 1){
                                 4672   CLINEA 0000H 0000H 03C2H 0001H 000BH
00:16A8 04 CE                    4673   	bal	_$L508
                                 4674   
                                 4675   ;;							while(_flgUartFin != 1){
                                 4676   CLINEA 0000H 0000H 03C2H 0008H 001FH
00:16AA                          4677   _$L465 :
                                 4678   CBLOCK 141 131 962
                                 4679   
                                 4680   ;;								NOP1000();
                                 4681   CLINEA 0000H 0001H 03C3H 0009H 0012H
00:16AA 01-F0'00-00'             4682   	bl	_NOP1000
                                 4683   
                                 4684   ;;								main_clrWDT();
                                 4685   CLINEA 0000H 0001H 03C4H 0009H 0016H
00:16AE 01-F0'00-00'             4686   	bl	_main_clrWDT
                                 4687   CBLOCKEND 141 131 965
                                 4688   
                                 4689   ;;							while(_flgUartFin != 1){
                                 4690   CLINEA 0000H 0000H 03C2H 0001H 000BH
00:16B2                          4691   _$L508 :
                                 4692   
                                 4693   ;;							while(_flgUartFin != 1){
                                 4694   CLINEA 0000H 0000H 03C2H 001BH 0022H
00:16B2 10-90 00-00'             4695   	l	r0,	NEAR __flgUartFin
00:16B6 01 70                    4696   	cmp	r0,	#01h
00:16B8 F8 C8                    4697   	bne	_$L465
                                 4698   
                                 4699   ;;							}
                                 4700   CLINEA 0000H 0000H 03C5H 0008H 0008H
                                 4701   CBLOCKEND 141 111 966
                                 4702   CBLOCKEND 141 110 967
                                 4703   CBLOCKEND 141 109 968
                                 4704   CBLOCKEND 141 108 969
                                 4705   CBLOCKEND 141 107 970
                                 4706   
                                 4707   ;;		goto RX_Loop;
                                 4708   CLINEA 0000H 0001H 03CBH 0003H 000FH
00:16BA 00-F0'00-00'             4709   	b	_$L10
                                 4710   CBLOCKEND 141 2 973
                                 4711   
                                 4712   ;;}//end main
                                 4713   CLINEA 0000H 0001H 03CDH 0001H 000BH
                                 4714   CBLOCKEND 141 1 973
                                 4715   CFUNCTIONEND 141
                                 4716   
                                 4717   
  --------------------------     4718   	rseg $$main_clrWDT$main
                                 4719   CFUNCTION 124
                                 4720   
00:0000                          4721   _main_clrWDT	:
                                 4722   CBLOCK 124 1 999
                                 4723   
                                 4724   ;;{
                                 4725   CLINEA 0000H 0001H 03E7H 0001H 0001H
                                 4726   CBLOCK 124 2 999
                                 4727   
                                 4728   ;;	do {
                                 4729   CLINEA 0000H 0001H 03EAH 0002H 0005H
00:0000                          4730   _$L512 :
                                 4731   CBLOCK 124 3 1002
                                 4732   
                                 4733   ;;		WDTCON = 0x5Au;
                                 4734   CLINEA 0000H 0001H 03EBH 0003H 0011H
00:0000 5A 00                    4735   	mov	r0,	#05ah
00:0002 11-90 0E-F0              4736   	st	r0,	0f00eh
                                 4737   CBLOCKEND 124 3 1004
                                 4738   
                                 4739   ;;	} while (WDP != 1);
                                 4740   CLINEA 0000H 0000H 03ECH 0002H 0014H
00:0006 81-A0 0E-F0              4741   	tb	0f00eh.0
00:000A FA C9                    4742   	beq	_$L512
                                 4743   
                                 4744   ;;	WDTCON = 0xA5u;
                                 4745   CLINEA 0000H 0001H 03EDH 0002H 0010H
00:000C A5 00                    4746   	mov	r0,	#0a5h
00:000E 11-90 0E-F0              4747   	st	r0,	0f00eh
                                 4748   CBLOCKEND 124 2 1006
                                 4749   
                                 4750   ;;}
                                 4751   CLINEA 0000H 0001H 03EEH 0001H 0001H
00:0012 1F-FE                    4752   	rt
                                 4753   CBLOCKEND 124 1 1006
                                 4754   CFUNCTIONEND 124
                                 4755   
                                 4756   
  --------------------------     4757   	rseg $$NOP1000$main
                                 4758   CFUNCTION 140
                                 4759   
00:0000                          4760   _NOP1000	:
                                 4761   CBLOCK 140 1 1016
                                 4762   
                                 4763   ;;{
                                 4764   CLINEA 0000H 0001H 03F8H 0001H 0001H
                                 4765   CBLOCK 140 2 1016
                                 4766   CLOCAL 4AH 0002H 0000H 0002H "ONCNT" 02H 00H 01H
                                 4767   CBLOCKEND 140 2 1023
                                 4768   
                                 4769   ;;}
                                 4770   CLINEA 0000H 0001H 03FFH 0001H 0001H
00:0000 1F-FE                    4771   	rt
                                 4772   CBLOCKEND 140 1 1023
                                 4773   CFUNCTIONEND 140
                                 4774   
                                 4775   
  --------------------------     4776   	rseg $$Initialization$main
                                 4777   CFUNCTION 125
                                 4778   
00:0000                          4779   _Initialization	:
                                 4780   CBLOCK 125 1 1030
                                 4781   
                                 4782   ;;static void Initialization(void){
                                 4783   CLINEA 0000H 0001H 0406H 0001H 0021H
00:0000 CE-F8                    4784   	push	lr
                                 4785   CBLOCK 125 2 1030
                                 4786   CRET 0000H
                                 4787   
                                 4788   ;;			DSIO0 = 1; // 0=> Enables Synchronous Serial Port 0 (initial value).
                                 4789   CLINEA 0000H 0001H 040AH 0004H 0047H
00:0002 80-A0 2A-F0              4790   	sb	0f02ah.0
                                 4791   
                                 4792   ;;			DUA0  = 0; // 0=> Enables the operation of UART0 (initial value).
                                 4793   CLINEA 0000H 0001H 040BH 0004H 0044H
00:0006 A2-A0 2A-F0              4794   	rb	0f02ah.2
                                 4795   
                                 4796   ;;			DUA1  = 1; // 0=> Enables Uart1 (initial value). 
                                 4797   CLINEA 0000H 0001H 040CH 0004H 0034H
00:000A B0-A0 2A-F0              4798   	sb	0f02ah.3
                                 4799   
                                 4800   ;;			DI2C1 = 1; // 0=> Enables I2C bus Interface (Slave) (initial value).
                                 4801   CLINEA 0000H 0001H 040DH 0004H 0047H
00:000E E0-A0 2A-F0              4802   	sb	0f02ah.6
                                 4803   
                                 4804   ;;			DI2C0 = 0; // 0=> Enables I2C bus Interface (Master) (initial value).	
                                 4805   CLINEA 0000H 0001H 040EH 0004H 0049H
00:0012 F2-A0 2A-F0              4806   	rb	0f02ah.7
                                 4807   
                                 4808   ;;		BLKCON4 = 0x00; // 0=> Enables SA-ADC
                                 4809   CLINEA 0000H 0001H 0410H 0003H 0027H
00:0016 00 00                    4810   	mov	r0,	#00h
00:0018 11-90 2C-F0              4811   	st	r0,	0f02ch
                                 4812   
                                 4813   ;;		BLKCON6 = 0x00; // (1=disables; 0=enables) the operation of Timers 8, 9, A, E, F.
                                 4814   CLINEA 0000H 0001H 0411H 0003H 0053H
00:001C 11-90 2E-F0              4815   	st	r0,	0f02eh
                                 4816   
                                 4817   ;;		BLKCON7 = 0x00; // (1=disables; 0=enables) the operation of PWW (PWMC, PWMD, PWME, PWMF
                                 4818   CLINEA 0000H 0001H 0412H 0003H 0059H
00:0020 11-90 2F-F0              4819   	st	r0,	0f02fh
                                 4820   
                                 4821   ;;		PortA_Low();	//Initialize all 3 Ports of Port A to GPIO-Low
                                 4822   CLINEA 0000H 0001H 0415H 0003H 003DH
00:0024 01-F0'00-00'             4823   	bl	_PortA_Low
                                 4824   
                                 4825   ;;		PortB_Low();	//Initialize all 8 Ports of Port B to GPIO-Low
                                 4826   CLINEA 0000H 0001H 0416H 0003H 003DH
00:0028 01-F0'00-00'             4827   	bl	_PortB_Low
                                 4828   
                                 4829   ;;		PortC_Low();	//Initialize all 8 Ports of Port C to GPIO-Low
                                 4830   CLINEA 0000H 0001H 0417H 0003H 003DH
00:002C 01-F0'00-00'             4831   	bl	_PortC_Low
                                 4832   
                                 4833   ;;		PortD_Low();	//Initialize all 6 Ports of Port D to GPIO-Low
                                 4834   CLINEA 0000H 0001H 0418H 0003H 003DH
00:0030 01-F0'00-00'             4835   	bl	_PortD_Low
                                 4836   
                                 4837   ;;     		SetOSC();
                                 4838   CLINEA 0000H 0001H 042CH 0008H 0010H
00:0034 01-F0'00-00'             4839   	bl	_SetOSC
                                 4840   
                                 4841   ;;		TM8D    = 0;	//Timer 8 DATA Register
                                 4842   CLINEA 0000H 0001H 0434H 0003H 0026H
00:0038 00 00                    4843   	mov	r0,	#00h
00:003A 11-90 E0-F8              4844   	st	r0,	0f8e0h
                                 4845   
                                 4846   ;;		TM8C    = 0;	//Timer 8 CLOCK Register
                                 4847   CLINEA 0000H 0001H 0437H 0003H 0027H
00:003E 11-90 E1-F8              4848   	st	r0,	0f8e1h
                                 4849   
                                 4850   ;;		T8C1 = 0;	// 01 = HTBCLK  
                                 4851   CLINEA 0000H 0001H 043CH 0003H 001CH
00:0042 92-A0 E1-F8              4852   	rb	0f8e1h.1
                                 4853   
                                 4854   ;;		T8C0 = 1;
                                 4855   CLINEA 0000H 0001H 043DH 0003H 000BH
00:0046 80-A0 E1-F8              4856   	sb	0f8e1h.0
                                 4857   
                                 4858   ;;		T89M16 = 0;	// 0=8-Bit Mode; 1=16bit Mode...
                                 4859   CLINEA 0000H 0001H 043FH 0003H 002EH
00:004A D2-A0 E2-F8              4860   	rb	0f8e2h.5
                                 4861   
                                 4862   ;;		T8OST = 0;	// 0=Normal; 1=One-Shot...
                                 4863   CLINEA 0000H 0001H 0441H 0003H 0027H
00:004E F2-A0 E2-F8              4864   	rb	0f8e2h.7
                                 4865   
                                 4866   ;;		T8RUN = 0;	//0=STOP; 1=START...
                                 4867   CLINEA 0000H 0001H 0444H 0003H 0021H
00:0052 82-A0 E3-F8              4868   	rb	0f8e3h.0
                                 4869   
                                 4870   ;;		irq_di();	// Disable Interrupts
                                 4871   CLINEA 0000H 0001H 044CH 0003H 0021H
00:0056 01-F0'00-00'             4872   	bl	_irq_di
                                 4873   
                                 4874   ;;		irq_init();	// Initialize Interrupts (All Off and NO Requests)
                                 4875   CLINEA 0000H 0001H 044DH 0003H 0040H
00:005A 01-F0'00-00'             4876   	bl	_irq_init
                                 4877   
                                 4878   ;;		IE0 = IE1 = IE2 = IE3 = IE4 = IE5 = IE6 = IE7 = 0;
                                 4879   CLINEA 0000H 0001H 0458H 0003H 0034H
00:005E 00 00                    4880   	mov	r0,	#00h
00:0060 11-90 17-F0              4881   	st	r0,	0f017h
00:0064 11-90 16-F0              4882   	st	r0,	0f016h
00:0068 11-90 15-F0              4883   	st	r0,	0f015h
00:006C 11-90 14-F0              4884   	st	r0,	0f014h
00:0070 11-90 13-F0              4885   	st	r0,	0f013h
00:0074 11-90 12-F0              4886   	st	r0,	0f012h
00:0078 11-90 11-F0              4887   	st	r0,	0f011h
00:007C 11-90 10-F0              4888   	st	r0,	0f010h
                                 4889   
                                 4890   ;;		IRQ0 = IRQ1 = IRQ2 = IRQ3 = IRQ4 = IRQ5 = IRQ6 = IRQ7 = 0;
                                 4891   CLINEA 0000H 0001H 0463H 0003H 003CH
00:0080 11-90 1F-F0              4892   	st	r0,	0f01fh
00:0084 11-90 1E-F0              4893   	st	r0,	0f01eh
00:0088 11-90 1D-F0              4894   	st	r0,	0f01dh
00:008C 11-90 1C-F0              4895   	st	r0,	0f01ch
00:0090 11-90 1B-F0              4896   	st	r0,	0f01bh
00:0094 11-90 1A-F0              4897   	st	r0,	0f01ah
00:0098 11-90 19-F0              4898   	st	r0,	0f019h
00:009C 11-90 18-F0              4899   	st	r0,	0f018h
                                 4900   
                                 4901   ;;		E2H = 0; 	// E2H is the Enable flag for 2Hz TBC Interrupt (1=ENABLED)
                                 4902   CLINEA 0000H 0001H 0466H 0003H 0047H
00:00A0 B2-A0 17-F0              4903   	rb	0f017h.3
                                 4904   
                                 4905   ;;		(void)irq_setHdr( (unsigned char)IRQ_NO_UA0INT, _intUart );
                                 4906   CLINEA 0000H 0001H 046BH 0003H 003DH
00:00A4 00'02                    4907   	mov	r2,	#BYTE1 OFFSET __intUart
00:00A6 00'03                    4908   	mov	r3,	#BYTE2 OFFSET __intUart
00:00A8 0F 00                    4909   	mov	r0,	#0fh
00:00AA 01-F0'00-00'             4910   	bl	_irq_setHdr
                                 4911   
                                 4912   ;;		(void)irq_setHdr( (unsigned char)IRQ_NO_I2CMINT, _intI2c );
                                 4913   CLINEA 0000H 0001H 046CH 0003H 003DH
00:00AE 00'02                    4914   	mov	r2,	#BYTE1 OFFSET __intI2c
00:00B0 00'03                    4915   	mov	r3,	#BYTE2 OFFSET __intI2c
00:00B2 0C 00                    4916   	mov	r0,	#0ch
00:00B4 01-F0'00-00'             4917   	bl	_irq_setHdr
                                 4918   
                                 4919   ;;		EI2CM = 1;
                                 4920   CLINEA 0000H 0001H 046EH 0003H 000CH
00:00B8 F0-A0 12-F0              4921   	sb	0f012h.7
                                 4922   
                                 4923   ;;		QI2CM = 1;
                                 4924   CLINEA 0000H 0001H 046FH 0003H 000CH
00:00BC F0-A0 1A-F0              4925   	sb	0f01ah.7
                                 4926   
                                 4927   ;;		EUA0 = 1; // EUA0 is the enable flag for the UART0 interrupt (1=ENABLED)
                                 4928   CLINEA 0000H 0001H 0470H 0003H 004AH
00:00C0 80-A0 14-F0              4929   	sb	0f014h.0
                                 4930   
                                 4931   ;;		irq_ei(); // Enable Interrupts
                                 4932   CLINEA 0000H 0001H 0473H 0003H 0020H
00:00C4 01-F0'00-00'             4933   	bl	_irq_ei
                                 4934   
                                 4935   ;;	WDTMOD = 0x03; 	// 0x03=overflow 8sec...
                                 4936   CLINEA 0000H 0001H 0478H 0002H 0029H
00:00C8 03 00                    4937   	mov	r0,	#03h
00:00CA 11-90 0F-F0              4938   	st	r0,	0f00fh
                                 4939   
                                 4940   ;;	main_clrWDT(); 	// Clear WDT
                                 4941   CLINEA 0000H 0001H 0479H 0002H 001DH
00:00CE 01-F0'00-00'             4942   	bl	_main_clrWDT
                                 4943   
                                 4944   ;;		HelloWorld[12] 	= 0x0D;
                                 4945   CLINEA 0000H 0001H 047CH 0003H 0019H
00:00D2 0D 00                    4946   	mov	r0,	#0dh
00:00D4 11-90 00-00'             4947   	st	r0,	NEAR _HelloWorld+0ch
                                 4948   
                                 4949   ;;		HelloWorld[13] 	= 0x0A;
                                 4950   CLINEA 0000H 0001H 047DH 0003H 0019H
00:00D8 0A 00                    4951   	mov	r0,	#0ah
00:00DA 11-90 00-00'             4952   	st	r0,	NEAR _HelloWorld+0dh
                                 4953   
                                 4954   ;;		InputStatus[21] 	= 0x0D;
                                 4955   CLINEA 0000H 0001H 047EH 0003H 001AH
00:00DE 0D 00                    4956   	mov	r0,	#0dh
00:00E0 11-90 00-00'             4957   	st	r0,	NEAR _InputStatus+015h
                                 4958   
                                 4959   ;;		InputStatus[22] 	= 0x0A;
                                 4960   CLINEA 0000H 0001H 047FH 0003H 001AH
00:00E4 0A 00                    4961   	mov	r0,	#0ah
00:00E6 11-90 00-00'             4962   	st	r0,	NEAR _InputStatus+016h
                                 4963   
                                 4964   ;;		InputRec[12] 	= 0x0D;
                                 4965   CLINEA 0000H 0001H 0480H 0003H 0017H
00:00EA 0D 00                    4966   	mov	r0,	#0dh
00:00EC 11-90 00-00'             4967   	st	r0,	NEAR _InputRec+0ch
                                 4968   
                                 4969   ;;		InputRec[13] 	= 0x0A;
                                 4970   CLINEA 0000H 0001H 0481H 0003H 0017H
00:00F0 0A 00                    4971   	mov	r0,	#0ah
00:00F2 11-90 00-00'             4972   	st	r0,	NEAR _InputRec+0dh
                                 4973   
                                 4974   ;;		OutputRec[21] 	= 0x0D;
                                 4975   CLINEA 0000H 0001H 0482H 0003H 0018H
00:00F6 0D 00                    4976   	mov	r0,	#0dh
00:00F8 11-90 00-00'             4977   	st	r0,	NEAR _OutputRec+015h
                                 4978   
                                 4979   ;;		OutputRec[22] 	= 0x0A;
                                 4980   CLINEA 0000H 0001H 0483H 0003H 0018H
00:00FC 0A 00                    4981   	mov	r0,	#0ah
00:00FE 11-90 00-00'             4982   	st	r0,	NEAR _OutputRec+016h
                                 4983   
                                 4984   ;;		AckMCUConn[20] 	= 0x0D;
                                 4985   CLINEA 0000H 0001H 0484H 0003H 0019H
00:0102 0D 00                    4986   	mov	r0,	#0dh
00:0104 11-90 00-00'             4987   	st	r0,	NEAR _AckMCUConn+014h
                                 4988   
                                 4989   ;;		AckMCUConn[21] 	= 0x0A;
                                 4990   CLINEA 0000H 0001H 0485H 0003H 0019H
00:0108 0A 00                    4991   	mov	r0,	#0ah
00:010A 11-90 00-00'             4992   	st	r0,	NEAR _AckMCUConn+015h
                                 4993   
                                 4994   ;;		I2C_TX_REC[19] = 0x0D;
                                 4995   CLINEA 0000H 0001H 0486H 0003H 0018H
00:010E 0D 00                    4996   	mov	r0,	#0dh
00:0110 11-90 00-00'             4997   	st	r0,	NEAR _I2C_TX_REC+013h
                                 4998   
                                 4999   ;;		I2C_TX_REC[20] = 0x0A;
                                 5000   CLINEA 0000H 0001H 0487H 0003H 0018H
00:0114 0A 00                    5001   	mov	r0,	#0ah
00:0116 11-90 00-00'             5002   	st	r0,	NEAR _I2C_TX_REC+014h
                                 5003   
                                 5004   ;;		I2C_RX_REC[19] = 0x0D;
                                 5005   CLINEA 0000H 0001H 0488H 0003H 0018H
00:011A 0D 00                    5006   	mov	r0,	#0dh
00:011C 11-90 00-00'             5007   	st	r0,	NEAR _I2C_RX_REC+013h
                                 5008   
                                 5009   ;;		I2C_RX_REC[20] = 0x0A;
                                 5010   CLINEA 0000H 0001H 0489H 0003H 0018H
00:0120 0A 00                    5011   	mov	r0,	#0ah
00:0122 11-90 00-00'             5012   	st	r0,	NEAR _I2C_RX_REC+014h
                                 5013   
                                 5014   ;;		I2C_RX_Data[21] = 0x0D;
                                 5015   CLINEA 0000H 0001H 048AH 0003H 0019H
00:0126 0D 00                    5016   	mov	r0,	#0dh
00:0128 11-90 00-00'             5017   	st	r0,	NEAR _I2C_RX_Data+015h
                                 5018   
                                 5019   ;;		I2C_RX_Data[22] = 0x0A;
                                 5020   CLINEA 0000H 0001H 048BH 0003H 0019H
00:012C 0A 00                    5021   	mov	r0,	#0ah
00:012E 11-90 00-00'             5022   	st	r0,	NEAR _I2C_RX_Data+016h
                                 5023   
                                 5024   ;;	(void)i2c_init(I2C_MOD_FST, (unsigned short)HSCLK_KHZ, I2C_SYN_OFF);
                                 5025   CLINEA 0000H 0001H 0491H 0002H 0045H
00:0132 00 00                    5026   	mov	r0,	#00h
00:0134 4E-F0                    5027   	push	r0
00:0136 40 02                    5028   	mov	r2,	#040h
00:0138 1F 03                    5029   	mov	r3,	#01fh
00:013A 01 00                    5030   	mov	r0,	#01h
00:013C 01-F0'00-00'             5031   	bl	_i2c_init
00:0140 02 E1                    5032   	add	sp,	#2 
                                 5033   
                                 5034   ;;				     &_uartSetParam );				/* Param... 	 */
                                 5035   CLINEA 0000H 0001H 0496H 000AH 002EH
00:0142 00'00                    5036   	mov	r0,	#BYTE1 OFFSET __uartSetParam
00:0144 00'01                    5037   	mov	r1,	#BYTE2 OFFSET __uartSetParam
00:0146 5E-F0                    5038   	push	er0
00:0148 40 02                    5039   	mov	r2,	#040h
00:014A 1F 03                    5040   	mov	r3,	#01fh
00:014C 02 00                    5041   	mov	r0,	#02h
00:014E 01-F0'00-00'             5042   	bl	_uart_init
00:0152 02 E1                    5043   	add	sp,	#2 
                                 5044   
                                 5045   ;;		uart_PortSet();
                                 5046   CLINEA 0000H 0001H 0497H 0003H 0011H
00:0154 01-F0'00-00'             5047   	bl	_uart_PortSet
                                 5048   
                                 5049   ;;		_flgUartFin = 0;
                                 5050   CLINEA 0000H 0001H 0498H 0003H 0012H
00:0158 00 00                    5051   	mov	r0,	#00h
00:015A 11-90 00-00'             5052   	st	r0,	NEAR __flgUartFin
                                 5053   
                                 5054   ;;		uart_stop();
                                 5055   CLINEA 0000H 0001H 0499H 0003H 000EH
00:015E 01-F0'00-00'             5056   	bl	_uart_stop
                                 5057   
                                 5058   ;;		uart_startSend(HelloWorld, 14, _funcUartFin); // Send, "Hello World!"
                                 5059   CLINEA 0000H 0001H 049BH 0003H 0047H
00:0162 00'00                    5060   	mov	r0,	#BYTE1 OFFSET __funcUartFin
00:0164 00'01                    5061   	mov	r1,	#BYTE2 OFFSET __funcUartFin
00:0166 5E-F0                    5062   	push	er0
00:0168 0E E2                    5063   	mov	er2,	#14
00:016A 00'00                    5064   	mov	r0,	#BYTE1 OFFSET _HelloWorld
00:016C 00'01                    5065   	mov	r1,	#BYTE2 OFFSET _HelloWorld
00:016E 01-F0'00-00'             5066   	bl	_uart_startSend
00:0172 02 E1                    5067   	add	sp,	#2 
                                 5068   
                                 5069   ;;		while(_flgUartFin != 1){
                                 5070   CLINEA 0000H 0000H 049CH 0001H 0001H
00:0174 04 CE                    5071   	bal	_$L525
                                 5072   
                                 5073   ;;		while(_flgUartFin != 1){
                                 5074   CLINEA 0000H 0000H 049CH 0003H 001AH
00:0176                          5075   _$L523 :
                                 5076   CBLOCK 125 3 1180
                                 5077   
                                 5078   ;;			NOP1000();
                                 5079   CLINEA 0000H 0001H 049DH 0004H 000DH
00:0176 01-F0'00-00'             5080   	bl	_NOP1000
                                 5081   
                                 5082   ;;			main_clrWDT();
                                 5083   CLINEA 0000H 0001H 049EH 0004H 0011H
00:017A 01-F0'00-00'             5084   	bl	_main_clrWDT
                                 5085   CBLOCKEND 125 3 1183
                                 5086   
                                 5087   ;;		while(_flgUartFin != 1){
                                 5088   CLINEA 0000H 0000H 049CH 0001H 0001H
00:017E                          5089   _$L525 :
                                 5090   
                                 5091   ;;		while(_flgUartFin != 1){
                                 5092   CLINEA 0000H 0000H 049CH 001BH 0022H
00:017E 10-90 00-00'             5093   	l	r0,	NEAR __flgUartFin
00:0182 01 70                    5094   	cmp	r0,	#01h
00:0184 F8 C8                    5095   	bne	_$L523
                                 5096   CBLOCKEND 125 2 1184
                                 5097   
                                 5098   ;;}
                                 5099   CLINEA 0000H 0001H 04A0H 0001H 0001H
00:0186 8E-F2                    5100   	pop	pc
                                 5101   CBLOCKEND 125 1 1184
                                 5102   CFUNCTIONEND 125
                                 5103   
                                 5104   
  --------------------------     5105   	rseg $$_funcUartFin$main
                                 5106   CFUNCTION 134
                                 5107   
00:0000                          5108   __funcUartFin	:
                                 5109   CBLOCK 134 1 1196
                                 5110   
                                 5111   ;;{
                                 5112   CLINEA 0000H 0001H 04ACH 0001H 0001H
00:0000 CE-F8                    5113   	push	lr
                                 5114   CBLOCK 134 2 1196
                                 5115   CRET 0000H
                                 5116   CARGUMENT 46H 0002H 0000H "size" 02H 00H 01H
                                 5117   CARGUMENT 46H 0001H 0000H "errStat" 02H 00H 00H
                                 5118   
                                 5119   ;;	uart_continue();					// Function in UART.c: process to continue send and receive...
                                 5120   CLINEA 0000H 0001H 04ADH 0002H 0054H
00:0002 01-F0'00-00'             5121   	bl	_uart_continue
                                 5122   
                                 5123   ;;	_flgUartFin = (unsigned char)FLG_SET;
                                 5124   CLINEA 0000H 0001H 04AEH 0002H 0026H
00:0006 01 00                    5125   	mov	r0,	#01h
00:0008 11-90 00-00'             5126   	st	r0,	NEAR __flgUartFin
                                 5127   
                                 5128   ;;	main_reqNotHalt();				// uncommented 5/2/2013
                                 5129   CLINEA 0000H 0001H 04AFH 0002H 002EH
00:000C 01-F0'00-00'             5130   	bl	_main_reqNotHalt
                                 5131   CBLOCKEND 134 2 1200
                                 5132   
                                 5133   ;;}
                                 5134   CLINEA 0000H 0001H 04B0H 0001H 0001H
00:0010 8E-F2                    5135   	pop	pc
                                 5136   CBLOCKEND 134 1 1200
                                 5137   CFUNCTIONEND 134
                                 5138   
                                 5139   
  --------------------------     5140   	rseg $$_funcI2CFin$main
                                 5141   CFUNCTION 135
                                 5142   
00:0000                          5143   __funcI2CFin	:
                                 5144   CBLOCK 135 1 1211
                                 5145   
                                 5146   ;;{
                                 5147   CLINEA 0000H 0001H 04BBH 0001H 0001H
00:0000 CE-F8                    5148   	push	lr
                                 5149   CBLOCK 135 2 1211
                                 5150   CRET 0000H
                                 5151   CARGUMENT 46H 0002H 0000H "size" 02H 00H 01H
                                 5152   CARGUMENT 46H 0001H 0000H "errStat" 02H 00H 00H
                                 5153   
                                 5154   ;;	i2c_continue();					// Function in UART.c: process to continue send and receive...
                                 5155   CLINEA 0000H 0001H 04BCH 0002H 0053H
00:0002 01-F0'00-00'             5156   	bl	_i2c_continue
                                 5157   
                                 5158   ;;	_flgI2CFin = (unsigned char)FLG_SET;
                                 5159   CLINEA 0000H 0001H 04BDH 0002H 0025H
00:0006 01 00                    5160   	mov	r0,	#01h
00:0008 11-90 00-00'             5161   	st	r0,	NEAR __flgI2CFin
                                 5162   
                                 5163   ;;	main_reqNotHalt();				// uncommented 5/2/2013
                                 5164   CLINEA 0000H 0001H 04BEH 0002H 002EH
00:000C 01-F0'00-00'             5165   	bl	_main_reqNotHalt
                                 5166   CBLOCKEND 135 2 1215
                                 5167   
                                 5168   ;;}
                                 5169   CLINEA 0000H 0001H 04BFH 0001H 0001H
00:0010 8E-F2                    5170   	pop	pc
                                 5171   CBLOCKEND 135 1 1215
                                 5172   CFUNCTIONEND 135
                                 5173   
                                 5174   
  --------------------------     5175   	rseg $$_intI2c$main
                                 5176   CFUNCTION 139
                                 5177   
00:0000                          5178   __intI2c	:
                                 5179   CBLOCK 139 1 1225
                                 5180   
                                 5181   ;;{
                                 5182   CLINEA 0000H 0001H 04C9H 0001H 0001H
00:0000 CE-F8                    5183   	push	lr
                                 5184   CBLOCK 139 2 1225
                                 5185   CRET 0000H
                                 5186   
                                 5187   ;;	(void)i2c_continue();
                                 5188   CLINEA 0000H 0001H 04CAH 0002H 0016H
00:0002 01-F0'00-00'             5189   	bl	_i2c_continue
                                 5190   
                                 5191   ;;	main_reqNotHalt();
                                 5192   CLINEA 0000H 0001H 04CBH 0002H 0013H
00:0006 01-F0'00-00'             5193   	bl	_main_reqNotHalt
                                 5194   CBLOCKEND 139 2 1228
                                 5195   
                                 5196   ;;}
                                 5197   CLINEA 0000H 0001H 04CCH 0001H 0001H
00:000A 8E-F2                    5198   	pop	pc
                                 5199   CBLOCKEND 139 1 1228
                                 5200   CFUNCTIONEND 139
                                 5201   
                                 5202   
  --------------------------     5203   	rseg $$checkI2C$main
                                 5204   CFUNCTION 136
                                 5205   
00:0000                          5206   _checkI2C	:
                                 5207   CBLOCK 136 1 1238
                                 5208   
                                 5209   ;;{
                                 5210   CLINEA 0000H 0001H 04D6H 0001H 0001H
00:0000 CE-F8                    5211   	push	lr
                                 5212   CBLOCK 136 2 1238
                                 5213   CRET 0000H
                                 5214   CLOCAL 47H 0002H 0024H 0002H "ret" 02H 00H 01H
                                 5215   
                                 5216   ;;	while (ret != 1) {
                                 5217   CLINEA 0000H 0000H 04DBH 0002H 0013H
00:0002                          5218   _$L532 :
                                 5219   CBLOCK 136 3 1243
                                 5220   
                                 5221   ;;		ret = i2c_continue();
                                 5222   CLINEA 0000H 0000H 04DCH 0003H 0017H
00:0002 01-F0'00-00'             5223   	bl	_i2c_continue
                                 5224   CBLOCK 136 4 1245
                                 5225   CBLOCKEND 136 4 1247
                                 5226   CBLOCKEND 136 3 1248
                                 5227   
                                 5228   ;;	while (ret != 1) {
                                 5229   CLINEA 0000H 0000H 04DBH 001BH 0022H
00:0006 01 70                    5230   	cmp	r0,	#01h
00:0008 00 51                    5231   	cmpc	r1,	#00h
00:000A FB C8                    5232   	bne	_$L532
                                 5233   CBLOCKEND 136 2 1249
                                 5234   
                                 5235   ;;}
                                 5236   CLINEA 0000H 0001H 04E1H 0001H 0001H
00:000C 8E-F2                    5237   	pop	pc
                                 5238   CBLOCKEND 136 1 1249
                                 5239   CFUNCTIONEND 136
                                 5240   
                                 5241   
  --------------------------     5242   	rseg $$main_reqNotHalt$main
                                 5243   CFUNCTION 137
                                 5244   
00:0000                          5245   _main_reqNotHalt	:
                                 5246   CBLOCK 137 1 1259
                                 5247   
                                 5248   ;;{
                                 5249   CLINEA 0000H 0001H 04EBH 0001H 0001H
                                 5250   CBLOCK 137 2 1259
                                 5251   
                                 5252   ;;	_reqNotHalt = (unsigned char)FLG_SET;
                                 5253   CLINEA 0000H 0001H 04ECH 0002H 0026H
00:0000 01 00                    5254   	mov	r0,	#01h
00:0002 11-90 00-00'             5255   	st	r0,	NEAR __reqNotHalt
                                 5256   CBLOCKEND 137 2 1261
                                 5257   
                                 5258   ;;}
                                 5259   CLINEA 0000H 0001H 04EDH 0001H 0001H
00:0006 1F-FE                    5260   	rt
                                 5261   CBLOCKEND 137 1 1261
                                 5262   CFUNCTIONEND 137
                                 5263   
                                 5264   
  --------------------------     5265   	rseg $$_intUart$main
                                 5266   CFUNCTION 138
                                 5267   
00:0000                          5268   __intUart	:
                                 5269   CBLOCK 138 1 1271
                                 5270   
                                 5271   ;;{
                                 5272   CLINEA 0000H 0001H 04F7H 0001H 0001H
                                 5273   CBLOCK 138 2 1271
                                 5274   
                                 5275   ;;		uart_continue(); //in UART.c: process to continue send and receive...
                                 5276   CLINEA 0000H 0001H 04F8H 0003H 0047H
00:0000 00-F0'00-00'             5277   	b	_uart_continue
                                 5278   CBLOCKEND 138 2 1273
                                 5279   CLINEA 0000H 0001H 04F9H 0001H 0001H
                                 5280   CBLOCKEND 138 1 1273
                                 5281   CFUNCTIONEND 138
                                 5282   
                                 5283   
  --------------------------     5284   	rseg $$SetOSC$main
                                 5285   CFUNCTION 126
                                 5286   
00:0000                          5287   _SetOSC	:
                                 5288   CBLOCK 126 1 1278
                                 5289   
                                 5290   ;;static void SetOSC(void){
                                 5291   CLINEA 0000H 0001H 04FEH 0001H 0019H
                                 5292   CBLOCK 126 2 1278
                                 5293   
                                 5294   ;;	SYSC0 = 0;			// Used to select the frequency of the HSCLK => 00=8.192MHz.
                                 5295   CLINEA 0000H 0001H 0501H 0002H 004AH
00:0000 82-A0 02-F0              5296   	rb	0f002h.0
                                 5297   
                                 5298   ;;	SYSC1 = 0;
                                 5299   CLINEA 0000H 0001H 0502H 0002H 000BH
00:0004 92-A0 02-F0              5300   	rb	0f002h.1
                                 5301   
                                 5302   ;;	OSCM1 = 1;			// 10 => Built-in PLL oscillation mode
                                 5303   CLINEA 0000H 0001H 0504H 0002H 0034H
00:0008 B0-A0 02-F0              5304   	sb	0f002h.3
                                 5305   
                                 5306   ;;	OSCM0 = 0;
                                 5307   CLINEA 0000H 0001H 0505H 0002H 000BH
00:000C A2-A0 02-F0              5308   	rb	0f002h.2
                                 5309   
                                 5310   ;;	ENOSC = 1;			//1=Enable High Speed Oscillator...
                                 5311   CLINEA 0000H 0001H 0507H 0002H 0031H
00:0010 90-A0 03-F0              5312   	sb	0f003h.1
                                 5313   
                                 5314   ;;	SYSCLK = 1;			//1=HSCLK; 0=LSCLK 
                                 5315   CLINEA 0000H 0001H 0508H 0002H 0022H
00:0014 80-A0 03-F0              5316   	sb	0f003h.0
                                 5317   
                                 5318   ;;	LPLL = 1;			//1=Enables the use of PLL oscillation - ADDED 4/30/2013
                                 5319   CLINEA 0000H 0001H 050AH 0002H 0045H
00:0018 F0-A0 03-F0              5320   	sb	0f003h.7
                                 5321   
                                 5322   ;;	__EI();			//INT enable
                                 5323   CLINEA 0000H 0001H 050CH 0002H 0017H
00:001C 08-ED                    5324   	ei
                                 5325   CBLOCKEND 126 2 1293
                                 5326   
                                 5327   ;;}
                                 5328   CLINEA 0000H 0001H 050DH 0001H 0001H
00:001E 1F-FE                    5329   	rt
                                 5330   CBLOCKEND 126 1 1293
                                 5331   CFUNCTIONEND 126
                                 5332   
                                 5333   
  --------------------------     5334   	rseg $$analog_comparator$main
                                 5335   CFUNCTION 127
                                 5336   
00:0000                          5337   _analog_comparator	:
                                 5338   CBLOCK 127 1 1300
                                 5339   
                                 5340   ;;void analog_comparator(void){
                                 5341   CLINEA 0000H 0001H 0514H 0001H 001DH
                                 5342   CBLOCK 127 2 1300
                                 5343   
                                 5344   ;;	CMP0EN  = 0x01; 	// Comparator ON...
                                 5345   CLINEA 0000H 0001H 052AH 0002H 0025H
00:0000 80-A0 50-F9              5346   	sb	0f950h.0
                                 5347   
                                 5348   ;;	CMP0E1  = 0x00; 	// No Interupt...
                                 5349   CLINEA 0000H 0001H 052BH 0002H 0023H
00:0004 92-A0 51-F9              5350   	rb	0f951h.1
                                 5351   
                                 5352   ;;	CMP0E0  = 0x00;
                                 5353   CLINEA 0000H 0001H 052CH 0002H 0010H
00:0008 82-A0 51-F9              5354   	rb	0f951h.0
                                 5355   
                                 5356   ;;	CMP0SM1 = 0x00; 	// Detect without Sampling... 
                                 5357   CLINEA 0000H 0001H 052DH 0002H 0030H
00:000C B2-A0 51-F9              5358   	rb	0f951h.3
                                 5359   
                                 5360   ;;	CMP0RFS = 0x01; 	// Differential Input on B5
                                 5361   CLINEA 0000H 0001H 052EH 0002H 002DH
00:0010 C0-A0 51-F9              5362   	sb	0f951h.4
                                 5363   
                                 5364   ;;	CMP0EN  = 0x00;
                                 5365   CLINEA 0000H 0001H 0531H 0002H 0010H
00:0014 82-A0 50-F9              5366   	rb	0f950h.0
                                 5367   CBLOCKEND 127 2 1332
                                 5368   
                                 5369   ;;}
                                 5370   CLINEA 0000H 0001H 0534H 0001H 0001H
00:0018 1F-FE                    5371   	rt
                                 5372   CBLOCKEND 127 1 1332
                                 5373   CFUNCTIONEND 127
                                 5374   
                                 5375   
  --------------------------     5376   	rseg $$PortA_Low$main
                                 5377   CFUNCTION 128
                                 5378   
00:0000                          5379   _PortA_Low	:
                                 5380   CBLOCK 128 1 1340
                                 5381   
                                 5382   ;;void PortA_Low(void){
                                 5383   CLINEA 0000H 0001H 053CH 0001H 0015H
                                 5384   CBLOCK 128 2 1340
                                 5385   
                                 5386   ;;	PA0DIR = 0;		// PortA Bit0 set to Output Mode...
                                 5387   CLINEA 0000H 0001H 0546H 0002H 0031H
00:0000 82-A0 51-F2              5388   	rb	0f251h.0
                                 5389   
                                 5390   ;;	PA1DIR = 0;		// PortA Bit1 set to Output Mode...
                                 5391   CLINEA 0000H 0001H 0547H 0002H 0031H
00:0004 92-A0 51-F2              5392   	rb	0f251h.1
                                 5393   
                                 5394   ;;	PA2DIR = 0;		// PortA Bit2 set to Output Mode...
                                 5395   CLINEA 0000H 0001H 0548H 0002H 0031H
00:0008 A2-A0 51-F2              5396   	rb	0f251h.2
                                 5397   
                                 5398   ;;	PA0C1  = 1;		// PortA Bit0 set to CMOS Output...
                                 5399   CLINEA 0000H 0001H 054BH 0002H 0031H
00:000C 80-A0 53-F2              5400   	sb	0f253h.0
                                 5401   
                                 5402   ;;	PA0C0  = 1;		
                                 5403   CLINEA 0000H 0001H 054CH 0002H 000EH
00:0010 80-A0 52-F2              5404   	sb	0f252h.0
                                 5405   
                                 5406   ;;	PA1C1  = 1;		// PortA Bit1 set to CMOS Output...
                                 5407   CLINEA 0000H 0001H 054DH 0002H 0031H
00:0014 90-A0 53-F2              5408   	sb	0f253h.1
                                 5409   
                                 5410   ;;	PA1C0  = 1;	
                                 5411   CLINEA 0000H 0001H 054EH 0002H 000DH
00:0018 90-A0 52-F2              5412   	sb	0f252h.1
                                 5413   
                                 5414   ;;	PA2C1  = 1;		// PortA Bit2 set to CMOS Output...
                                 5415   CLINEA 0000H 0001H 054FH 0002H 0031H
00:001C A0-A0 53-F2              5416   	sb	0f253h.2
                                 5417   
                                 5418   ;;	PA2C0  = 1;	
                                 5419   CLINEA 0000H 0001H 0550H 0002H 000DH
00:0020 A0-A0 52-F2              5420   	sb	0f252h.2
                                 5421   
                                 5422   ;;	PA0MD1  = 0;	// PortA Bit0 set to General Purpose Output...
                                 5423   CLINEA 0000H 0001H 0553H 0002H 003CH
00:0024 82-A0 55-F2              5424   	rb	0f255h.0
                                 5425   
                                 5426   ;;	PA0MD0  = 0;	
                                 5427   CLINEA 0000H 0001H 0554H 0002H 000EH
00:0028 82-A0 54-F2              5428   	rb	0f254h.0
                                 5429   
                                 5430   ;;	PA1MD1  = 0;	// PortA Bit1 set to General Purpose Output...
                                 5431   CLINEA 0000H 0001H 0555H 0002H 003CH
00:002C 92-A0 55-F2              5432   	rb	0f255h.1
                                 5433   
                                 5434   ;;	PA1MD0  = 0;	
                                 5435   CLINEA 0000H 0001H 0556H 0002H 000EH
00:0030 92-A0 54-F2              5436   	rb	0f254h.1
                                 5437   
                                 5438   ;;	PA2MD1  = 0;	// PortA Bit2 set to General Purpose Output...
                                 5439   CLINEA 0000H 0001H 0557H 0002H 003CH
00:0034 A2-A0 55-F2              5440   	rb	0f255h.2
                                 5441   
                                 5442   ;;	PA2MD0  = 0;	
                                 5443   CLINEA 0000H 0001H 0558H 0002H 000EH
00:0038 A2-A0 54-F2              5444   	rb	0f254h.2
                                 5445   
                                 5446   ;;	PA0D = 0;		// A.0 Output OFF....
                                 5447   CLINEA 0000H 0001H 055BH 0002H 0021H
00:003C 82-A0 50-F2              5448   	rb	0f250h.0
                                 5449   
                                 5450   ;;	PA1D = 0;		// A.1 Output OFF....
                                 5451   CLINEA 0000H 0001H 055CH 0002H 0021H
00:0040 92-A0 50-F2              5452   	rb	0f250h.1
                                 5453   
                                 5454   ;;	PA2D = 0;		// A.2 Output OFF....
                                 5455   CLINEA 0000H 0001H 055DH 0002H 0021H
00:0044 A2-A0 50-F2              5456   	rb	0f250h.2
                                 5457   
                                 5458   ;;	main_clrWDT(); 	// Clear WDT
                                 5459   CLINEA 0000H 0001H 055FH 0002H 001DH
00:0048 00-F0'00-00'             5460   	b	_main_clrWDT
                                 5461   CBLOCKEND 128 2 1377
                                 5462   CLINEA 0000H 0001H 0561H 0001H 0001H
                                 5463   CBLOCKEND 128 1 1377
                                 5464   CFUNCTIONEND 128
                                 5465   
                                 5466   
  --------------------------     5467   	rseg $$PortB_Low$main
                                 5468   CFUNCTION 129
                                 5469   
00:0000                          5470   _PortB_Low	:
                                 5471   CBLOCK 129 1 1383
                                 5472   
                                 5473   ;;void PortB_Low(void){
                                 5474   CLINEA 0000H 0001H 0567H 0001H 0015H
                                 5475   CBLOCK 129 2 1383
                                 5476   
                                 5477   ;;	PB0DIR = 0;		// PortB Bit0 set to Output Mode...
                                 5478   CLINEA 0000H 0001H 0571H 0002H 0031H
00:0000 82-A0 59-F2              5479   	rb	0f259h.0
                                 5480   
                                 5481   ;;	PB1DIR = 0;		// PortB Bit1 set to Output Mode...
                                 5482   CLINEA 0000H 0001H 0572H 0002H 0031H
00:0004 92-A0 59-F2              5483   	rb	0f259h.1
                                 5484   
                                 5485   ;;	PB2DIR = 0;		// PortB Bit2 set to Output Mode...
                                 5486   CLINEA 0000H 0001H 0573H 0002H 0031H
00:0008 A2-A0 59-F2              5487   	rb	0f259h.2
                                 5488   
                                 5489   ;;	PB3DIR = 0;		// PortB Bit3 set to Output Mode...
                                 5490   CLINEA 0000H 0001H 0574H 0002H 0031H
00:000C B2-A0 59-F2              5491   	rb	0f259h.3
                                 5492   
                                 5493   ;;	PB4DIR = 0;		// PortB Bit4 set to Output Mode...
                                 5494   CLINEA 0000H 0001H 0575H 0002H 0031H
00:0010 C2-A0 59-F2              5495   	rb	0f259h.4
                                 5496   
                                 5497   ;;	PB5DIR = 0;		// PortB Bit5 set to Output Mode...
                                 5498   CLINEA 0000H 0001H 0576H 0002H 0031H
00:0014 D2-A0 59-F2              5499   	rb	0f259h.5
                                 5500   
                                 5501   ;;	PB6DIR = 0;		// PortB Bit6 set to Output Mode...
                                 5502   CLINEA 0000H 0001H 0577H 0002H 0031H
00:0018 E2-A0 59-F2              5503   	rb	0f259h.6
                                 5504   
                                 5505   ;;	PB7DIR = 0;		// PortB Bit7 set to Output Mode...
                                 5506   CLINEA 0000H 0001H 0578H 0002H 0031H
00:001C F2-A0 59-F2              5507   	rb	0f259h.7
                                 5508   
                                 5509   ;;	PB0C1  = 1;		// PortB Bit0 set to CMOS Output...
                                 5510   CLINEA 0000H 0001H 057BH 0002H 0031H
00:0020 80-A0 5B-F2              5511   	sb	0f25bh.0
                                 5512   
                                 5513   ;;	PB0C0  = 1;		
                                 5514   CLINEA 0000H 0001H 057CH 0002H 000EH
00:0024 80-A0 5A-F2              5515   	sb	0f25ah.0
                                 5516   
                                 5517   ;;	PB1C1  = 1;		// PortB Bit1 set to CMOS Output...
                                 5518   CLINEA 0000H 0001H 057DH 0002H 0031H
00:0028 90-A0 5B-F2              5519   	sb	0f25bh.1
                                 5520   
                                 5521   ;;	PB1C0  = 1;	
                                 5522   CLINEA 0000H 0001H 057EH 0002H 000DH
00:002C 90-A0 5A-F2              5523   	sb	0f25ah.1
                                 5524   
                                 5525   ;;	PB2C1  = 1;		// PortB Bit2 set to CMOS Output...
                                 5526   CLINEA 0000H 0001H 057FH 0002H 0031H
00:0030 A0-A0 5B-F2              5527   	sb	0f25bh.2
                                 5528   
                                 5529   ;;	PB2C0  = 1;	
                                 5530   CLINEA 0000H 0001H 0580H 0002H 000DH
00:0034 A0-A0 5A-F2              5531   	sb	0f25ah.2
                                 5532   
                                 5533   ;;	PB3C1  = 1;		// PortB Bit3 set to CMOS Output...
                                 5534   CLINEA 0000H 0001H 0581H 0002H 0031H
00:0038 B0-A0 5B-F2              5535   	sb	0f25bh.3
                                 5536   
                                 5537   ;;	PB3C0  = 1;		
                                 5538   CLINEA 0000H 0001H 0582H 0002H 000EH
00:003C B0-A0 5A-F2              5539   	sb	0f25ah.3
                                 5540   
                                 5541   ;;	PB4C1  = 1;		// PortB Bit4 set to CMOS Output...
                                 5542   CLINEA 0000H 0001H 0583H 0002H 0031H
00:0040 C0-A0 5B-F2              5543   	sb	0f25bh.4
                                 5544   
                                 5545   ;;	PB4C0  = 1;	
                                 5546   CLINEA 0000H 0001H 0584H 0002H 000DH
00:0044 C0-A0 5A-F2              5547   	sb	0f25ah.4
                                 5548   
                                 5549   ;;	PB5C1  = 1;		// PortB Bit5 set to CMOS Output...
                                 5550   CLINEA 0000H 0001H 0585H 0002H 0031H
00:0048 D0-A0 5B-F2              5551   	sb	0f25bh.5
                                 5552   
                                 5553   ;;	PB5C0  = 1;	
                                 5554   CLINEA 0000H 0001H 0586H 0002H 000DH
00:004C D0-A0 5A-F2              5555   	sb	0f25ah.5
                                 5556   
                                 5557   ;;	PB6C1  = 1;		// PortB Bit6 set to CMOS Output...
                                 5558   CLINEA 0000H 0001H 0587H 0002H 0031H
00:0050 E0-A0 5B-F2              5559   	sb	0f25bh.6
                                 5560   
                                 5561   ;;	PB6C0  = 1;	
                                 5562   CLINEA 0000H 0001H 0588H 0002H 000DH
00:0054 E0-A0 5A-F2              5563   	sb	0f25ah.6
                                 5564   
                                 5565   ;;	PB7C1  = 1;		// PortB Bit7 set to CMOS Output...
                                 5566   CLINEA 0000H 0001H 0589H 0002H 0031H
00:0058 F0-A0 5B-F2              5567   	sb	0f25bh.7
                                 5568   
                                 5569   ;;	PB7C0  = 1;	
                                 5570   CLINEA 0000H 0001H 058AH 0002H 000DH
00:005C F0-A0 5A-F2              5571   	sb	0f25ah.7
                                 5572   
                                 5573   ;;	PB0MD1  = 0;	// PortB Bit0 set to General Purpose Output...
                                 5574   CLINEA 0000H 0001H 058DH 0002H 003CH
00:0060 82-A0 5D-F2              5575   	rb	0f25dh.0
                                 5576   
                                 5577   ;;	PB0MD0  = 0;	
                                 5578   CLINEA 0000H 0001H 058EH 0002H 000EH
00:0064 82-A0 5C-F2              5579   	rb	0f25ch.0
                                 5580   
                                 5581   ;;	PB1MD1  = 0;	// PortB Bit1 set to General Purpose Output...
                                 5582   CLINEA 0000H 0001H 058FH 0002H 003CH
00:0068 92-A0 5D-F2              5583   	rb	0f25dh.1
                                 5584   
                                 5585   ;;	PB1MD0  = 0;	
                                 5586   CLINEA 0000H 0001H 0590H 0002H 000EH
00:006C 92-A0 5C-F2              5587   	rb	0f25ch.1
                                 5588   
                                 5589   ;;	PB2MD1  = 0;	// PortB Bit2 set to General Purpose Output...
                                 5590   CLINEA 0000H 0001H 0591H 0002H 003CH
00:0070 A2-A0 5D-F2              5591   	rb	0f25dh.2
                                 5592   
                                 5593   ;;	PB2MD0  = 0;	
                                 5594   CLINEA 0000H 0001H 0592H 0002H 000EH
00:0074 A2-A0 5C-F2              5595   	rb	0f25ch.2
                                 5596   
                                 5597   ;;	PB3MD1  = 0;	// PortB Bit3 set to General Purpose Output...
                                 5598   CLINEA 0000H 0001H 0593H 0002H 003CH
00:0078 B2-A0 5D-F2              5599   	rb	0f25dh.3
                                 5600   
                                 5601   ;;	PB3MD0  = 0;	
                                 5602   CLINEA 0000H 0001H 0594H 0002H 000EH
00:007C B2-A0 5C-F2              5603   	rb	0f25ch.3
                                 5604   
                                 5605   ;;	PB4MD1  = 0;	// PortB Bit4 set to General Purpose Output...
                                 5606   CLINEA 0000H 0001H 0595H 0002H 003CH
00:0080 C2-A0 5D-F2              5607   	rb	0f25dh.4
                                 5608   
                                 5609   ;;	PB4MD0  = 0;	
                                 5610   CLINEA 0000H 0001H 0596H 0002H 000EH
00:0084 C2-A0 5C-F2              5611   	rb	0f25ch.4
                                 5612   
                                 5613   ;;	PB5MD1  = 0;	// PortB Bit5 set to General Purpose Output...
                                 5614   CLINEA 0000H 0001H 0597H 0002H 003CH
00:0088 D2-A0 5D-F2              5615   	rb	0f25dh.5
                                 5616   
                                 5617   ;;	PB5MD0  = 0;
                                 5618   CLINEA 0000H 0001H 0598H 0002H 000DH
00:008C D2-A0 5C-F2              5619   	rb	0f25ch.5
                                 5620   
                                 5621   ;;	PB6MD1  = 0;	// PortB Bit6 set to General Purpose Output...
                                 5622   CLINEA 0000H 0001H 0599H 0002H 003CH
00:0090 E2-A0 5D-F2              5623   	rb	0f25dh.6
                                 5624   
                                 5625   ;;	PB6MD0  = 0;	
                                 5626   CLINEA 0000H 0001H 059AH 0002H 000EH
00:0094 E2-A0 5C-F2              5627   	rb	0f25ch.6
                                 5628   
                                 5629   ;;	PB7MD1  = 0;	// PortB Bit7 set to General Purpose Output...
                                 5630   CLINEA 0000H 0001H 059BH 0002H 003CH
00:0098 F2-A0 5D-F2              5631   	rb	0f25dh.7
                                 5632   
                                 5633   ;;	PB7MD0  = 0;
                                 5634   CLINEA 0000H 0001H 059CH 0002H 000DH
00:009C F2-A0 5C-F2              5635   	rb	0f25ch.7
                                 5636   
                                 5637   ;;	PB0D = 0;		// B.0 Output OFF....
                                 5638   CLINEA 0000H 0001H 059FH 0002H 0021H
00:00A0 82-A0 58-F2              5639   	rb	0f258h.0
                                 5640   
                                 5641   ;;	PB1D = 0;		// B.1 Output OFF....
                                 5642   CLINEA 0000H 0001H 05A0H 0002H 0021H
00:00A4 92-A0 58-F2              5643   	rb	0f258h.1
                                 5644   
                                 5645   ;;	PB2D = 0;		// B.2 Output OFF....
                                 5646   CLINEA 0000H 0001H 05A1H 0002H 0021H
00:00A8 A2-A0 58-F2              5647   	rb	0f258h.2
                                 5648   
                                 5649   ;;	PB3D = 0;		// B.3 Output OFF....
                                 5650   CLINEA 0000H 0001H 05A2H 0002H 0021H
00:00AC B2-A0 58-F2              5651   	rb	0f258h.3
                                 5652   
                                 5653   ;;	PB4D = 0;		// B.4 Output OFF....
                                 5654   CLINEA 0000H 0001H 05A3H 0002H 0021H
00:00B0 C2-A0 58-F2              5655   	rb	0f258h.4
                                 5656   
                                 5657   ;;	PB5D = 0;		// B.5 Output OFF....
                                 5658   CLINEA 0000H 0001H 05A4H 0002H 0021H
00:00B4 D2-A0 58-F2              5659   	rb	0f258h.5
                                 5660   
                                 5661   ;;	PB6D = 0;		// B.6 Output OFF....
                                 5662   CLINEA 0000H 0001H 05A5H 0002H 0021H
00:00B8 E2-A0 58-F2              5663   	rb	0f258h.6
                                 5664   
                                 5665   ;;	PB7D = 0;		// B.7 Output OFF....
                                 5666   CLINEA 0000H 0001H 05A6H 0002H 0021H
00:00BC F2-A0 58-F2              5667   	rb	0f258h.7
                                 5668   
                                 5669   ;;	main_clrWDT(); 	// Clear WDT
                                 5670   CLINEA 0000H 0001H 05A8H 0002H 001DH
00:00C0 00-F0'00-00'             5671   	b	_main_clrWDT
                                 5672   CBLOCKEND 129 2 1450
                                 5673   CLINEA 0000H 0001H 05AAH 0001H 0001H
                                 5674   CBLOCKEND 129 1 1450
                                 5675   CFUNCTIONEND 129
                                 5676   
                                 5677   
  --------------------------     5678   	rseg $$PortC_Low$main
                                 5679   CFUNCTION 130
                                 5680   
00:0000                          5681   _PortC_Low	:
                                 5682   CBLOCK 130 1 1456
                                 5683   
                                 5684   ;;void PortC_Low(void){
                                 5685   CLINEA 0000H 0001H 05B0H 0001H 0015H
                                 5686   CBLOCK 130 2 1456
                                 5687   
                                 5688   ;;	PC0DIR = 0;		// PortC Bit0 set to Output Mode...
                                 5689   CLINEA 0000H 0001H 05BAH 0002H 0031H
00:0000 82-A0 61-F2              5690   	rb	0f261h.0
                                 5691   
                                 5692   ;;	PC1DIR = 0;		// PortC Bit1 set to Output Mode...
                                 5693   CLINEA 0000H 0001H 05BBH 0002H 0031H
00:0004 92-A0 61-F2              5694   	rb	0f261h.1
                                 5695   
                                 5696   ;;	PC2DIR = 0;		// PortC Bit2 set to Output Mode...
                                 5697   CLINEA 0000H 0001H 05BCH 0002H 0031H
00:0008 A2-A0 61-F2              5698   	rb	0f261h.2
                                 5699   
                                 5700   ;;	PC3DIR = 0;		// PortC Bit3 set to Output Mode...
                                 5701   CLINEA 0000H 0001H 05BDH 0002H 0031H
00:000C B2-A0 61-F2              5702   	rb	0f261h.3
                                 5703   
                                 5704   ;;	PC4DIR = 0;		// PortC Bit4 set to Output Mode...
                                 5705   CLINEA 0000H 0001H 05BEH 0002H 0031H
00:0010 C2-A0 61-F2              5706   	rb	0f261h.4
                                 5707   
                                 5708   ;;	PC5DIR = 0;		// PortC Bit5 set to Output Mode...
                                 5709   CLINEA 0000H 0001H 05BFH 0002H 0031H
00:0014 D2-A0 61-F2              5710   	rb	0f261h.5
                                 5711   
                                 5712   ;;	PC6DIR = 0;		// PortC Bit6 set to Output Mode...
                                 5713   CLINEA 0000H 0001H 05C0H 0002H 0031H
00:0018 E2-A0 61-F2              5714   	rb	0f261h.6
                                 5715   
                                 5716   ;;	PC7DIR = 0;		// PortC Bit7 set to Output Mode...
                                 5717   CLINEA 0000H 0001H 05C1H 0002H 0031H
00:001C F2-A0 61-F2              5718   	rb	0f261h.7
                                 5719   
                                 5720   ;;	PC0C1  = 1;		// PortC Bit0 set to High-Impedance Output...
                                 5721   CLINEA 0000H 0001H 05C4H 0002H 003BH
00:0020 80-A0 63-F2              5722   	sb	0f263h.0
                                 5723   
                                 5724   ;;	PC0C0  = 1;		
                                 5725   CLINEA 0000H 0001H 05C5H 0002H 000EH
00:0024 80-A0 62-F2              5726   	sb	0f262h.0
                                 5727   
                                 5728   ;;	PC1C1  = 1;		// PortC Bit1 set to High-Impedance Output...
                                 5729   CLINEA 0000H 0001H 05C6H 0002H 003BH
00:0028 90-A0 63-F2              5730   	sb	0f263h.1
                                 5731   
                                 5732   ;;	PC1C0  = 1;	
                                 5733   CLINEA 0000H 0001H 05C7H 0002H 000DH
00:002C 90-A0 62-F2              5734   	sb	0f262h.1
                                 5735   
                                 5736   ;;	PC2C1  = 1;		// PortC Bit2 set to High-Impedance Output...
                                 5737   CLINEA 0000H 0001H 05C8H 0002H 003BH
00:0030 A0-A0 63-F2              5738   	sb	0f263h.2
                                 5739   
                                 5740   ;;	PC2C0  = 1;	
                                 5741   CLINEA 0000H 0001H 05C9H 0002H 000DH
00:0034 A0-A0 62-F2              5742   	sb	0f262h.2
                                 5743   
                                 5744   ;;	PC3C1  = 1;		// PortC Bit3 set to High-Impedance Output...
                                 5745   CLINEA 0000H 0001H 05CAH 0002H 003BH
00:0038 B0-A0 63-F2              5746   	sb	0f263h.3
                                 5747   
                                 5748   ;;	PC3C0  = 1;		
                                 5749   CLINEA 0000H 0001H 05CBH 0002H 000EH
00:003C B0-A0 62-F2              5750   	sb	0f262h.3
                                 5751   
                                 5752   ;;	PC4C1  = 1;		// PortC Bit4 set to High-Impedance Output...
                                 5753   CLINEA 0000H 0001H 05CCH 0002H 003BH
00:0040 C0-A0 63-F2              5754   	sb	0f263h.4
                                 5755   
                                 5756   ;;	PC4C0  = 1;	
                                 5757   CLINEA 0000H 0001H 05CDH 0002H 000DH
00:0044 C0-A0 62-F2              5758   	sb	0f262h.4
                                 5759   
                                 5760   ;;	PC5C1  = 1;		// PortC Bit5 set to High-Impedance Output...
                                 5761   CLINEA 0000H 0001H 05CEH 0002H 003BH
00:0048 D0-A0 63-F2              5762   	sb	0f263h.5
                                 5763   
                                 5764   ;;	PC5C0  = 1;	
                                 5765   CLINEA 0000H 0001H 05CFH 0002H 000DH
00:004C D0-A0 62-F2              5766   	sb	0f262h.5
                                 5767   
                                 5768   ;;	PC6C1  = 1;		// PortC Bit6 set to High-Impedance Output...
                                 5769   CLINEA 0000H 0001H 05D0H 0002H 003BH
00:0050 E0-A0 63-F2              5770   	sb	0f263h.6
                                 5771   
                                 5772   ;;	PC6C0  = 1;	
                                 5773   CLINEA 0000H 0001H 05D1H 0002H 000DH
00:0054 E0-A0 62-F2              5774   	sb	0f262h.6
                                 5775   
                                 5776   ;;	PC7C1  = 1;		// PortC Bit7 set to High-Impedance Output...
                                 5777   CLINEA 0000H 0001H 05D2H 0002H 003BH
00:0058 F0-A0 63-F2              5778   	sb	0f263h.7
                                 5779   
                                 5780   ;;	PC7C0  = 1;	
                                 5781   CLINEA 0000H 0001H 05D3H 0002H 000DH
00:005C F0-A0 62-F2              5782   	sb	0f262h.7
                                 5783   
                                 5784   ;;	PC0MD1  = 0;	// PortC Bit0 set to General Purpose Output...
                                 5785   CLINEA 0000H 0001H 05D6H 0002H 003CH
00:0060 82-A0 65-F2              5786   	rb	0f265h.0
                                 5787   
                                 5788   ;;	PC0MD0  = 0;	
                                 5789   CLINEA 0000H 0001H 05D7H 0002H 000EH
00:0064 82-A0 64-F2              5790   	rb	0f264h.0
                                 5791   
                                 5792   ;;	PC1MD1  = 0;	// PortC Bit1 set to General Purpose Output...
                                 5793   CLINEA 0000H 0001H 05D8H 0002H 003CH
00:0068 92-A0 65-F2              5794   	rb	0f265h.1
                                 5795   
                                 5796   ;;	PC1MD0  = 0;	
                                 5797   CLINEA 0000H 0001H 05D9H 0002H 000EH
00:006C 92-A0 64-F2              5798   	rb	0f264h.1
                                 5799   
                                 5800   ;;	PC2MD1  = 0;	// PortC Bit2 set to General Purpose Output...
                                 5801   CLINEA 0000H 0001H 05DAH 0002H 003CH
00:0070 A2-A0 65-F2              5802   	rb	0f265h.2
                                 5803   
                                 5804   ;;	PC2MD0  = 0;	
                                 5805   CLINEA 0000H 0001H 05DBH 0002H 000EH
00:0074 A2-A0 64-F2              5806   	rb	0f264h.2
                                 5807   
                                 5808   ;;	PC3MD1  = 0;	// PortC Bit3 set to General Purpose Output...
                                 5809   CLINEA 0000H 0001H 05DCH 0002H 003CH
00:0078 B2-A0 65-F2              5810   	rb	0f265h.3
                                 5811   
                                 5812   ;;	PC3MD0  = 0;	
                                 5813   CLINEA 0000H 0001H 05DDH 0002H 000EH
00:007C B2-A0 64-F2              5814   	rb	0f264h.3
                                 5815   
                                 5816   ;;	PC4MD1  = 0;	// PortC Bit4 set to General Purpose Output...
                                 5817   CLINEA 0000H 0001H 05DEH 0002H 003CH
00:0080 C2-A0 65-F2              5818   	rb	0f265h.4
                                 5819   
                                 5820   ;;	PC4MD0  = 0;	
                                 5821   CLINEA 0000H 0001H 05DFH 0002H 000EH
00:0084 C2-A0 64-F2              5822   	rb	0f264h.4
                                 5823   
                                 5824   ;;	PC5MD1  = 0;	// PortC Bit5 set to General Purpose Output...
                                 5825   CLINEA 0000H 0001H 05E0H 0002H 003CH
00:0088 D2-A0 65-F2              5826   	rb	0f265h.5
                                 5827   
                                 5828   ;;	PC5MD0  = 0;
                                 5829   CLINEA 0000H 0001H 05E1H 0002H 000DH
00:008C D2-A0 64-F2              5830   	rb	0f264h.5
                                 5831   
                                 5832   ;;	PC6MD1  = 0;	// PortC Bit6 set to General Purpose Output...
                                 5833   CLINEA 0000H 0001H 05E2H 0002H 003CH
00:0090 E2-A0 65-F2              5834   	rb	0f265h.6
                                 5835   
                                 5836   ;;	PC6MD0  = 0;	
                                 5837   CLINEA 0000H 0001H 05E3H 0002H 000EH
00:0094 E2-A0 64-F2              5838   	rb	0f264h.6
                                 5839   
                                 5840   ;;	PC7MD1  = 0;	// PortC Bit7 set to General Purpose Output...
                                 5841   CLINEA 0000H 0001H 05E4H 0002H 003CH
00:0098 F2-A0 65-F2              5842   	rb	0f265h.7
                                 5843   
                                 5844   ;;	PC7MD0  = 0;
                                 5845   CLINEA 0000H 0001H 05E5H 0002H 000DH
00:009C F2-A0 64-F2              5846   	rb	0f264h.7
                                 5847   
                                 5848   ;;	PC0D = 0;		// C.0 Output OFF....
                                 5849   CLINEA 0000H 0001H 05E8H 0002H 0021H
00:00A0 82-A0 60-F2              5850   	rb	0f260h.0
                                 5851   
                                 5852   ;;	PC1D = 0;		// C.1 Output OFF....
                                 5853   CLINEA 0000H 0001H 05E9H 0002H 0021H
00:00A4 92-A0 60-F2              5854   	rb	0f260h.1
                                 5855   
                                 5856   ;;	PC2D = 0;		// C.2 Output OFF....
                                 5857   CLINEA 0000H 0001H 05EAH 0002H 0021H
00:00A8 A2-A0 60-F2              5858   	rb	0f260h.2
                                 5859   
                                 5860   ;;	PC3D = 0;		// C.3 Output OFF....
                                 5861   CLINEA 0000H 0001H 05EBH 0002H 0021H
00:00AC B2-A0 60-F2              5862   	rb	0f260h.3
                                 5863   
                                 5864   ;;	PC4D = 0;		// C.4 Output OFF....
                                 5865   CLINEA 0000H 0001H 05ECH 0002H 0021H
00:00B0 C2-A0 60-F2              5866   	rb	0f260h.4
                                 5867   
                                 5868   ;;	PC5D = 0;		// C.5 Output OFF....
                                 5869   CLINEA 0000H 0001H 05EDH 0002H 0021H
00:00B4 D2-A0 60-F2              5870   	rb	0f260h.5
                                 5871   
                                 5872   ;;	PC6D = 0;		// C.6 Output OFF....
                                 5873   CLINEA 0000H 0001H 05EEH 0002H 0021H
00:00B8 E2-A0 60-F2              5874   	rb	0f260h.6
                                 5875   
                                 5876   ;;	PC7D = 0;		// C.7 Output OFF....
                                 5877   CLINEA 0000H 0001H 05EFH 0002H 0021H
00:00BC F2-A0 60-F2              5878   	rb	0f260h.7
                                 5879   
                                 5880   ;;	main_clrWDT(); 	// Clear WDT
                                 5881   CLINEA 0000H 0001H 05F1H 0002H 001DH
00:00C0 00-F0'00-00'             5882   	b	_main_clrWDT
                                 5883   CBLOCKEND 130 2 1523
                                 5884   CLINEA 0000H 0001H 05F3H 0001H 0001H
                                 5885   CBLOCKEND 130 1 1523
                                 5886   CFUNCTIONEND 130
                                 5887   
                                 5888   
  --------------------------     5889   	rseg $$PortD_Low$main
                                 5890   CFUNCTION 131
                                 5891   
00:0000                          5892   _PortD_Low	:
                                 5893   CBLOCK 131 1 1529
                                 5894   
                                 5895   ;;void PortD_Low(void){
                                 5896   CLINEA 0000H 0001H 05F9H 0001H 0015H
                                 5897   CBLOCK 131 2 1529
                                 5898   
                                 5899   ;;	PD0DIR = 0;		// PortD Bit0 set to Output Mode...
                                 5900   CLINEA 0000H 0001H 0602H 0002H 0031H
00:0000 82-A0 69-F2              5901   	rb	0f269h.0
                                 5902   
                                 5903   ;;	PD1DIR = 0;		// PortD Bit1 set to Output Mode...
                                 5904   CLINEA 0000H 0001H 0603H 0002H 0031H
00:0004 92-A0 69-F2              5905   	rb	0f269h.1
                                 5906   
                                 5907   ;;	PD2DIR = 0;		// PortD Bit2 set to Output Mode...
                                 5908   CLINEA 0000H 0001H 0604H 0002H 0031H
00:0008 A2-A0 69-F2              5909   	rb	0f269h.2
                                 5910   
                                 5911   ;;	PD3DIR = 0;		// PortD Bit3 set to Output Mode...
                                 5912   CLINEA 0000H 0001H 0605H 0002H 0031H
00:000C B2-A0 69-F2              5913   	rb	0f269h.3
                                 5914   
                                 5915   ;;	PD4DIR = 0;		// PortD Bit4 set to Output Mode...
                                 5916   CLINEA 0000H 0001H 0606H 0002H 0031H
00:0010 C2-A0 69-F2              5917   	rb	0f269h.4
                                 5918   
                                 5919   ;;	PD5DIR = 0;		// PortD Bit5 set to Output Mode...
                                 5920   CLINEA 0000H 0001H 0607H 0002H 0031H
00:0014 D2-A0 69-F2              5921   	rb	0f269h.5
                                 5922   
                                 5923   ;;	PD0C1= 1;		// PortD Bit0 set to CMOS Output...
                                 5924   CLINEA 0000H 0001H 060AH 0002H 002FH
00:0018 80-A0 6B-F2              5925   	sb	0f26bh.0
                                 5926   
                                 5927   ;;	PD0C0= 1;		
                                 5928   CLINEA 0000H 0001H 060BH 0002H 000CH
00:001C 80-A0 6A-F2              5929   	sb	0f26ah.0
                                 5930   
                                 5931   ;;	PD1C1= 1;		// PortD Bit1 set to CMOS Output...
                                 5932   CLINEA 0000H 0001H 060CH 0002H 002FH
00:0020 90-A0 6B-F2              5933   	sb	0f26bh.1
                                 5934   
                                 5935   ;;	PD1C0= 1;	
                                 5936   CLINEA 0000H 0001H 060DH 0002H 000BH
00:0024 90-A0 6A-F2              5937   	sb	0f26ah.1
                                 5938   
                                 5939   ;;	PD2C1= 1;		// PortD Bit2 set to CMOS Output...
                                 5940   CLINEA 0000H 0001H 060EH 0002H 002FH
00:0028 A0-A0 6B-F2              5941   	sb	0f26bh.2
                                 5942   
                                 5943   ;;	PD2C0= 1;	
                                 5944   CLINEA 0000H 0001H 060FH 0002H 000BH
00:002C A0-A0 6A-F2              5945   	sb	0f26ah.2
                                 5946   
                                 5947   ;;	PD3C1= 1;		// PortD Bit3 set to CMOS Output...
                                 5948   CLINEA 0000H 0001H 0610H 0002H 002FH
00:0030 B0-A0 6B-F2              5949   	sb	0f26bh.3
                                 5950   
                                 5951   ;;	PD3C0= 1;		
                                 5952   CLINEA 0000H 0001H 0611H 0002H 000CH
00:0034 B0-A0 6A-F2              5953   	sb	0f26ah.3
                                 5954   
                                 5955   ;;	PD4C1= 1;		// PortD Bit4 set to CMOS Output...
                                 5956   CLINEA 0000H 0001H 0612H 0002H 002FH
00:0038 C0-A0 6B-F2              5957   	sb	0f26bh.4
                                 5958   
                                 5959   ;;	PD4C0= 1;	
                                 5960   CLINEA 0000H 0001H 0613H 0002H 000BH
00:003C C0-A0 6A-F2              5961   	sb	0f26ah.4
                                 5962   
                                 5963   ;;	PD5C1= 1;		// PortD Bit5 set to CMOS Output...
                                 5964   CLINEA 0000H 0001H 0614H 0002H 002FH
00:0040 D0-A0 6B-F2              5965   	sb	0f26bh.5
                                 5966   
                                 5967   ;;	PD5C0= 1;	
                                 5968   CLINEA 0000H 0001H 0615H 0002H 000BH
00:0044 D0-A0 6A-F2              5969   	sb	0f26ah.5
                                 5970   
                                 5971   ;;	PD0D = 0;		// D.0 Output OFF....
                                 5972   CLINEA 0000H 0001H 0618H 0002H 0021H
00:0048 82-A0 68-F2              5973   	rb	0f268h.0
                                 5974   
                                 5975   ;;	PD1D = 0;		// D.1 Output OFF....
                                 5976   CLINEA 0000H 0001H 0619H 0002H 0021H
00:004C 92-A0 68-F2              5977   	rb	0f268h.1
                                 5978   
                                 5979   ;;	PD2D = 0;		// D.2 Output OFF....
                                 5980   CLINEA 0000H 0001H 061AH 0002H 0021H
00:0050 A2-A0 68-F2              5981   	rb	0f268h.2
                                 5982   
                                 5983   ;;	PD3D = 0;		// D.3 Output OFF....
                                 5984   CLINEA 0000H 0001H 061BH 0002H 0021H
00:0054 B2-A0 68-F2              5985   	rb	0f268h.3
                                 5986   
                                 5987   ;;	PD4D = 0;		// D.4 Output OFF....
                                 5988   CLINEA 0000H 0001H 061CH 0002H 0021H
00:0058 C2-A0 68-F2              5989   	rb	0f268h.4
                                 5990   
                                 5991   ;;	PD5D = 0;		// D.5 Output OFF....
                                 5992   CLINEA 0000H 0001H 061DH 0002H 0021H
00:005C D2-A0 68-F2              5993   	rb	0f268h.5
                                 5994   
                                 5995   ;;	main_clrWDT(); 	// Clear WDT
                                 5996   CLINEA 0000H 0001H 0620H 0002H 001DH
00:0060 00-F0'00-00'             5997   	b	_main_clrWDT
                                 5998   CBLOCKEND 131 2 1570
                                 5999   CLINEA 0000H 0001H 0622H 0001H 0001H
                                 6000   CBLOCKEND 131 1 1570
                                 6001   CFUNCTIONEND 131
                                 6002   
                                 6003   
  --------------------------     6004   	rseg $$PortA_Digital_Inputs$main
                                 6005   CFUNCTION 132
                                 6006   
00:0000                          6007   _PortA_Digital_Inputs	:
                                 6008   CBLOCK 132 1 1576
                                 6009   
                                 6010   ;;void PortA_Digital_Inputs(void){
                                 6011   CLINEA 0000H 0001H 0628H 0001H 0020H
                                 6012   CBLOCK 132 2 1576
                                 6013   
                                 6014   ;;	PA0DIR = 1;		// PortA Bit0 set to Input Mode...
                                 6015   CLINEA 0000H 0001H 0632H 0002H 0030H
00:0000 80-A0 51-F2              6016   	sb	0f251h.0
                                 6017   
                                 6018   ;;	PA1DIR = 1;		// PortA Bit1 set to Input Mode...
                                 6019   CLINEA 0000H 0001H 0633H 0002H 0030H
00:0004 90-A0 51-F2              6020   	sb	0f251h.1
                                 6021   
                                 6022   ;;	PA2DIR = 1;		// PortA Bit2 set to Input Mode...
                                 6023   CLINEA 0000H 0001H 0634H 0002H 0030H
00:0008 A0-A0 51-F2              6024   	sb	0f251h.2
                                 6025   
                                 6026   ;;	PA0C1  = 1;		// PortA Bit0 set to Input with Pull-Up Resistor...
                                 6027   CLINEA 0000H 0001H 0638H 0002H 0041H
00:000C 80-A0 53-F2              6028   	sb	0f253h.0
                                 6029   
                                 6030   ;;	PA0C0  = 0;		
                                 6031   CLINEA 0000H 0001H 0639H 0002H 000EH
00:0010 82-A0 52-F2              6032   	rb	0f252h.0
                                 6033   
                                 6034   ;;	PA1C1  = 1;		// PortA Bit1 set to Input with Pull-Up Resistor...
                                 6035   CLINEA 0000H 0001H 063AH 0002H 0041H
00:0014 90-A0 53-F2              6036   	sb	0f253h.1
                                 6037   
                                 6038   ;;	PA1C0  = 0;	
                                 6039   CLINEA 0000H 0001H 063BH 0002H 000DH
00:0018 92-A0 52-F2              6040   	rb	0f252h.1
                                 6041   
                                 6042   ;;	PA2C1  = 1;		// PortA Bit2 set to Input with Pull-Up Resistor...
                                 6043   CLINEA 0000H 0001H 063CH 0002H 0041H
00:001C A0-A0 53-F2              6044   	sb	0f253h.2
                                 6045   
                                 6046   ;;	PA2C0  = 0;	
                                 6047   CLINEA 0000H 0001H 063DH 0002H 000DH
00:0020 A2-A0 52-F2              6048   	rb	0f252h.2
                                 6049   
                                 6050   ;;	PA0MD1  = 0;	// PortA Bit0 set to General Purpose I/O...
                                 6051   CLINEA 0000H 0001H 0640H 0002H 0039H
00:0024 82-A0 55-F2              6052   	rb	0f255h.0
                                 6053   
                                 6054   ;;	PA0MD0  = 0;	
                                 6055   CLINEA 0000H 0001H 0641H 0002H 000EH
00:0028 82-A0 54-F2              6056   	rb	0f254h.0
                                 6057   
                                 6058   ;;	PA1MD1  = 0;	// PortA Bit1 set to General Purpose I/O...
                                 6059   CLINEA 0000H 0001H 0642H 0002H 0039H
00:002C 92-A0 55-F2              6060   	rb	0f255h.1
                                 6061   
                                 6062   ;;	PA1MD0  = 0;	
                                 6063   CLINEA 0000H 0001H 0643H 0002H 000EH
00:0030 92-A0 54-F2              6064   	rb	0f254h.1
                                 6065   
                                 6066   ;;	PA2MD1  = 0;	// PortA Bit2 set to General Purpose I/O...
                                 6067   CLINEA 0000H 0001H 0644H 0002H 0039H
00:0034 A2-A0 55-F2              6068   	rb	0f255h.2
                                 6069   
                                 6070   ;;	PA2MD0  = 0;	
                                 6071   CLINEA 0000H 0001H 0645H 0002H 000EH
00:0038 A2-A0 54-F2              6072   	rb	0f254h.2
                                 6073   
                                 6074   ;;	main_clrWDT(); 	// Clear WDT
                                 6075   CLINEA 0000H 0001H 0647H 0002H 001DH
00:003C 00-F0'00-00'             6076   	b	_main_clrWDT
                                 6077   CBLOCKEND 132 2 1609
                                 6078   CLINEA 0000H 0001H 0649H 0001H 0001H
                                 6079   CBLOCKEND 132 1 1609
                                 6080   CFUNCTIONEND 132
                                 6081   
                                 6082   
  --------------------------     6083   	rseg $$PinB0_PWM$main
                                 6084   CFUNCTION 133
                                 6085   
00:0000                          6086   _PinB0_PWM	:
                                 6087   CBLOCK 133 1 1617
                                 6088   
                                 6089   ;;void PinB0_PWM(void){
                                 6090   CLINEA 0000H 0001H 0651H 0001H 0015H
                                 6091   CBLOCK 133 2 1617
                                 6092   
                                 6093   ;;	PB0DIR = 0;		// PortB Bit0 set to Output Mode...
                                 6094   CLINEA 0000H 0001H 065DH 0002H 0031H
00:0000 82-A0 59-F2              6095   	rb	0f259h.0
                                 6096   
                                 6097   ;;	PB0C1  = 1;		// PortB Bit0 set to CMOS Output...
                                 6098   CLINEA 0000H 0001H 0660H 0002H 0031H
00:0004 80-A0 5B-F2              6099   	sb	0f25bh.0
                                 6100   
                                 6101   ;;	PB0C0  = 1;		
                                 6102   CLINEA 0000H 0001H 0661H 0002H 000EH
00:0008 80-A0 5A-F2              6103   	sb	0f25ah.0
                                 6104   
                                 6105   ;;	PB0MD1  = 0;	// PortB Bit0 set to PWM Output (0,1)...
                                 6106   CLINEA 0000H 0001H 0664H 0002H 0036H
00:000C 82-A0 5D-F2              6107   	rb	0f25dh.0
                                 6108   
                                 6109   ;;	PB0MD0  = 1;	
                                 6110   CLINEA 0000H 0001H 0665H 0002H 000EH
00:0010 80-A0 5C-F2              6111   	sb	0f25ch.0
                                 6112   
                                 6113   ;;	PCCS1 = 0;	//00= LS; 01=HS; 10=PLL
                                 6114   CLINEA 0000H 0001H 0669H 0002H 0023H
00:0014 92-A0 16-F9              6115   	rb	0f916h.1
                                 6116   
                                 6117   ;;	PCCS0 = 1;
                                 6118   CLINEA 0000H 0001H 066AH 0002H 000BH
00:0018 80-A0 16-F9              6119   	sb	0f916h.0
                                 6120   
                                 6121   ;;	PWCP = 4250;		// Init Period to (1=255kHz; 10=46kHz; 50=10kHz; 200=2.5kH; ; 3185 = 160Hz; 3400=150Hz; 4250=120Hz; 5000=102Hz)
                                 6122   CLINEA 0000H 0001H 066DH 0002H 007EH
00:001C 9A 00                    6123   	mov	r0,	#09ah
00:001E 10 01                    6124   	mov	r1,	#010h
00:0020 13-90 10-F9              6125   	st	er0,	0f910h
                                 6126   
                                 6127   ;;	PWCD =    12;		//12    ~  0.25 % duty cycle @ 160Hz
                                 6128   CLINEA 0000H 0001H 0677H 0002H 0034H
00:0024 0C E0                    6129   	mov	er0,	#12
00:0026 13-90 12-F9              6130   	st	er0,	0f912h
                                 6131   
                                 6132   ;;	PCRUN = 0;		// OFF to start
                                 6133   CLINEA 0000H 0001H 0679H 0002H 001CH
00:002A 82-A0 17-F9              6134   	rb	0f917h.0
                                 6135   CBLOCKEND 133 2 1659
                                 6136   
                                 6137   ;;}
                                 6138   CLINEA 0000H 0001H 067BH 0001H 0001H
00:002E 1F-FE                    6139   	rt
                                 6140   CBLOCKEND 133 1 1659
                                 6141   CFUNCTIONEND 133
                                 6142   
                                 6143   	public _checkI2C
                                 6144   	public _main_clrWDT
                                 6145   	public _main_reqNotHalt
                                 6146   	public _AckMCUConn
                                 6147   	public _InputRec
                                 6148   	public _PortA_Digital_Inputs
                                 6149   	public _main
                                 6150   	public _I2C_RX_Data
                                 6151   	public _PortD_Low
                                 6152   	public _NOP1000
                                 6153   	public _OutputRec
                                 6154   	public _PortC_Low
                                 6155   	public _HelloWorld
                                 6156   	public _PortB_Low
                                 6157   	public _InputStatus
                                 6158   	public _PortA_Low
                                 6159   	public _analog_comparator
                                 6160   	public _I2C_RX_REC
                                 6161   	public _I2C_TX_REC
                                 6162   	public _PinB0_PWM
                                 6163   	_RecWorld comm data 015h #00h
                                 6164   	__flgUartFin comm data 01h #00h
                                 6165   	_testI2C comm data 02h #00h
                                 6166   	_ret comm data 02h #00h
                                 6167   	_UART_VAR comm data 02h #00h
                                 6168   	__flgI2CFin comm data 01h #00h
                                 6169   	__reqNotHalt comm data 01h #00h
                                 6170   	_Q112ToQ111 comm data 016h #00h
                                 6171   	extrn code near : _irq_init
                                 6172   	extrn code near : _uart_PortSet
                                 6173   	extrn code near : _i2c_stop
                                 6174   	extrn code near : _i2c_startReceive
                                 6175   	extrn code near : _uart_startReceive
                                 6176   	extrn code near : _uart_init
                                 6177   	extrn code near : _i2c_continue
                                 6178   	extrn code near : _irq_di
                                 6179   	extrn code near : _irq_ei
                                 6180   	extrn code near : _irq_setHdr
                                 6181   	extrn code near : _uart_stop
                                 6182   	extrn code near : _uart_startSend
                                 6183   	extrn code near : _i2c_startSend
                                 6184   	extrn code near : _uart_continue
                                 6185   	extrn code near : _i2c_init
                                 6186   	extrn code : $$start_up
                                 6187   
  --------------------------     6188   	cseg #00h at 02h
00:0002 00-00'                   6189   	dw	$$start_up
                                 6190   
  --------------------------     6191   	rseg $$NINITTAB
??:0000 48 65 6C 6C 6F 20 57 6F  6192   	DB	"Hello World!  "
??:0008 72 6C 64 21 20 20         >>>   
??:000E 49 4E 50 5F 30 30 30 30  6193   	DB	"INP_00000000_00000000"
??:0016 30 30 30 30 5F 30 30 30   >>>   
??:001E 30 30 30 30 30 00         >>>   , 00H
??:0024 00                       6194   	db	00h
??:0025 49 4E 50 20 52 65 63 65  6195   	DB	"INP Received"
??:002D 69 76 65 64 00            >>>   , 00H
??:0032 00                       6196   	db	00h
??:0033 4F 55 54 20 52 65 63 65  6197   	DB	"OUT Received         "
??:003B 69 76 65 64 20 20 20 20   >>>   
??:0043 20 20 20 20 20 00         >>>   , 00H
??:0049 00                       6198   	db	00h
??:004A 4D 4C 36 31 30 51 31 31  6199   	DB	"ML610Q112 Connected!"
??:0052 32 20 43 6F 6E 6E 65 63   >>>   
??:005A 74 65 64 21 00            >>>   , 00H
??:005F 00                       6200   	db	00h
??:0060 49 32 43 54 58 20 43 4D  6201   	DB	"I2CTX CMD Recieved!"
??:0068 44 20 52 65 63 69 65 76   >>>   
??:0070 65 64 21 00               >>>   , 00H
??:0074 00                       6202   	db	00h
??:0075 49 32 43 52 58 20 43 4D  6203   	DB	"I2CRX CMD Recieved!"
??:007D 44 20 52 65 63 69 65 76   >>>   
??:0085 65 64 21 00               >>>   , 00H
??:0089 00                       6204   	db	00h
??:008A 49 32 43 2D 52 20 58 20  6205   	DB	"I2C-R X X X X X X X X"
??:0092 58 20 58 20 58 20 58 20   >>>   
??:009A 58 20 58 20 58 00         >>>   , 00H
??:00A0 00                       6206   	db	00h
??:00A1 50                       6207   	db	050h
??:00A2 01                       6208   	db	01h
??:00A3 50                       6209   	db	050h
??:00A4 02                       6210   	db	02h
??:00A5 50                       6211   	db	050h
??:00A6 03                       6212   	db	03h
??:00A7 5F                       6213   	db	05fh
??:00A8 07                       6214   	db	07h
                                 6215   
  --------------------------     6216   	rseg $$TAB_uartSetParam$main
00:0000                          6217   __uartSetParam :
00:0000 80-25                    6218   	dw	02580h
00:0002 00-00                    6219   	dw	00h
00:0004 00                       6220   	db	00h
00:0005 02                       6221   	db	02h
00:0006 00                       6222   	db	00h
00:0007 00                       6223   	db	00h
00:0008 00                       6224   	db	00h
00:0009 00                       6225   	align
                                 6226   
  --------------------------     6227   	rseg $$NINITVAR
00:0000                          6228   _HelloWorld :
00:0000                          6229   	ds	0eh
00:000E                          6230   _InputStatus :
00:000E                          6231   	ds	017h
00:0025                          6232   _InputRec :
00:0025                          6233   	ds	0eh
00:0033                          6234   _OutputRec :
00:0033                          6235   	ds	017h
00:004A                          6236   _AckMCUConn :
00:004A                          6237   	ds	016h
00:0060                          6238   _I2C_TX_REC :
00:0060                          6239   	ds	015h
00:0075                          6240   _I2C_RX_REC :
00:0075                          6241   	ds	015h
00:008A                          6242   _I2C_RX_Data :
00:008A                          6243   	ds	017h
00:00A1                          6244   _PLAY :
00:00A1                          6245   	ds	02h
00:00A3                          6246   _PAUSE :
00:00A3                          6247   	ds	02h
00:00A5                          6248   _STOP :
00:00A5                          6249   	ds	02h
00:00A7                          6250   _READ_NAME :
00:00A7                          6251   	ds	02h
                                 6252   
  --------------------------     6253   	rseg $$NVARmain
00:0000                          6254   _I2C_BUFF :
00:0000                          6255   	ds	02eh
00:002E                          6256   _I2CNumBytes :
00:002E                          6257   	ds	01h
00:002F                          6258   _Data2Str_temp :
00:002F                          6259   	ds	01h
00:0030                          6260   _RegAddr_temp :
00:0030                          6261   	ds	01h
00:0031                          6262   _Data3Str_temp :
00:0031                          6263   	ds	01h
00:0032                          6264   _I2CReceInfo :
00:0032                          6265   	ds	08h
00:003A                          6266   _Data0Str_temp :
00:003A                          6267   	ds	01h
00:003B                          6268   _Data1Str_temp :
00:003B                          6269   	ds	01h
00:003C                          6270   _Data4Str_temp :
00:003C                          6271   	ds	01h
00:003D                          6272   _Data5Str_temp :
00:003D                          6273   	ds	01h
00:003E                          6274   _Data6Str_temp :
00:003E                          6275   	ds	01h
00:003F                          6276   _Data7Str_temp :
00:003F                          6277   	ds	01h
00:0040                          6278   _I2CNumBytes_temp :
00:0040                          6279   	ds	01h
00:0041                          6280   _Data2Str :
00:0041                          6281   	ds	01h
00:0042                          6282   _Data3Str :
00:0042                          6283   	ds	01h
00:0043                          6284   _RegAddr :
00:0043                          6285   	ds	01h
00:0044                          6286   _Data0Str :
00:0044                          6287   	ds	01h
00:0045                          6288   _Data1Str :
00:0045                          6289   	ds	01h
00:0046                          6290   _I2CAdd :
00:0046                          6291   	ds	01h
00:0047                          6292   _chari :
00:0047                          6293   	ds	01h
00:0048                          6294   _charj :
00:0048                          6295   	ds	01h
00:0049                          6296   _chark :
00:0049                          6297   	ds	01h
00:004A                          6298   _Data6Str :
00:004A                          6299   	ds	01h
00:004B                          6300   	align
00:004C                          6301   _I2CSendInfo :
00:004C                          6302   	ds	08h
00:0054                          6303   _Data7Str :
00:0054                          6304   	ds	01h
00:0055                          6305   _Data4Str :
00:0055                          6306   	ds	01h
00:0056                          6307   _Data5Str :
00:0056                          6308   	ds	01h
00:0057                          6309   _I2CAdd_temp :
00:0057                          6310   	ds	01h
                                 6311   
  --------------------------     6312   	rseg $$NINITTAB
??:00A9 00                       6313   	align
                                 6314   
  --------------------------     6315   	rseg $$NINITVAR
00:00A9                          6316   	align
                                 6317   
                                 6318   	end



  Target       : ML610112 (nX-U8/100)
  Memory Model : SMALL
  Data   Model : NEAR
  ROM WINDOW   : (not specified)
  Internal RAM : E000H to EFFFH

  Errors   : 0
  Warnings : 0  (/Wrpeast)
  Lines    : 6318
