RASU8(ML610111)Relocatable Assembler, Ver.1.61.2    assemble list. page:   1 
 Source File: _output\_obj\main.asm
 Object File: _output\_obj\main.obj
 Date  : 2014/01/14 Tue.[17:07]
 Title : 
## Loc. Object                   Line   Source Statements

                                    1   ;; Compile Options : /TML610111 /MS /near /Icommon /Imain /Iirq /Itimer /Iclock /Itbc /Ipwm /Iuart /Ivolume /Iled /Ii2c /SS 256 /SD /Oa /Ot /W 1 /Ff /Fa_output\_obj\ 
                                    2   ;; Version Number  : Ver.3.31.4
                                    3   ;; File Name       : main.c
                                    4   
                                    5   	type (ML610111) 
                                    6   	fastfloat
                                    7   	model small, near
                                    8   	$$NVARmain segment data 2h #0h
                                    9   	$$NINITVAR segment data 2h #0h
                                   10   	$$NINITTAB segment table 2h any
                                   11   	$$Initialization$main segment code 2h #0h
                                   12   	$$NOP1000$main segment code 2h #0h
                                   13   	$$PinB0_PWM$main segment code 2h #0h
                                   14   	$$PortA_Digital_Inputs$main segment code 2h #0h
                                   15   	$$PortA_Low$main segment code 2h #0h
                                   16   	$$PortB_Low$main segment code 2h #0h
                                   17   	$$PortC_Low$main segment code 2h #0h
                                   18   	$$SetOSC$main segment code 2h #0h
                                   19   	$$TAB_uartSetParam$main segment table 2h #0h
                                   20   	$$_funcI2CFin$main segment code 2h #0h
                                   21   	$$_funcUartFin$main segment code 2h #0h
                                   22   	$$_intI2c$main segment code 2h #0h
                                   23   	$$_intUart$main segment code 2h #0h
                                   24   	$$analog_comparator$main segment code 2h #0h
                                   25   	$$checkI2C$main segment code 2h #0h
                                   26   	$$main$main segment code 2h #0h
                                   27   	$$main_clrWDT$main segment code 2h #0h
                                   28   	$$main_reqNotHalt$main segment code 2h #0h
                                   29   	STACKSEG 0100h
                                   30   CVERSION 3.31.4
                                   31   CGLOBAL 01H 03H 0000H "checkI2C" 08H 02H 87H 00H 81H 02H 00H 00H 07H
                                   32   CGLOBAL 01H 03H 0000H "main_clrWDT" 08H 02H 7CH 00H 80H 00H 00H 00H 07H
                                   33   CSGLOBAL 03H 0000H "_funcUartFin" 08H 02H 85H 00H 81H 02H 00H 00H 07H
                                   34   CGLOBAL 01H 03H 0000H "main_reqNotHalt" 08H 02H 88H 00H 80H 00H 00H 00H 07H
                                   35   CSGLOBAL 03H 0000H "Initialization" 08H 02H 7DH 00H 81H 04H 00H 00H 07H
                                   36   CGLOBAL 01H 03H 0000H "PortA_Digital_Inputs" 08H 02H 83H 00H 80H 00H 00H 00H 07H
                                   37   CGLOBAL 01H 03H 0000H "main" 08H 02H 8CH 00H 80H 08H 00H 00H 01H
                                   38   CSGLOBAL 03H 0000H "_intUart" 08H 02H 89H 00H 80H 00H 00H 00H 07H
                                   39   CGLOBAL 01H 03H 0000H "NOP1000" 08H 02H 8BH 00H 80H 00H 00H 00H 07H
                                   40   CSGLOBAL 03H 0000H "_intI2c" 08H 02H 8AH 00H 81H 02H 00H 00H 07H
                                   41   CSGLOBAL 03H 0000H "SetOSC" 08H 02H 7EH 00H 80H 00H 00H 00H 07H
                                   42   CGLOBAL 01H 03H 0000H "PortC_Low" 08H 02H 82H 00H 80H 00H 00H 00H 07H
                                   43   CGLOBAL 01H 03H 0000H "PortB_Low" 08H 02H 81H 00H 80H 00H 00H 00H 07H
                                   44   CGLOBAL 01H 03H 0000H "PortA_Low" 08H 02H 80H 00H 80H 00H 00H 00H 07H
                                   45   CGLOBAL 01H 03H 0000H "analog_comparator" 08H 02H 7FH 00H 80H 00H 00H 00H 07H
                                   46   CSGLOBAL 03H 0000H "_funcI2CFin" 08H 02H 86H 00H 81H 02H 00H 00H 07H
                                   47   CGLOBAL 01H 03H 0000H "PinB0_PWM" 08H 02H 84H 00H 80H 00H 00H 00H 07H
                                   48   CSTRUCTTAG 0000H 0000H 0006H 0003H 00000001H "_Notag"
                                   49   CSTRUCTMEM 52H 00000001H 00000000H "state" 02H 00H 00H
                                   50   CSTRUCTMEM 52H 00000002H 00000001H "state_sub" 02H 00H 00H
                                   51   CSTRUCTMEM 52H 00000005H 00000003H "reserve" 02H 00H 00H
                                   52   CSTRUCTTAG 0000H 0000H 0005H 0006H 0000000AH "_Notag"
                                   53   CSTRUCTMEM 42H 00000004H 00000000H "br" 02H 00H 02H
                                   54   CSTRUCTMEM 42H 00000001H 00000004H "lg" 02H 00H 00H
                                   55   CSTRUCTMEM 42H 00000001H 00000005H "pt" 02H 00H 00H
                                   56   CSTRUCTMEM 42H 00000001H 00000006H "stp" 02H 00H 00H
                                   57   CSTRUCTMEM 42H 00000001H 00000007H "neg" 02H 00H 00H
                                   58   CSTRUCTMEM 42H 00000001H 00000008H "dir" 02H 00H 00H
                                   59   CSTRUCTTAG 0000H 0000H 0004H 0002H 00000008H "_Notag"
                                   60   CSTRUCTMEM 43H 00000004H 00000000H "quot" 02H 00H 02H
                                   61   CSTRUCTMEM 43H 00000004H 00000004H "rem" 02H 00H 02H
                                   62   CSTRUCTTAG 0000H 0000H 0003H 0002H 00000004H "_Notag"
                                   63   CSTRUCTMEM 43H 00000002H 00000000H "quot" 02H 00H 01H
                                   64   CSTRUCTMEM 43H 00000002H 00000002H "rem" 02H 00H 01H
                                   65   CSTRUCTTAG 0000H 0000H 0002H 000CH 00000016H "_Notag"
                                   66   CSTRUCTMEM 42H 00000002H 00000000H "_Mode" 02H 00H 08H
                                   67   CSTRUCTMEM 43H 00000002H 00000002H "_Handle" 02H 00H 08H
                                   68   CSTRUCTMEM 42H 00000002H 00000004H "_Buf" 04H 03H 00H 00H 00H
                                   69   CSTRUCTMEM 42H 00000002H 00000006H "_Bend" 04H 03H 00H 00H 00H
                                   70   CSTRUCTMEM 42H 00000002H 00000008H "_Next" 04H 03H 00H 00H 00H
                                   71   CSTRUCTMEM 42H 00000002H 0000000AH "_Rend" 04H 03H 00H 00H 00H
                                   72   CSTRUCTMEM 42H 00000002H 0000000CH "_Rsave" 04H 03H 00H 00H 00H
                                   73   CSTRUCTMEM 42H 00000002H 0000000EH "_Wend" 04H 03H 00H 00H 00H
                                   74   CSTRUCTMEM 42H 00000002H 00000010H "_Back" 05H 01H 02H 00H 00H 00H
                                   75   CSTRUCTMEM 42H 00000001H 00000012H "_Cbuf" 02H 00H 00H
                                   76   CSTRUCTMEM 42H 00000001H 00000013H "_Nback" 02H 00H 00H
                                   77   CSTRUCTMEM 43H 00000002H 00000014H "_Tmpnam" 04H 03H 00H 00H 00H
                                   78   CSTRUCTTAG 0000H 0000H 0001H 0001H 00000004H "_Notag"
                                   79   CSTRUCTMEM 42H 00000004H 00000000H "_Off" 02H 00H 02H
                                   80   CSTRUCTTAG 0000H 0000H 0000H 0008H 00000001H "_Notag"
                                   81   CSTRUCTMEM 52H 00000001H 00000000H "b0" 02H 00H 00H
                                   82   CSTRUCTMEM 52H 00000001H 00000001H "b1" 02H 00H 00H
                                   83   CSTRUCTMEM 52H 00000001H 00000002H "b2" 02H 00H 00H
                                   84   CSTRUCTMEM 52H 00000001H 00000003H "b3" 02H 00H 00H
                                   85   CSTRUCTMEM 52H 00000001H 00000004H "b4" 02H 00H 00H
                                   86   CSTRUCTMEM 52H 00000001H 00000005H "b5" 02H 00H 00H
                                   87   CSTRUCTMEM 52H 00000001H 00000006H "b6" 02H 00H 00H
                                   88   CSTRUCTMEM 52H 00000001H 00000007H "b7" 02H 00H 00H
                                   89   CTYPEDEF 0000H 0000H 43H "_Ptrdifft" 02H 00H 01H
                                   90   CTYPEDEF 0000H 0000H 42H "_Sizet" 02H 00H 01H
                                   91   CTYPEDEF 0000H 0000H 43H "tUartSetParam" 04H 00H 05H 05H 00H
                                   92   CTYPEDEF 0000H 0000H 42H "size_t" 02H 00H 01H
                                   93   CTYPEDEF 0000H 0000H 43H "cbfUart" 0AH 03H 00H 02H 5EH 00H 00H 00H 00H 00H 07H
                                   94   CTYPEDEF 0000H 0000H 43H "fpos_t" 04H 00H 05H 01H 00H
                                   95   CTYPEDEF 0000H 0000H 43H "STRUCT_STATE" 04H 00H 05H 06H 00H
                                   96   CTYPEDEF 0000H 0000H 43H "cbfI2c" 0AH 03H 00H 02H 73H 00H 00H 00H 00H 00H 07H
                                   97   CTYPEDEF 0000H 0000H 03H "_Cmpfun_nf" 08H 02H 31H 00H 00H 00H 00H 00H 01H
                                   98   CTYPEDEF 0000H 0000H 03H "_Cmpfun_nn" 08H 02H 30H 00H 00H 00H 00H 00H 01H
                                   99   CTYPEDEF 0000H 0000H 03H "_Cmpfun_ff" 08H 02H 33H 00H 00H 00H 00H 00H 01H
                                  100   CTYPEDEF 0000H 0000H 03H "_Cmpfun_fn" 08H 02H 32H 00H 00H 00H 00H 00H 01H
                                  101   CTYPEDEF 0000H 0000H 43H "FILE" 04H 00H 05H 02H 00H
                                  102   CTYPEDEF 0000H 0000H 43H "div_t" 04H 00H 05H 03H 00H
                                  103   CTYPEDEF 0000H 0000H 43H "ldiv_t" 04H 00H 05H 04H 00H
                                  104   CTYPEDEF 0000H 0000H 43H "_BYTE_FIELD" 04H 00H 05H 00H 00H
                                  105   CGLOBAL 00H 42H 0015H "RecWorld" 05H 01H 15H 00H 00H 00H
                                  106   CGLOBAL 00H 42H 0001H "_flgUartFin" 02H 00H 00H
                                  107   CGLOBAL 01H 42H 003EH "NackMCUConn" 05H 01H 3EH 00H 00H 00H
                                  108   CSGLOBAL 42H 002EH "I2C_BUFF" 05H 01H 2EH 00H 00H 00H
                                  109   CSGLOBAL 42H 0001H "I2CNumBytes" 02H 00H 00H
                                  110   CSGLOBAL 42H 0001H "Data2Str_temp" 02H 00H 00H
                                  111   CSGLOBAL 42H 0001H "RegAddr_temp" 02H 00H 00H
                                  112   CSGLOBAL 42H 0001H "Data3Str_temp" 02H 00H 00H
                                  113   CGLOBAL 00H 42H 0002H "testI2C" 02H 00H 01H
                                  114   CGLOBAL 00H 42H 0002H "ret" 02H 00H 01H
                                  115   CSGLOBAL 42H 0008H "I2CReceInfo" 05H 01H 08H 00H 00H 00H
                                  116   CSGLOBAL 42H 0001H "Data0Str_temp" 02H 00H 00H
                                  117   CSGLOBAL 42H 0001H "Data1Str_temp" 02H 00H 00H
                                  118   CSGLOBAL 42H 0001H "Data4Str_temp" 02H 00H 00H
                                  119   CSGLOBAL 42H 0001H "Data5Str_temp" 02H 00H 00H
                                  120   CGLOBAL 00H 42H 0002H "UART_VAR" 02H 00H 01H
                                  121   CSGLOBAL 42H 0001H "Data6Str_temp" 02H 00H 00H
                                  122   CSGLOBAL 42H 0001H "Data7Str_temp" 02H 00H 00H
                                  123   CGLOBAL 01H 42H 0016H "AckMCUConn" 05H 01H 16H 00H 00H 00H
                                  124   CGLOBAL 01H 42H 000EH "InputRec" 05H 01H 0EH 00H 00H 00H
                                  125   CSGLOBAL 42H 0001H "I2CNumBytes_temp" 02H 00H 00H
                                  126   CSGLOBAL 01H 000AH "_uartSetParam" 04H 00H 05H 05H 00H
                                  127   CSGLOBAL 42H 0001H "Data2Str" 02H 00H 00H
                                  128   CSGLOBAL 42H 0001H "Data3Str" 02H 00H 00H
                                  129   CSGLOBAL 42H 0001H "RegAddr" 02H 00H 00H
                                  130   CGLOBAL 01H 42H 0017H "I2C_RX_Data" 05H 01H 17H 00H 00H 00H
                                  131   CGLOBAL 01H 42H 0016H "ListFWRev" 05H 01H 16H 00H 00H 00H
                                  132   CSGLOBAL 42H 0001H "Data0Str" 02H 00H 00H
                                  133   CSGLOBAL 42H 0001H "Data1Str" 02H 00H 00H
                                  134   CGLOBAL 01H 42H 0017H "OutputRec" 05H 01H 17H 00H 00H 00H
                                  135   CSGLOBAL 42H 0001H "I2CAdd" 02H 00H 00H
                                  136   CSGLOBAL 42H 0001H "chari" 02H 00H 00H
                                  137   CSGLOBAL 42H 0001H "charj" 02H 00H 00H
                                  138   CSGLOBAL 42H 0001H "chark" 02H 00H 00H
                                  139   CGLOBAL 01H 42H 000EH "HelloWorld" 05H 01H 0EH 00H 00H 00H
                                  140   CGLOBAL 00H 42H 0001H "_flgI2CFin" 02H 00H 00H
                                  141   CGLOBAL 00H 42H 0001H "_reqNotHalt" 02H 00H 00H
                                  142   CSGLOBAL 42H 0001H "Data6Str" 02H 00H 00H
                                  143   CGLOBAL 01H 42H 0017H "InputStatus" 05H 01H 17H 00H 00H 00H
                                  144   CSGLOBAL 42H 0008H "I2CSendInfo" 05H 01H 08H 00H 00H 00H
                                  145   CSGLOBAL 42H 0001H "Data7Str" 02H 00H 00H
                                  146   CSGLOBAL 42H 0001H "Data4Str" 02H 00H 00H
                                  147   CSGLOBAL 42H 0001H "Data5Str" 02H 00H 00H
                                  148   CGLOBAL 01H 42H 0015H "I2C_RX_REC" 05H 01H 15H 00H 00H 00H
                                  149   CGLOBAL 01H 42H 0015H "I2C_TX_REC" 05H 01H 15H 00H 00H 00H
                                  150   CSGLOBAL 42H 0001H "I2CAdd_temp" 02H 00H 00H
                                  151   CFILE 0001H 000007EEH "main\\ML610111.H"
                                  152   CFILE 0002H 000000EEH "main\\stdio.h"
                                  153   CFILE 0003H 0000007AH "main\\yvals.h"
                                  154   CFILE 0004H 000000D8H "main\\stdlib.h"
                                  155   CFILE 0005H 0000006FH "uart\\uart.h"
                                  156   CFILE 0006H 00000027H "common\\common.h"
                                  157   CFILE 0007H 00000028H "main\\mcu.h"
                                  158   CFILE 0008H 00000048H "irq\\irq.h"
                                  159   CFILE 0009H 00000045H "i2c\\i2c.h"
                                  160   CFILE 0000H 000005BFH "main\\main.c"
                                  161   
  --------------------------      162   	rseg $$main$main
                                  163   CFUNCTION 140
                                  164   
00:0000                           165   _main	:
                                  166   CBLOCK 140 1 232
                                  167   
                                  168   ;;{
                                  169   CLINEA 0000H 0001H 00E8H 0001H 0001H
                                  170   CBLOCK 140 2 232
                                  171   CLOCAL 4BH 0001H 0000H 0002H "char_a" 02H 00H 00H
                                  172   CLOCAL 4AH 0001H 0000H 0002H "uchar" 02H 00H 00H
                                  173   CLOCAL 4BH 0002H 0000H 0002H "inta" 02H 00H 01H
                                  174   CLOCAL 4BH 00C8H 0000H 0002H "table" 05H 01H 64H 00H 00H 01H
                                  175   CLOCAL 4AH 0002H 0000H 0002H "uint" 02H 00H 01H
                                  176   CLOCAL 4BH 0004H 0000H 0002H "long_a" 02H 00H 02H
                                  177   CLOCAL 4BH 0004H 0000H 0002H "delay" 02H 00H 02H
                                  178   CLOCAL 4BH 0004H 0000H 0002H "float_a" 02H 00H 03H
                                  179   CLOCAL 4BH 0008H 0000H 0002H "double_a" 02H 00H 04H
                                  180   CLOCAL 4AH 0001H 0000H 0002H "button_flag" 02H 00H 00H
                                  181   CLOCAL 47H 0002H 0024H 0002H "i" 02H 00H 01H
                                  182   CLOCAL 4BH 0002H 0000H 0002H "j" 02H 00H 01H
                                  183   CLOCAL 4BH 0002H 0000H 0002H "k" 02H 00H 01H
                                  184   CLOCAL 4BH 0002H 0000H 0002H "x" 02H 00H 01H
                                  185   CLOCAL 4BH 0002H 0000H 0002H "y" 02H 00H 01H
                                  186   CLOCAL 4AH 0001H 0000H 0002H "sndByte" 02H 00H 00H
                                  187   CLOCAL 46H 0002H 0026H 0002H "count" 02H 00H 01H
                                  188   CLOCAL 4BH 0001H 0000H 0002H "maskC" 02H 00H 00H
                                  189   
                                  190   ;;	Initialization();		//Ports, UART, Timers, Oscillator, Comparators, etc.
                                  191   CLINEA 0000H 0001H 00FBH 0002H 0048H
00:0000 01-F0'00-00'              192   	bl	_Initialization
                                  193   
                                  194   ;;RX_Loop:
                                  195   CLINEA 0000H 0001H 00FDH 0001H 0008H
                                  196   CLABEL 000CH "RX_Loop"
00:0004                           197   _$L12 :
                                  198   
                                  199   ;;		main_clrWDT();
                                  200   CLINEA 0000H 0001H 00FEH 0003H 0010H
00:0004 01-F0'00-00'              201   	bl	_main_clrWDT
                                  202   
                                  203   ;;		for (i=0;i<22;i++)
                                  204   CLINEA 0000H 0001H 0101H 0003H 0014H
00:0008 00 E0                     205   	mov	er0,	#0 
00:000A                           206   _$L15 :
                                  207   CBLOCK 140 3 258
                                  208   
                                  209   ;;			RecWorld[i] = 0;	
                                  210   CLINEA 0000H 0001H 0103H 0004H 0014H
00:000A 00 02                     211   	mov	r2,	#00h
00:000C 09-92 00-00'              212   	st	r2,	NEAR _RecWorld[er0]
                                  213   CBLOCKEND 140 3 260
                                  214   
                                  215   ;;		for (i=0;i<22;i++)
                                  216   CLINEA 0000H 0000H 0101H 0003H 0014H
00:0010 81 E0                     217   	add	er0,	#1 
00:0012 16 70                     218   	cmp	r0,	#016h
00:0014 00 51                     219   	cmpc	r1,	#00h
00:0016 F9 C5                     220   	blts	_$L15
                                  221   
                                  222   ;;		_flgUartFin = 0;
                                  223   CLINEA 0000H 0001H 0107H 0003H 0012H
00:0018 00 00                     224   	mov	r0,	#00h
00:001A 11-90 00-00'              225   	st	r0,	NEAR __flgUartFin
                                  226   
                                  227   ;;		uart_stop();
                                  228   CLINEA 0000H 0001H 0108H 0003H 000EH
00:001E 01-F0'00-00'              229   	bl	_uart_stop
                                  230   
                                  231   ;;		uart_startReceive(RecWorld, 21, _funcUartFin);
                                  232   CLINEA 0000H 0001H 0109H 0003H 0030H
00:0022 00'00                     233   	mov	r0,	#BYTE1 OFFSET __funcUartFin
00:0024 00'01                     234   	mov	r1,	#BYTE2 OFFSET __funcUartFin
00:0026 5E-F0                     235   	push	er0
00:0028 15 E2                     236   	mov	er2,	#21
00:002A 00'00                     237   	mov	r0,	#BYTE1 OFFSET _RecWorld
00:002C 00'01                     238   	mov	r1,	#BYTE2 OFFSET _RecWorld
00:002E 01-F0'00-00'              239   	bl	_uart_startReceive
00:0032 02 E1                     240   	add	sp,	#2 
                                  241   
                                  242   ;;		while(_flgUartFin != 1){
                                  243   CLINEA 0000H 0000H 010AH 0001H 000BH
00:0034 04 CE                     244   	bal	_$L424
                                  245   
                                  246   ;;		while(_flgUartFin != 1){
                                  247   CLINEA 0000H 0000H 010AH 0003H 001AH
00:0036                           248   _$L21 :
                                  249   CBLOCK 140 4 266
                                  250   
                                  251   ;;			NOP1000();
                                  252   CLINEA 0000H 0001H 010BH 0004H 000DH
00:0036 01-F0'00-00'              253   	bl	_NOP1000
                                  254   
                                  255   ;;			main_clrWDT();
                                  256   CLINEA 0000H 0001H 010CH 0004H 0011H
00:003A 01-F0'00-00'              257   	bl	_main_clrWDT
                                  258   CBLOCKEND 140 4 269
                                  259   
                                  260   ;;		while(_flgUartFin != 1){
                                  261   CLINEA 0000H 0000H 010AH 0001H 000BH
00:003E                           262   _$L424 :
00:003E 10-90 00-00'              263   	l	r0,	NEAR __flgUartFin
00:0042 01 70                     264   	cmp	r0,	#01h
00:0044 F8 C8                     265   	bne	_$L21
                                  266   
                                  267   ;;		if(RecWorld[0] == 0x41){			//if RECWORLD == "ACK1"
                                  268   CLINEA 0000H 0001H 0112H 0003H 0034H
00:0046 10-90 00-00'              269   	l	r0,	NEAR _RecWorld
00:004A 41 70                     270   	cmp	r0,	#041h
00:004C 02 C9                     271   	beq	_$M37
00:004E 00-F0'00-00'              272   	b	_$L41
00:0052                           273   _$M37 :
                                  274   CBLOCK 140 5 274
                                  275   
                                  276   ;;			if(RecWorld[1] == 0x43){
                                  277   CLINEA 0000H 0001H 0113H 0004H 001BH
00:0052 10-90 00-00'              278   	l	r0,	NEAR _RecWorld+01h
00:0056 43 70                     279   	cmp	r0,	#043h
00:0058 02 C9                     280   	beq	_$M38
00:005A 00-F0'00-00'              281   	b	_$L41
00:005E                           282   _$M38 :
                                  283   CBLOCK 140 6 275
                                  284   
                                  285   ;;				if(RecWorld[2] == 0x4B){
                                  286   CLINEA 0000H 0001H 0114H 0005H 001CH
00:005E 10-90 00-00'              287   	l	r0,	NEAR _RecWorld+02h
00:0062 4B 70                     288   	cmp	r0,	#04bh
00:0064 02 C9                     289   	beq	_$M39
00:0066 00-F0'00-00'              290   	b	_$L41
00:006A                           291   _$M39 :
                                  292   CBLOCK 140 7 276
00:006A 00 00                     293   	mov	r0,	#00h
00:006C 11-90 00-00'              294   	st	r0,	NEAR __flgUartFin
                                  295   
                                  296   ;;					if(RecWorld[3] == 0x31){
                                  297   CLINEA 0000H 0001H 0115H 0006H 001DH
00:0070 10-90 00-00'              298   	l	r0,	NEAR _RecWorld+03h
00:0074 31 70                     299   	cmp	r0,	#031h
00:0076 2C C8                     300   	bne	_$L29
                                  301   CBLOCK 140 8 277
                                  302   
                                  303   ;;						uart_stop();
                                  304   CLINEA 0000H 0001H 0117H 0007H 0012H
00:0078 01-F0'00-00'              305   	bl	_uart_stop
                                  306   
                                  307   ;;						uart_startSend(AckMCUConn, 22, _funcUartFin);
                                  308   CLINEA 0000H 0001H 0118H 0007H 0033H
00:007C 00'00                     309   	mov	r0,	#BYTE1 OFFSET __funcUartFin
00:007E 00'01                     310   	mov	r1,	#BYTE2 OFFSET __funcUartFin
00:0080 5E-F0                     311   	push	er0
00:0082 16 E2                     312   	mov	er2,	#22
00:0084 00'00                     313   	mov	r0,	#BYTE1 OFFSET _AckMCUConn
00:0086 00'01                     314   	mov	r1,	#BYTE2 OFFSET _AckMCUConn
00:0088 01-F0'00-00'              315   	bl	_uart_startSend
00:008C 02 E1                     316   	add	sp,	#2 
                                  317   
                                  318   ;;						while(_flgUartFin != 1){
                                  319   CLINEA 0000H 0000H 0119H 0001H 000BH
00:008E 04 CE                     320   	bal	_$L425
                                  321   
                                  322   ;;						while(_flgUartFin != 1){
                                  323   CLINEA 0000H 0000H 0119H 0007H 001EH
00:0090                           324   _$L33 :
                                  325   CBLOCK 140 9 281
                                  326   
                                  327   ;;							NOP1000();
                                  328   CLINEA 0000H 0001H 011AH 0008H 0011H
00:0090 01-F0'00-00'              329   	bl	_NOP1000
                                  330   
                                  331   ;;							main_clrWDT();
                                  332   CLINEA 0000H 0001H 011BH 0008H 0015H
00:0094 01-F0'00-00'              333   	bl	_main_clrWDT
                                  334   CBLOCKEND 140 9 284
                                  335   
                                  336   ;;						while(_flgUartFin != 1){
                                  337   CLINEA 0000H 0000H 0119H 0001H 000BH
00:0098                           338   _$L425 :
00:0098 10-90 00-00'              339   	l	r0,	NEAR __flgUartFin
00:009C 01 70                     340   	cmp	r0,	#01h
00:009E F8 C8                     341   	bne	_$L33
                                  342   
                                  343   ;;						_flgUartFin = 0;
                                  344   CLINEA 0000H 0001H 011DH 0007H 0016H
00:00A0 00 00                     345   	mov	r0,	#00h
00:00A2 11-90 00-00'              346   	st	r0,	NEAR __flgUartFin
                                  347   
                                  348   ;;						uart_stop();
                                  349   CLINEA 0000H 0001H 011EH 0007H 0012H
00:00A6 01-F0'00-00'              350   	bl	_uart_stop
                                  351   
                                  352   ;;						uart_startSend(ListFWRev, 22, _funcUartFin);
                                  353   CLINEA 0000H 0001H 011FH 0007H 0032H
00:00AA 00'00                     354   	mov	r0,	#BYTE1 OFFSET __funcUartFin
00:00AC 00'01                     355   	mov	r1,	#BYTE2 OFFSET __funcUartFin
00:00AE 5E-F0                     356   	push	er0
00:00B0 16 E2                     357   	mov	er2,	#22
00:00B2 00'00                     358   	mov	r0,	#BYTE1 OFFSET _ListFWRev
00:00B4 00'01                     359   	mov	r1,	#BYTE2 OFFSET _ListFWRev
00:00B6 01-F0'00-00'              360   	bl	_uart_startSend
00:00BA 02 E1                     361   	add	sp,	#2 
                                  362   
                                  363   ;;						while(_flgUartFin != 1){
                                  364   CLINEA 0000H 0000H 0120H 0001H 000BH
00:00BC 04 CE                     365   	bal	_$L426
                                  366   
                                  367   ;;						while(_flgUartFin != 1){
                                  368   CLINEA 0000H 0000H 0120H 0007H 001EH
00:00BE                           369   _$L37 :
                                  370   CBLOCK 140 10 288
                                  371   
                                  372   ;;							NOP1000();
                                  373   CLINEA 0000H 0001H 0121H 0008H 0011H
00:00BE 01-F0'00-00'              374   	bl	_NOP1000
                                  375   
                                  376   ;;							main_clrWDT();
                                  377   CLINEA 0000H 0001H 0122H 0008H 0015H
00:00C2 01-F0'00-00'              378   	bl	_main_clrWDT
                                  379   CBLOCKEND 140 10 291
                                  380   
                                  381   ;;						while(_flgUartFin != 1){
                                  382   CLINEA 0000H 0000H 0120H 0001H 000BH
00:00C6                           383   _$L426 :
00:00C6 10-90 00-00'              384   	l	r0,	NEAR __flgUartFin
00:00CA 01 70                     385   	cmp	r0,	#01h
00:00CC F8 C8                     386   	bne	_$L37
                                  387   
                                  388   ;;					else
                                  389   CLINEA 0000H 0001H 0125H 0006H 0009H
00:00CE 14 CE                     390   	bal	_$L41
00:00D0                           391   _$L29 :
                                  392   CBLOCK 140 11 294
                                  393   
                                  394   ;;						uart_stop();
                                  395   CLINEA 0000H 0001H 0128H 0007H 0012H
00:00D0 01-F0'00-00'              396   	bl	_uart_stop
                                  397   
                                  398   ;;						uart_startSend(NackMCUConn, 62, _funcUartFin);
                                  399   CLINEA 0000H 0001H 0129H 0007H 0034H
00:00D4 00'00                     400   	mov	r0,	#BYTE1 OFFSET __funcUartFin
00:00D6 00'01                     401   	mov	r1,	#BYTE2 OFFSET __funcUartFin
00:00D8 5E-F0                     402   	push	er0
00:00DA 3E E2                     403   	mov	er2,	#62
00:00DC 00'00                     404   	mov	r0,	#BYTE1 OFFSET _NackMCUConn
00:00DE 00'01                     405   	mov	r1,	#BYTE2 OFFSET _NackMCUConn
00:00E0 01-F0'00-00'              406   	bl	_uart_startSend
00:00E4 02 E1                     407   	add	sp,	#2 
                                  408   
                                  409   ;;						while(_flgUartFin != 1){
                                  410   CLINEA 0000H 0000H 012AH 0001H 000BH
00:00E6 04 CE                     411   	bal	_$L427
                                  412   
                                  413   ;;						while(_flgUartFin != 1){
                                  414   CLINEA 0000H 0000H 012AH 0007H 001EH
00:00E8                           415   _$L42 :
                                  416   CBLOCK 140 12 298
                                  417   
                                  418   ;;							NOP1000();
                                  419   CLINEA 0000H 0001H 012BH 0008H 0011H
00:00E8 01-F0'00-00'              420   	bl	_NOP1000
                                  421   
                                  422   ;;							main_clrWDT();
                                  423   CLINEA 0000H 0001H 012CH 0008H 0015H
00:00EC 01-F0'00-00'              424   	bl	_main_clrWDT
                                  425   CBLOCKEND 140 12 301
                                  426   
                                  427   ;;						while(_flgUartFin != 1){
                                  428   CLINEA 0000H 0000H 012AH 0001H 000BH
00:00F0                           429   _$L427 :
00:00F0 10-90 00-00'              430   	l	r0,	NEAR __flgUartFin
00:00F4 01 70                     431   	cmp	r0,	#01h
00:00F6 F8 C8                     432   	bne	_$L42
                                  433   
                                  434   ;;						}
                                  435   CLINEA 0000H 0000H 012DH 0007H 0007H
00:00F8                           436   _$L41 :
                                  437   CBLOCKEND 140 11 303
                                  438   CBLOCKEND 140 7 304
                                  439   CBLOCKEND 140 8 860
                                  440   CBLOCKEND 140 6 305
                                  441   CBLOCKEND 140 5 306
                                  442   
                                  443   ;;		if(RecWorld[0] == 0x49){			//if RECWORLD == "INC"
                                  444   CLINEA 0000H 0001H 0136H 0003H 0033H
00:00F8 10-90 00-00'              445   	l	r0,	NEAR _RecWorld
00:00FC 49 70                     446   	cmp	r0,	#049h
00:00FE 02 C9                     447   	beq	_$M40
00:0100 00-F0'00-00'              448   	b	_$L71
00:0104                           449   _$M40 :
                                  450   CBLOCK 140 13 310
                                  451   
                                  452   ;;			if(RecWorld[1] == 0x4E){
                                  453   CLINEA 0000H 0001H 0137H 0004H 001BH
00:0104 10-90 00-00'              454   	l	r0,	NEAR _RecWorld+01h
00:0108 4E 70                     455   	cmp	r0,	#04eh
00:010A 02 C9                     456   	beq	_$M41
00:010C 00-F0'00-00'              457   	b	_$L71
00:0110                           458   _$M41 :
                                  459   CBLOCK 140 14 311
                                  460   
                                  461   ;;				if(RecWorld[2] == 0x43){
                                  462   CLINEA 0000H 0001H 0138H 0005H 001CH
00:0110 10-90 00-00'              463   	l	r0,	NEAR _RecWorld+02h
00:0114 43 70                     464   	cmp	r0,	#043h
00:0116 02 C9                     465   	beq	_$M42
00:0118 00-F0'00-00'              466   	b	_$L71
00:011C                           467   _$M42 :
                                  468   CBLOCK 140 15 312
                                  469   
                                  470   ;;					InputStatus[2] = 0x43;
                                  471   CLINEA 0000H 0001H 0139H 0006H 001BH
00:011C 43 00                     472   	mov	r0,	#043h
00:011E 11-90 00-00'              473   	st	r0,	NEAR _InputStatus+02h
                                  474   
                                  475   ;;					InputRec[2] = 0x43;
                                  476   CLINEA 0000H 0001H 013AH 0006H 0018H
00:0122 11-90 00-00'              477   	st	r0,	NEAR _InputRec+02h
                                  478   
                                  479   ;;					for(count = 4; count < 12; count++)
                                  480   CLINEA 0000H 0001H 013BH 0006H 0028H
00:0126 04 E4                     481   	mov	er4,	#4 
00:0128                           482   _$L52 :
                                  483   CBLOCK 140 16 316
                                  484   
                                  485   ;;						RecWorld[count] -= 0x30;
                                  486   CLINEA 0000H 0001H 013DH 0007H 001EH
00:0128 48-92 00-00'              487   	l	r2,	NEAR _RecWorld[er4]
00:012C D0 12                     488   	add	r2,	#0d0h
00:012E 49-92 00-00'              489   	st	r2,	NEAR _RecWorld[er4]
                                  490   
                                  491   ;;						if(RecWorld[count] != (0x01||0x00)){
                                  492   CLINEA 0000H 0001H 013EH 0007H 002AH
00:0132 20-80                     493   	mov	r0,	r2
00:0134 01 70                     494   	cmp	r0,	#01h
00:0136 03 C9                     495   	beq	_$L64
                                  496   CBLOCK 140 17 318
                                  497   
                                  498   ;;							RecWorld[count] = 0;
                                  499   CLINEA 0000H 0001H 013FH 0008H 001BH
00:0138 00 02                     500   	mov	r2,	#00h
00:013A 49-92 00-00'              501   	st	r2,	NEAR _RecWorld[er4]
                                  502   CBLOCKEND 140 17 320
                                  503   
                                  504   ;;						}
                                  505   CLINEA 0000H 0000H 0140H 0007H 0007H
00:013E                           506   _$L64 :
                                  507   CBLOCKEND 140 16 321
                                  508   
                                  509   ;;					for(count = 4; count < 12; count++)
                                  510   CLINEA 0000H 0000H 013BH 0006H 0028H
00:013E 81 E4                     511   	add	er4,	#1 
00:0140 0C 74                     512   	cmp	r4,	#0ch
00:0142 00 55                     513   	cmpc	r5,	#00h
00:0144 F1 C1                     514   	blt	_$L52
                                  515   
                                  516   ;;					PC3DIR = RecWorld[8];
                                  517   CLINEA 0000H 0001H 0148H 0006H 001AH
00:0146 10-90 00-00'              518   	l	r0,	NEAR _RecWorld+08h
00:014A 01 20                     519   	and	r0,	#01h
00:014C 03 C9                     520   	beq	_$M1
00:014E B0-A0 61-F2               521   	sb	0f261h.3
00:0152 02 CE                     522   	bal	_$M2
00:0154                           523   _$M1 :
00:0154 B2-A0 61-F2               524   	rb	0f261h.3
00:0158                           525   _$M2 :
                                  526   
                                  527   ;;					PC2DIR = RecWorld[9];
                                  528   CLINEA 0000H 0001H 0149H 0006H 001AH
00:0158 10-90 00-00'              529   	l	r0,	NEAR _RecWorld+09h
00:015C 01 20                     530   	and	r0,	#01h
00:015E 03 C9                     531   	beq	_$M3
00:0160 A0-A0 61-F2               532   	sb	0f261h.2
00:0164 02 CE                     533   	bal	_$M4
00:0166                           534   _$M3 :
00:0166 A2-A0 61-F2               535   	rb	0f261h.2
00:016A                           536   _$M4 :
                                  537   
                                  538   ;;					PC1DIR = RecWorld[10];
                                  539   CLINEA 0000H 0001H 014AH 0006H 001BH
00:016A 10-90 00-00'              540   	l	r0,	NEAR _RecWorld+0ah
00:016E 01 20                     541   	and	r0,	#01h
00:0170 03 C9                     542   	beq	_$M5
00:0172 90-A0 61-F2               543   	sb	0f261h.1
00:0176 02 CE                     544   	bal	_$M6
00:0178                           545   _$M5 :
00:0178 92-A0 61-F2               546   	rb	0f261h.1
00:017C                           547   _$M6 :
                                  548   
                                  549   ;;					PC0DIR = RecWorld[11];
                                  550   CLINEA 0000H 0001H 014BH 0006H 001BH
00:017C 10-90 00-00'              551   	l	r0,	NEAR _RecWorld+0bh
00:0180 01 20                     552   	and	r0,	#01h
00:0182 03 C9                     553   	beq	_$M7
00:0184 80-A0 61-F2               554   	sb	0f261h.0
00:0188 02 CE                     555   	bal	_$M8
00:018A                           556   _$M7 :
00:018A 82-A0 61-F2               557   	rb	0f261h.0
00:018E                           558   _$M8 :
                                  559   
                                  560   ;;					InputStatus[4] = 0x78;
                                  561   CLINEA 0000H 0001H 014EH 0006H 001BH
00:018E 78 00                     562   	mov	r0,	#078h
00:0190 11-90 00-00'              563   	st	r0,	NEAR _InputStatus+04h
                                  564   
                                  565   ;;					InputStatus[5] = 0x78;
                                  566   CLINEA 0000H 0001H 014FH 0006H 001BH
00:0194 11-90 00-00'              567   	st	r0,	NEAR _InputStatus+05h
                                  568   
                                  569   ;;					InputStatus[6] = 0x78;
                                  570   CLINEA 0000H 0001H 0150H 0006H 001BH
00:0198 11-90 00-00'              571   	st	r0,	NEAR _InputStatus+06h
                                  572   
                                  573   ;;					InputStatus[7] = 0x78;
                                  574   CLINEA 0000H 0001H 0151H 0006H 001BH
00:019C 11-90 00-00'              575   	st	r0,	NEAR _InputStatus+07h
                                  576   
                                  577   ;;					InputStatus[8] = PC3DIR + 0x30;
                                  578   CLINEA 0000H 0001H 0152H 0006H 0024H
00:01A0 10-90 61-F2               579   	l	r0,	0f261h
00:01A4 3C-90                     580   	srl	r0,	#03h
00:01A6 01 20                     581   	and	r0,	#01h
00:01A8 30 10                     582   	add	r0,	#030h
00:01AA 11-90 00-00'              583   	st	r0,	NEAR _InputStatus+08h
                                  584   
                                  585   ;;					InputStatus[9] = PC2DIR + 0x30;
                                  586   CLINEA 0000H 0001H 0153H 0006H 0024H
00:01AE 10-90 61-F2               587   	l	r0,	0f261h
00:01B2 2C-90                     588   	srl	r0,	#02h
00:01B4 01 20                     589   	and	r0,	#01h
00:01B6 30 10                     590   	add	r0,	#030h
00:01B8 11-90 00-00'              591   	st	r0,	NEAR _InputStatus+09h
                                  592   
                                  593   ;;					InputStatus[10] = PC1DIR + 0x30;
                                  594   CLINEA 0000H 0001H 0154H 0006H 0025H
00:01BC 10-90 61-F2               595   	l	r0,	0f261h
00:01C0 1C-90                     596   	srl	r0,	#01h
00:01C2 01 20                     597   	and	r0,	#01h
00:01C4 30 10                     598   	add	r0,	#030h
00:01C6 11-90 00-00'              599   	st	r0,	NEAR _InputStatus+0ah
                                  600   
                                  601   ;;					InputStatus[11] = PC0DIR + 0x30;
                                  602   CLINEA 0000H 0001H 0155H 0006H 0025H
00:01CA 10-90 61-F2               603   	l	r0,	0f261h
00:01CE 01 20                     604   	and	r0,	#01h
00:01D0 30 10                     605   	add	r0,	#030h
00:01D2 11-90 00-00'              606   	st	r0,	NEAR _InputStatus+0bh
                                  607   
                                  608   ;;					InputStatus[13] = 0x78;
                                  609   CLINEA 0000H 0001H 0158H 0006H 001CH
00:01D6 78 00                     610   	mov	r0,	#078h
00:01D8 11-90 00-00'              611   	st	r0,	NEAR _InputStatus+0dh
                                  612   
                                  613   ;;					InputStatus[14] = 0x78;
                                  614   CLINEA 0000H 0001H 0159H 0006H 001CH
00:01DC 11-90 00-00'              615   	st	r0,	NEAR _InputStatus+0eh
                                  616   
                                  617   ;;					InputStatus[15] = 0x78;
                                  618   CLINEA 0000H 0001H 015AH 0006H 001CH
00:01E0 11-90 00-00'              619   	st	r0,	NEAR _InputStatus+0fh
                                  620   
                                  621   ;;					InputStatus[16] = 0x78;
                                  622   CLINEA 0000H 0001H 015BH 0006H 001CH
00:01E4 11-90 00-00'              623   	st	r0,	NEAR _InputStatus+010h
                                  624   
                                  625   ;;					InputStatus[17] = PC3D + 0x30;
                                  626   CLINEA 0000H 0001H 015CH 0006H 0023H
00:01E8 10-90 60-F2               627   	l	r0,	0f260h
00:01EC 3C-90                     628   	srl	r0,	#03h
00:01EE 01 20                     629   	and	r0,	#01h
00:01F0 30 10                     630   	add	r0,	#030h
00:01F2 11-90 00-00'              631   	st	r0,	NEAR _InputStatus+011h
                                  632   
                                  633   ;;					InputStatus[18] = PC2D + 0x30;
                                  634   CLINEA 0000H 0001H 015DH 0006H 0023H
00:01F6 10-90 60-F2               635   	l	r0,	0f260h
00:01FA 2C-90                     636   	srl	r0,	#02h
00:01FC 01 20                     637   	and	r0,	#01h
00:01FE 30 10                     638   	add	r0,	#030h
00:0200 11-90 00-00'              639   	st	r0,	NEAR _InputStatus+012h
                                  640   
                                  641   ;;					InputStatus[19] = PC1D + 0x30;
                                  642   CLINEA 0000H 0001H 015EH 0006H 0023H
00:0204 10-90 60-F2               643   	l	r0,	0f260h
00:0208 1C-90                     644   	srl	r0,	#01h
00:020A 01 20                     645   	and	r0,	#01h
00:020C 30 10                     646   	add	r0,	#030h
00:020E 11-90 00-00'              647   	st	r0,	NEAR _InputStatus+013h
                                  648   
                                  649   ;;					InputStatus[20] = PC0D + 0x30;
                                  650   CLINEA 0000H 0001H 015FH 0006H 0023H
00:0212 10-90 60-F2               651   	l	r0,	0f260h
00:0216 01 20                     652   	and	r0,	#01h
00:0218 30 10                     653   	add	r0,	#030h
00:021A 11-90 00-00'              654   	st	r0,	NEAR _InputStatus+014h
                                  655   
                                  656   ;;					_flgUartFin = 0;
                                  657   CLINEA 0000H 0001H 0163H 0006H 0015H
00:021E 00 00                     658   	mov	r0,	#00h
00:0220 11-90 00-00'              659   	st	r0,	NEAR __flgUartFin
                                  660   
                                  661   ;;					uart_stop();
                                  662   CLINEA 0000H 0001H 0164H 0006H 0011H
00:0224 01-F0'00-00'              663   	bl	_uart_stop
                                  664   
                                  665   ;;					uart_startSend(InputStatus, 23, _funcUartFin);
                                  666   CLINEA 0000H 0001H 0165H 0006H 0033H
00:0228 00'00                     667   	mov	r0,	#BYTE1 OFFSET __funcUartFin
00:022A 00'01                     668   	mov	r1,	#BYTE2 OFFSET __funcUartFin
00:022C 5E-F0                     669   	push	er0
00:022E 17 E2                     670   	mov	er2,	#23
00:0230 00'00                     671   	mov	r0,	#BYTE1 OFFSET _InputStatus
00:0232 00'01                     672   	mov	r1,	#BYTE2 OFFSET _InputStatus
00:0234 01-F0'00-00'              673   	bl	_uart_startSend
00:0238 02 E1                     674   	add	sp,	#2 
                                  675   
                                  676   ;;					while(_flgUartFin != 1){
                                  677   CLINEA 0000H 0000H 0166H 0001H 000BH
00:023A 04 CE                     678   	bal	_$L428
                                  679   
                                  680   ;;					while(_flgUartFin != 1){
                                  681   CLINEA 0000H 0000H 0166H 0006H 001DH
00:023C                           682   _$L68 :
                                  683   CBLOCK 140 18 358
                                  684   
                                  685   ;;						NOP1000();
                                  686   CLINEA 0000H 0001H 0167H 0007H 0010H
00:023C 01-F0'00-00'              687   	bl	_NOP1000
                                  688   
                                  689   ;;						main_clrWDT();
                                  690   CLINEA 0000H 0001H 0168H 0007H 0014H
00:0240 01-F0'00-00'              691   	bl	_main_clrWDT
                                  692   CBLOCKEND 140 18 361
                                  693   
                                  694   ;;					while(_flgUartFin != 1){
                                  695   CLINEA 0000H 0000H 0166H 0001H 000BH
00:0244                           696   _$L428 :
00:0244 10-90 00-00'              697   	l	r0,	NEAR __flgUartFin
00:0248 01 70                     698   	cmp	r0,	#01h
00:024A F8 C8                     699   	bne	_$L68
                                  700   
                                  701   ;;					_flgUartFin = 0;
                                  702   CLINEA 0000H 0001H 016CH 0006H 0015H
00:024C 00 00                     703   	mov	r0,	#00h
00:024E 11-90 00-00'              704   	st	r0,	NEAR __flgUartFin
                                  705   
                                  706   ;;					uart_stop();
                                  707   CLINEA 0000H 0001H 016DH 0006H 0011H
00:0252 01-F0'00-00'              708   	bl	_uart_stop
                                  709   
                                  710   ;;					uart_startSend(InputRec, 14, _funcUartFin);
                                  711   CLINEA 0000H 0001H 016EH 0006H 0030H
00:0256 00'00                     712   	mov	r0,	#BYTE1 OFFSET __funcUartFin
00:0258 00'01                     713   	mov	r1,	#BYTE2 OFFSET __funcUartFin
00:025A 5E-F0                     714   	push	er0
00:025C 0E E2                     715   	mov	er2,	#14
00:025E 00'00                     716   	mov	r0,	#BYTE1 OFFSET _InputRec
00:0260 00'01                     717   	mov	r1,	#BYTE2 OFFSET _InputRec
00:0262 01-F0'00-00'              718   	bl	_uart_startSend
00:0266 02 E1                     719   	add	sp,	#2 
                                  720   
                                  721   ;;					while(_flgUartFin != 1){
                                  722   CLINEA 0000H 0000H 016FH 0001H 000BH
00:0268 04 CE                     723   	bal	_$L429
                                  724   
                                  725   ;;					while(_flgUartFin != 1){
                                  726   CLINEA 0000H 0000H 016FH 0006H 001DH
00:026A                           727   _$L72 :
                                  728   CBLOCK 140 19 367
                                  729   
                                  730   ;;						NOP1000();
                                  731   CLINEA 0000H 0001H 0170H 0007H 0010H
00:026A 01-F0'00-00'              732   	bl	_NOP1000
                                  733   
                                  734   ;;						main_clrWDT();
                                  735   CLINEA 0000H 0001H 0171H 0007H 0014H
00:026E 01-F0'00-00'              736   	bl	_main_clrWDT
                                  737   CBLOCKEND 140 19 370
                                  738   
                                  739   ;;					while(_flgUartFin != 1){
                                  740   CLINEA 0000H 0000H 016FH 0001H 000BH
00:0272                           741   _$L429 :
00:0272 10-90 00-00'              742   	l	r0,	NEAR __flgUartFin
00:0276 01 70                     743   	cmp	r0,	#01h
00:0278 F8 C8                     744   	bne	_$L72
                                  745   
                                  746   ;;					}
                                  747   CLINEA 0000H 0000H 0172H 0006H 0006H
00:027A                           748   _$L71 :
                                  749   CBLOCKEND 140 15 371
                                  750   CBLOCKEND 140 14 372
                                  751   CBLOCKEND 140 13 373
                                  752   
                                  753   ;;		if(RecWorld[0] == 0x4F){			//if RECWORLD == "OUC"
                                  754   CLINEA 0000H 0001H 0179H 0003H 0033H
00:027A 10-90 00-00'              755   	l	r0,	NEAR _RecWorld
00:027E 4F 70                     756   	cmp	r0,	#04fh
00:0280 02 C9                     757   	beq	_$M43
00:0282 00-F0'00-00'              758   	b	_$L97
00:0286                           759   _$M43 :
                                  760   CBLOCK 140 20 377
                                  761   
                                  762   ;;			if(RecWorld[1] == 0x55){
                                  763   CLINEA 0000H 0001H 017AH 0004H 001BH
00:0286 10-90 00-00'              764   	l	r0,	NEAR _RecWorld+01h
00:028A 55 70                     765   	cmp	r0,	#055h
00:028C 02 C9                     766   	beq	_$M44
00:028E 00-F0'00-00'              767   	b	_$L97
00:0292                           768   _$M44 :
                                  769   CBLOCK 140 21 378
                                  770   
                                  771   ;;				if(RecWorld[2] == 0x43){
                                  772   CLINEA 0000H 0001H 017BH 0005H 001CH
00:0292 10-90 00-00'              773   	l	r0,	NEAR _RecWorld+02h
00:0296 43 70                     774   	cmp	r0,	#043h
00:0298 02 C9                     775   	beq	_$M45
00:029A 00-F0'00-00'              776   	b	_$L97
00:029E                           777   _$M45 :
                                  778   CBLOCK 140 22 379
                                  779   
                                  780   ;;					OutputRec[2] = 0x43;
                                  781   CLINEA 0000H 0001H 017CH 0006H 0019H
00:029E 43 00                     782   	mov	r0,	#043h
00:02A0 11-90 00-00'              783   	st	r0,	NEAR _OutputRec+02h
                                  784   
                                  785   ;;					for(count = 4; count < 21; count++)
                                  786   CLINEA 0000H 0001H 017DH 0006H 0028H
00:02A4 04 E4                     787   	mov	er4,	#4 
00:02A6                           788   _$L82 :
                                  789   CBLOCK 140 23 382
                                  790   
                                  791   ;;						RecWorld[count] -= 0x30;
                                  792   CLINEA 0000H 0001H 017FH 0007H 001EH
00:02A6 48-92 00-00'              793   	l	r2,	NEAR _RecWorld[er4]
00:02AA D0 12                     794   	add	r2,	#0d0h
00:02AC 49-92 00-00'              795   	st	r2,	NEAR _RecWorld[er4]
                                  796   
                                  797   ;;						if(RecWorld[count] != (0x01||0x00)){
                                  798   CLINEA 0000H 0001H 0180H 0007H 002AH
00:02B0 20-80                     799   	mov	r0,	r2
00:02B2 01 70                     800   	cmp	r0,	#01h
00:02B4 03 C9                     801   	beq	_$L94
                                  802   CBLOCK 140 24 384
                                  803   
                                  804   ;;							RecWorld[count] = 0;
                                  805   CLINEA 0000H 0001H 0181H 0008H 001BH
00:02B6 00 02                     806   	mov	r2,	#00h
00:02B8 49-92 00-00'              807   	st	r2,	NEAR _RecWorld[er4]
                                  808   CBLOCKEND 140 24 386
                                  809   
                                  810   ;;						}
                                  811   CLINEA 0000H 0000H 0182H 0007H 0007H
00:02BC                           812   _$L94 :
                                  813   CBLOCKEND 140 23 387
                                  814   
                                  815   ;;					for(count = 4; count < 21; count++)
                                  816   CLINEA 0000H 0000H 017DH 0006H 0028H
00:02BC 81 E4                     817   	add	er4,	#1 
00:02BE 15 74                     818   	cmp	r4,	#015h
00:02C0 00 55                     819   	cmpc	r5,	#00h
00:02C2 F1 C1                     820   	blt	_$L82
                                  821   
                                  822   ;;					PC3DIR = RecWorld[8];
                                  823   CLINEA 0000H 0001H 0189H 0006H 001AH
00:02C4 10-90 00-00'              824   	l	r0,	NEAR _RecWorld+08h
00:02C8 01 20                     825   	and	r0,	#01h
00:02CA 03 C9                     826   	beq	_$M9
00:02CC B0-A0 61-F2               827   	sb	0f261h.3
00:02D0 02 CE                     828   	bal	_$M10
00:02D2                           829   _$M9 :
00:02D2 B2-A0 61-F2               830   	rb	0f261h.3
00:02D6                           831   _$M10 :
                                  832   
                                  833   ;;					PC2DIR = RecWorld[9];
                                  834   CLINEA 0000H 0001H 018AH 0006H 001AH
00:02D6 10-90 00-00'              835   	l	r0,	NEAR _RecWorld+09h
00:02DA 01 20                     836   	and	r0,	#01h
00:02DC 03 C9                     837   	beq	_$M11
00:02DE A0-A0 61-F2               838   	sb	0f261h.2
00:02E2 02 CE                     839   	bal	_$M12
00:02E4                           840   _$M11 :
00:02E4 A2-A0 61-F2               841   	rb	0f261h.2
00:02E8                           842   _$M12 :
                                  843   
                                  844   ;;					PC1DIR = RecWorld[10];
                                  845   CLINEA 0000H 0001H 018BH 0006H 001BH
00:02E8 10-90 00-00'              846   	l	r0,	NEAR _RecWorld+0ah
00:02EC 01 20                     847   	and	r0,	#01h
00:02EE 03 C9                     848   	beq	_$M13
00:02F0 90-A0 61-F2               849   	sb	0f261h.1
00:02F4 02 CE                     850   	bal	_$M14
00:02F6                           851   _$M13 :
00:02F6 92-A0 61-F2               852   	rb	0f261h.1
00:02FA                           853   _$M14 :
                                  854   
                                  855   ;;					PC0DIR = RecWorld[11];
                                  856   CLINEA 0000H 0001H 018CH 0006H 001BH
00:02FA 10-90 00-00'              857   	l	r0,	NEAR _RecWorld+0bh
00:02FE 01 20                     858   	and	r0,	#01h
00:0300 03 C9                     859   	beq	_$M15
00:0302 80-A0 61-F2               860   	sb	0f261h.0
00:0306 02 CE                     861   	bal	_$M16
00:0308                           862   _$M15 :
00:0308 82-A0 61-F2               863   	rb	0f261h.0
00:030C                           864   _$M16 :
                                  865   
                                  866   ;;					PC3D = RecWorld[17];
                                  867   CLINEA 0000H 0001H 0193H 0006H 0019H
00:030C 10-90 00-00'              868   	l	r0,	NEAR _RecWorld+011h
00:0310 01 20                     869   	and	r0,	#01h
00:0312 03 C9                     870   	beq	_$M17
00:0314 B0-A0 60-F2               871   	sb	0f260h.3
00:0318 02 CE                     872   	bal	_$M18
00:031A                           873   _$M17 :
00:031A B2-A0 60-F2               874   	rb	0f260h.3
00:031E                           875   _$M18 :
                                  876   
                                  877   ;;					PC2D = RecWorld[18];
                                  878   CLINEA 0000H 0001H 0194H 0006H 0019H
00:031E 10-90 00-00'              879   	l	r0,	NEAR _RecWorld+012h
00:0322 01 20                     880   	and	r0,	#01h
00:0324 03 C9                     881   	beq	_$M19
00:0326 A0-A0 60-F2               882   	sb	0f260h.2
00:032A 02 CE                     883   	bal	_$M20
00:032C                           884   _$M19 :
00:032C A2-A0 60-F2               885   	rb	0f260h.2
00:0330                           886   _$M20 :
                                  887   
                                  888   ;;					PC1D = RecWorld[19];
                                  889   CLINEA 0000H 0001H 0195H 0006H 0019H
00:0330 10-90 00-00'              890   	l	r0,	NEAR _RecWorld+013h
00:0334 01 20                     891   	and	r0,	#01h
00:0336 03 C9                     892   	beq	_$M21
00:0338 90-A0 60-F2               893   	sb	0f260h.1
00:033C 02 CE                     894   	bal	_$M22
00:033E                           895   _$M21 :
00:033E 92-A0 60-F2               896   	rb	0f260h.1
00:0342                           897   _$M22 :
                                  898   
                                  899   ;;					PC0D = RecWorld[20];
                                  900   CLINEA 0000H 0001H 0196H 0006H 0019H
00:0342 10-90 00-00'              901   	l	r0,	NEAR _RecWorld+014h
00:0346 01 20                     902   	and	r0,	#01h
00:0348 03 C9                     903   	beq	_$M23
00:034A 80-A0 60-F2               904   	sb	0f260h.0
00:034E 02 CE                     905   	bal	_$M24
00:0350                           906   _$M23 :
00:0350 82-A0 60-F2               907   	rb	0f260h.0
00:0354                           908   _$M24 :
                                  909   
                                  910   ;;					OutputRec[17] = PC3D + 0x30;
                                  911   CLINEA 0000H 0001H 019DH 0006H 0021H
00:0354 10-90 60-F2               912   	l	r0,	0f260h
00:0358 3C-90                     913   	srl	r0,	#03h
00:035A 01 20                     914   	and	r0,	#01h
00:035C 30 10                     915   	add	r0,	#030h
00:035E 11-90 00-00'              916   	st	r0,	NEAR _OutputRec+011h
                                  917   
                                  918   ;;					OutputRec[18] = PC2D + 0x30;
                                  919   CLINEA 0000H 0001H 019EH 0006H 0021H
00:0362 10-90 60-F2               920   	l	r0,	0f260h
00:0366 2C-90                     921   	srl	r0,	#02h
00:0368 01 20                     922   	and	r0,	#01h
00:036A 30 10                     923   	add	r0,	#030h
00:036C 11-90 00-00'              924   	st	r0,	NEAR _OutputRec+012h
                                  925   
                                  926   ;;					OutputRec[19] = PC1D + 0x30;
                                  927   CLINEA 0000H 0001H 019FH 0006H 0021H
00:0370 10-90 60-F2               928   	l	r0,	0f260h
00:0374 1C-90                     929   	srl	r0,	#01h
00:0376 01 20                     930   	and	r0,	#01h
00:0378 30 10                     931   	add	r0,	#030h
00:037A 11-90 00-00'              932   	st	r0,	NEAR _OutputRec+013h
                                  933   
                                  934   ;;					OutputRec[20] = PC0D + 0x30;
                                  935   CLINEA 0000H 0001H 01A0H 0006H 0021H
00:037E 10-90 60-F2               936   	l	r0,	0f260h
00:0382 01 20                     937   	and	r0,	#01h
00:0384 30 10                     938   	add	r0,	#030h
00:0386 11-90 00-00'              939   	st	r0,	NEAR _OutputRec+014h
                                  940   
                                  941   ;;					_flgUartFin = 0;
                                  942   CLINEA 0000H 0001H 01A2H 0006H 0015H
00:038A 00 00                     943   	mov	r0,	#00h
00:038C 11-90 00-00'              944   	st	r0,	NEAR __flgUartFin
                                  945   
                                  946   ;;					uart_stop();
                                  947   CLINEA 0000H 0001H 01A3H 0006H 0011H
00:0390 01-F0'00-00'              948   	bl	_uart_stop
                                  949   
                                  950   ;;					uart_startSend(OutputRec, 23, _funcUartFin);
                                  951   CLINEA 0000H 0001H 01A4H 0006H 0031H
00:0394 00'00                     952   	mov	r0,	#BYTE1 OFFSET __funcUartFin
00:0396 00'01                     953   	mov	r1,	#BYTE2 OFFSET __funcUartFin
00:0398 5E-F0                     954   	push	er0
00:039A 17 E2                     955   	mov	er2,	#23
00:039C 00'00                     956   	mov	r0,	#BYTE1 OFFSET _OutputRec
00:039E 00'01                     957   	mov	r1,	#BYTE2 OFFSET _OutputRec
00:03A0 01-F0'00-00'              958   	bl	_uart_startSend
00:03A4 02 E1                     959   	add	sp,	#2 
                                  960   
                                  961   ;;					while(_flgUartFin != 1){
                                  962   CLINEA 0000H 0000H 01A5H 0001H 000BH
00:03A6 04 CE                     963   	bal	_$L430
                                  964   
                                  965   ;;					while(_flgUartFin != 1){
                                  966   CLINEA 0000H 0000H 01A5H 0006H 001DH
00:03A8                           967   _$L98 :
                                  968   CBLOCK 140 25 421
                                  969   
                                  970   ;;						NOP1000();
                                  971   CLINEA 0000H 0001H 01A6H 0007H 0010H
00:03A8 01-F0'00-00'              972   	bl	_NOP1000
                                  973   
                                  974   ;;						main_clrWDT();
                                  975   CLINEA 0000H 0001H 01A7H 0007H 0014H
00:03AC 01-F0'00-00'              976   	bl	_main_clrWDT
                                  977   CBLOCKEND 140 25 424
                                  978   
                                  979   ;;					while(_flgUartFin != 1){
                                  980   CLINEA 0000H 0000H 01A5H 0001H 000BH
00:03B0                           981   _$L430 :
00:03B0 10-90 00-00'              982   	l	r0,	NEAR __flgUartFin
00:03B4 01 70                     983   	cmp	r0,	#01h
00:03B6 F8 C8                     984   	bne	_$L98
                                  985   
                                  986   ;;					}
                                  987   CLINEA 0000H 0000H 01A8H 0006H 0006H
00:03B8                           988   _$L97 :
                                  989   CBLOCKEND 140 22 425
                                  990   CBLOCKEND 140 21 426
                                  991   CBLOCKEND 140 20 427
                                  992   
                                  993   ;;		if(RecWorld[0] == 0x49){			//if RECWORLD == "INB"
                                  994   CLINEA 0000H 0001H 01AFH 0003H 0033H
00:03B8 10-90 00-00'              995   	l	r0,	NEAR _RecWorld
00:03BC 49 70                     996   	cmp	r0,	#049h
00:03BE 02 C9                     997   	beq	_$M46
00:03C0 00-F0'00-00'              998   	b	_$L127
00:03C4                           999   _$M46 :
                                 1000   CBLOCK 140 26 431
                                 1001   
                                 1002   ;;			if(RecWorld[1] == 0x4E){
                                 1003   CLINEA 0000H 0001H 01B0H 0004H 001BH
00:03C4 10-90 00-00'             1004   	l	r0,	NEAR _RecWorld+01h
00:03C8 4E 70                    1005   	cmp	r0,	#04eh
00:03CA 02 C9                    1006   	beq	_$M47
00:03CC 00-F0'00-00'             1007   	b	_$L127
00:03D0                          1008   _$M47 :
                                 1009   CBLOCK 140 27 432
                                 1010   
                                 1011   ;;				if(RecWorld[2] == 0x42){
                                 1012   CLINEA 0000H 0001H 01B1H 0005H 001CH
00:03D0 10-90 00-00'             1013   	l	r0,	NEAR _RecWorld+02h
00:03D4 42 70                    1014   	cmp	r0,	#042h
00:03D6 02 C9                    1015   	beq	_$M48
00:03D8 00-F0'00-00'             1016   	b	_$L127
00:03DC                          1017   _$M48 :
                                 1018   CBLOCK 140 28 433
                                 1019   
                                 1020   ;;					InputStatus[2] = 0x42;
                                 1021   CLINEA 0000H 0001H 01B2H 0006H 001BH
00:03DC 42 00                    1022   	mov	r0,	#042h
00:03DE 11-90 00-00'             1023   	st	r0,	NEAR _InputStatus+02h
                                 1024   
                                 1025   ;;					InputRec[2] = 0x42;
                                 1026   CLINEA 0000H 0001H 01B3H 0006H 0018H
00:03E2 11-90 00-00'             1027   	st	r0,	NEAR _InputRec+02h
                                 1028   
                                 1029   ;;					for(count = 4; count < 12; count++)
                                 1030   CLINEA 0000H 0001H 01B4H 0006H 0028H
00:03E6 04 E4                    1031   	mov	er4,	#4 
00:03E8                          1032   _$L108 :
                                 1033   CBLOCK 140 29 437
                                 1034   
                                 1035   ;;						RecWorld[count] -= 0x30;
                                 1036   CLINEA 0000H 0001H 01B6H 0007H 001EH
00:03E8 48-92 00-00'             1037   	l	r2,	NEAR _RecWorld[er4]
00:03EC D0 12                    1038   	add	r2,	#0d0h
00:03EE 49-92 00-00'             1039   	st	r2,	NEAR _RecWorld[er4]
                                 1040   
                                 1041   ;;						if(RecWorld[count] != (0x01||0x00)){
                                 1042   CLINEA 0000H 0001H 01B7H 0007H 002AH
00:03F2 20-80                    1043   	mov	r0,	r2
00:03F4 01 70                    1044   	cmp	r0,	#01h
00:03F6 03 C9                    1045   	beq	_$L120
                                 1046   CBLOCK 140 30 439
                                 1047   
                                 1048   ;;							RecWorld[count] = 0;
                                 1049   CLINEA 0000H 0001H 01B8H 0008H 001BH
00:03F8 00 02                    1050   	mov	r2,	#00h
00:03FA 49-92 00-00'             1051   	st	r2,	NEAR _RecWorld[er4]
                                 1052   CBLOCKEND 140 30 441
                                 1053   
                                 1054   ;;						}
                                 1055   CLINEA 0000H 0000H 01B9H 0007H 0007H
00:03FE                          1056   _$L120 :
                                 1057   CBLOCKEND 140 29 442
                                 1058   
                                 1059   ;;					for(count = 4; count < 12; count++)
                                 1060   CLINEA 0000H 0000H 01B4H 0006H 0028H
00:03FE 81 E4                    1061   	add	er4,	#1 
00:0400 0C 74                    1062   	cmp	r4,	#0ch
00:0402 00 55                    1063   	cmpc	r5,	#00h
00:0404 F1 C1                    1064   	blt	_$L108
                                 1065   
                                 1066   ;;					PB7DIR = RecWorld[4]; 
                                 1067   CLINEA 0000H 0001H 01C0H 0006H 001BH
00:0406 10-90 00-00'             1068   	l	r0,	NEAR _RecWorld+04h
00:040A 01 20                    1069   	and	r0,	#01h
00:040C 03 C9                    1070   	beq	_$M25
00:040E F0-A0 59-F2              1071   	sb	0f259h.7
00:0412 02 CE                    1072   	bal	_$M26
00:0414                          1073   _$M25 :
00:0414 F2-A0 59-F2              1074   	rb	0f259h.7
00:0418                          1075   _$M26 :
                                 1076   
                                 1077   ;;					PB2DIR = RecWorld[9];
                                 1078   CLINEA 0000H 0001H 01C5H 0006H 001AH
00:0418 10-90 00-00'             1079   	l	r0,	NEAR _RecWorld+09h
00:041C 01 20                    1080   	and	r0,	#01h
00:041E 03 C9                    1081   	beq	_$M27
00:0420 A0-A0 59-F2              1082   	sb	0f259h.2
00:0424 02 CE                    1083   	bal	_$M28
00:0426                          1084   _$M27 :
00:0426 A2-A0 59-F2              1085   	rb	0f259h.2
00:042A                          1086   _$M28 :
                                 1087   
                                 1088   ;;					InputStatus[4] = PB7DIR + 0x30;
                                 1089   CLINEA 0000H 0001H 01CAH 0006H 0024H
00:042A 10-90 59-F2              1090   	l	r0,	0f259h
00:042E 7C-90                    1091   	srl	r0,	#07h
00:0430 01 20                    1092   	and	r0,	#01h
00:0432 30 10                    1093   	add	r0,	#030h
00:0434 11-90 00-00'             1094   	st	r0,	NEAR _InputStatus+04h
                                 1095   
                                 1096   ;;					InputStatus[5] = 0x78;
                                 1097   CLINEA 0000H 0001H 01CBH 0006H 001BH
00:0438 78 00                    1098   	mov	r0,	#078h
00:043A 11-90 00-00'             1099   	st	r0,	NEAR _InputStatus+05h
                                 1100   
                                 1101   ;;					InputStatus[6] = 0x78;
                                 1102   CLINEA 0000H 0001H 01CCH 0006H 001BH
00:043E 11-90 00-00'             1103   	st	r0,	NEAR _InputStatus+06h
                                 1104   
                                 1105   ;;					InputStatus[7] = 0x78;
                                 1106   CLINEA 0000H 0001H 01CDH 0006H 001BH
00:0442 11-90 00-00'             1107   	st	r0,	NEAR _InputStatus+07h
                                 1108   
                                 1109   ;;					InputStatus[8] = 0x78;
                                 1110   CLINEA 0000H 0001H 01CEH 0006H 001BH
00:0446 11-90 00-00'             1111   	st	r0,	NEAR _InputStatus+08h
                                 1112   
                                 1113   ;;					InputStatus[9] = PB2DIR + 0x30;
                                 1114   CLINEA 0000H 0001H 01CFH 0006H 0024H
00:044A 10-90 59-F2              1115   	l	r0,	0f259h
00:044E 2C-90                    1116   	srl	r0,	#02h
00:0450 01 20                    1117   	and	r0,	#01h
00:0452 30 10                    1118   	add	r0,	#030h
00:0454 11-90 00-00'             1119   	st	r0,	NEAR _InputStatus+09h
                                 1120   
                                 1121   ;;					InputStatus[10] = 0x78;
                                 1122   CLINEA 0000H 0001H 01D0H 0006H 001CH
00:0458 78 00                    1123   	mov	r0,	#078h
00:045A 11-90 00-00'             1124   	st	r0,	NEAR _InputStatus+0ah
                                 1125   
                                 1126   ;;					InputStatus[11] = 0x78;
                                 1127   CLINEA 0000H 0001H 01D1H 0006H 001CH
00:045E 11-90 00-00'             1128   	st	r0,	NEAR _InputStatus+0bh
                                 1129   
                                 1130   ;;					InputStatus[13] = PB7D + 0x30;
                                 1131   CLINEA 0000H 0001H 01D4H 0006H 0023H
00:0462 10-90 58-F2              1132   	l	r0,	0f258h
00:0466 7C-90                    1133   	srl	r0,	#07h
00:0468 01 20                    1134   	and	r0,	#01h
00:046A 30 10                    1135   	add	r0,	#030h
00:046C 11-90 00-00'             1136   	st	r0,	NEAR _InputStatus+0dh
                                 1137   
                                 1138   ;;					InputStatus[14] = 0x78;
                                 1139   CLINEA 0000H 0001H 01D5H 0006H 001CH
00:0470 78 00                    1140   	mov	r0,	#078h
00:0472 11-90 00-00'             1141   	st	r0,	NEAR _InputStatus+0eh
                                 1142   
                                 1143   ;;					InputStatus[15] = 0x78;
                                 1144   CLINEA 0000H 0001H 01D6H 0006H 001CH
00:0476 11-90 00-00'             1145   	st	r0,	NEAR _InputStatus+0fh
                                 1146   
                                 1147   ;;					InputStatus[16] = 0x78;
                                 1148   CLINEA 0000H 0001H 01D7H 0006H 001CH
00:047A 11-90 00-00'             1149   	st	r0,	NEAR _InputStatus+010h
                                 1150   
                                 1151   ;;					InputStatus[17] = 0x78;
                                 1152   CLINEA 0000H 0001H 01D8H 0006H 001CH
00:047E 11-90 00-00'             1153   	st	r0,	NEAR _InputStatus+011h
                                 1154   
                                 1155   ;;					InputStatus[18] = PB2D + 0x30;
                                 1156   CLINEA 0000H 0001H 01D9H 0006H 0023H
00:0482 10-90 58-F2              1157   	l	r0,	0f258h
00:0486 2C-90                    1158   	srl	r0,	#02h
00:0488 01 20                    1159   	and	r0,	#01h
00:048A 30 10                    1160   	add	r0,	#030h
00:048C 11-90 00-00'             1161   	st	r0,	NEAR _InputStatus+012h
                                 1162   
                                 1163   ;;					InputStatus[19] = 0x78;
                                 1164   CLINEA 0000H 0001H 01DAH 0006H 001CH
00:0490 78 00                    1165   	mov	r0,	#078h
00:0492 11-90 00-00'             1166   	st	r0,	NEAR _InputStatus+013h
                                 1167   
                                 1168   ;;					InputStatus[20] = 0x78;
                                 1169   CLINEA 0000H 0001H 01DBH 0006H 001CH
00:0496 11-90 00-00'             1170   	st	r0,	NEAR _InputStatus+014h
                                 1171   
                                 1172   ;;					_flgUartFin = 0;
                                 1173   CLINEA 0000H 0001H 01DFH 0006H 0015H
00:049A 00 00                    1174   	mov	r0,	#00h
00:049C 11-90 00-00'             1175   	st	r0,	NEAR __flgUartFin
                                 1176   
                                 1177   ;;					uart_stop();
                                 1178   CLINEA 0000H 0001H 01E0H 0006H 0011H
00:04A0 01-F0'00-00'             1179   	bl	_uart_stop
                                 1180   
                                 1181   ;;					uart_startSend(InputStatus, 23, _funcUartFin);
                                 1182   CLINEA 0000H 0001H 01E1H 0006H 0033H
00:04A4 00'00                    1183   	mov	r0,	#BYTE1 OFFSET __funcUartFin
00:04A6 00'01                    1184   	mov	r1,	#BYTE2 OFFSET __funcUartFin
00:04A8 5E-F0                    1185   	push	er0
00:04AA 17 E2                    1186   	mov	er2,	#23
00:04AC 00'00                    1187   	mov	r0,	#BYTE1 OFFSET _InputStatus
00:04AE 00'01                    1188   	mov	r1,	#BYTE2 OFFSET _InputStatus
00:04B0 01-F0'00-00'             1189   	bl	_uart_startSend
00:04B4 02 E1                    1190   	add	sp,	#2 
                                 1191   
                                 1192   ;;					while(_flgUartFin != 1){
                                 1193   CLINEA 0000H 0000H 01E2H 0001H 000BH
00:04B6 04 CE                    1194   	bal	_$L431
                                 1195   
                                 1196   ;;					while(_flgUartFin != 1){
                                 1197   CLINEA 0000H 0000H 01E2H 0006H 001DH
00:04B8                          1198   _$L124 :
                                 1199   CBLOCK 140 31 482
                                 1200   
                                 1201   ;;						NOP1000();
                                 1202   CLINEA 0000H 0001H 01E3H 0007H 0010H
00:04B8 01-F0'00-00'             1203   	bl	_NOP1000
                                 1204   
                                 1205   ;;						main_clrWDT();
                                 1206   CLINEA 0000H 0001H 01E4H 0007H 0014H
00:04BC 01-F0'00-00'             1207   	bl	_main_clrWDT
                                 1208   CBLOCKEND 140 31 485
                                 1209   
                                 1210   ;;					while(_flgUartFin != 1){
                                 1211   CLINEA 0000H 0000H 01E2H 0001H 000BH
00:04C0                          1212   _$L431 :
00:04C0 10-90 00-00'             1213   	l	r0,	NEAR __flgUartFin
00:04C4 01 70                    1214   	cmp	r0,	#01h
00:04C6 F8 C8                    1215   	bne	_$L124
                                 1216   
                                 1217   ;;					_flgUartFin = 0;
                                 1218   CLINEA 0000H 0001H 01E8H 0006H 0015H
00:04C8 00 00                    1219   	mov	r0,	#00h
00:04CA 11-90 00-00'             1220   	st	r0,	NEAR __flgUartFin
                                 1221   
                                 1222   ;;					uart_stop();
                                 1223   CLINEA 0000H 0001H 01E9H 0006H 0011H
00:04CE 01-F0'00-00'             1224   	bl	_uart_stop
                                 1225   
                                 1226   ;;					uart_startSend(InputRec, 14, _funcUartFin);
                                 1227   CLINEA 0000H 0001H 01EAH 0006H 0030H
00:04D2 00'00                    1228   	mov	r0,	#BYTE1 OFFSET __funcUartFin
00:04D4 00'01                    1229   	mov	r1,	#BYTE2 OFFSET __funcUartFin
00:04D6 5E-F0                    1230   	push	er0
00:04D8 0E E2                    1231   	mov	er2,	#14
00:04DA 00'00                    1232   	mov	r0,	#BYTE1 OFFSET _InputRec
00:04DC 00'01                    1233   	mov	r1,	#BYTE2 OFFSET _InputRec
00:04DE 01-F0'00-00'             1234   	bl	_uart_startSend
00:04E2 02 E1                    1235   	add	sp,	#2 
                                 1236   
                                 1237   ;;					while(_flgUartFin != 1){
                                 1238   CLINEA 0000H 0000H 01EBH 0001H 000BH
00:04E4 04 CE                    1239   	bal	_$L432
                                 1240   
                                 1241   ;;					while(_flgUartFin != 1){
                                 1242   CLINEA 0000H 0000H 01EBH 0006H 001DH
00:04E6                          1243   _$L128 :
                                 1244   CBLOCK 140 32 491
                                 1245   
                                 1246   ;;						NOP1000();
                                 1247   CLINEA 0000H 0001H 01ECH 0007H 0010H
00:04E6 01-F0'00-00'             1248   	bl	_NOP1000
                                 1249   
                                 1250   ;;						main_clrWDT();
                                 1251   CLINEA 0000H 0001H 01EDH 0007H 0014H
00:04EA 01-F0'00-00'             1252   	bl	_main_clrWDT
                                 1253   CBLOCKEND 140 32 494
                                 1254   
                                 1255   ;;					while(_flgUartFin != 1){
                                 1256   CLINEA 0000H 0000H 01EBH 0001H 000BH
00:04EE                          1257   _$L432 :
00:04EE 10-90 00-00'             1258   	l	r0,	NEAR __flgUartFin
00:04F2 01 70                    1259   	cmp	r0,	#01h
00:04F4 F8 C8                    1260   	bne	_$L128
                                 1261   
                                 1262   ;;					}
                                 1263   CLINEA 0000H 0000H 01EEH 0006H 0006H
00:04F6                          1264   _$L127 :
                                 1265   CBLOCKEND 140 28 495
                                 1266   CBLOCKEND 140 27 496
                                 1267   CBLOCKEND 140 26 497
                                 1268   
                                 1269   ;;		if(RecWorld[0] == 0x4F){			//if RECWORLD == "OUB"
                                 1270   CLINEA 0000H 0001H 01F5H 0003H 0033H
00:04F6 10-90 00-00'             1271   	l	r0,	NEAR _RecWorld
00:04FA 4F 70                    1272   	cmp	r0,	#04fh
00:04FC 02 C9                    1273   	beq	_$M49
00:04FE 00-F0'00-00'             1274   	b	_$L153
00:0502                          1275   _$M49 :
                                 1276   CBLOCK 140 33 501
                                 1277   
                                 1278   ;;			if(RecWorld[1] == 0x55){
                                 1279   CLINEA 0000H 0001H 01F6H 0004H 001BH
00:0502 10-90 00-00'             1280   	l	r0,	NEAR _RecWorld+01h
00:0506 55 70                    1281   	cmp	r0,	#055h
00:0508 02 C9                    1282   	beq	_$M50
00:050A 00-F0'00-00'             1283   	b	_$L153
00:050E                          1284   _$M50 :
                                 1285   CBLOCK 140 34 502
                                 1286   
                                 1287   ;;				if(RecWorld[2] == 0x42){
                                 1288   CLINEA 0000H 0001H 01F7H 0005H 001CH
00:050E 10-90 00-00'             1289   	l	r0,	NEAR _RecWorld+02h
00:0512 42 70                    1290   	cmp	r0,	#042h
00:0514 02 C9                    1291   	beq	_$M51
00:0516 00-F0'00-00'             1292   	b	_$L153
00:051A                          1293   _$M51 :
                                 1294   CBLOCK 140 35 503
                                 1295   
                                 1296   ;;					OutputRec[2] = 0x42;
                                 1297   CLINEA 0000H 0001H 01F8H 0006H 0019H
00:051A 42 00                    1298   	mov	r0,	#042h
00:051C 11-90 00-00'             1299   	st	r0,	NEAR _OutputRec+02h
                                 1300   
                                 1301   ;;					for(count = 4; count < 21; count++)
                                 1302   CLINEA 0000H 0001H 01F9H 0006H 0028H
00:0520 04 E4                    1303   	mov	er4,	#4 
00:0522                          1304   _$L138 :
                                 1305   CBLOCK 140 36 506
                                 1306   
                                 1307   ;;						RecWorld[count] -= 0x30;
                                 1308   CLINEA 0000H 0001H 01FBH 0007H 001EH
00:0522 48-92 00-00'             1309   	l	r2,	NEAR _RecWorld[er4]
00:0526 D0 12                    1310   	add	r2,	#0d0h
00:0528 49-92 00-00'             1311   	st	r2,	NEAR _RecWorld[er4]
                                 1312   
                                 1313   ;;						if(RecWorld[count] != (0x01||0x00)){
                                 1314   CLINEA 0000H 0001H 01FCH 0007H 002AH
00:052C 20-80                    1315   	mov	r0,	r2
00:052E 01 70                    1316   	cmp	r0,	#01h
00:0530 03 C9                    1317   	beq	_$L150
                                 1318   CBLOCK 140 37 508
                                 1319   
                                 1320   ;;							RecWorld[count] = 0;
                                 1321   CLINEA 0000H 0001H 01FDH 0008H 001BH
00:0532 00 02                    1322   	mov	r2,	#00h
00:0534 49-92 00-00'             1323   	st	r2,	NEAR _RecWorld[er4]
                                 1324   CBLOCKEND 140 37 510
                                 1325   
                                 1326   ;;						}
                                 1327   CLINEA 0000H 0000H 01FEH 0007H 0007H
00:0538                          1328   _$L150 :
                                 1329   CBLOCKEND 140 36 511
                                 1330   
                                 1331   ;;					for(count = 4; count < 21; count++)
                                 1332   CLINEA 0000H 0000H 01F9H 0006H 0028H
00:0538 81 E4                    1333   	add	er4,	#1 
00:053A 15 74                    1334   	cmp	r4,	#015h
00:053C 00 55                    1335   	cmpc	r5,	#00h
00:053E F1 C1                    1336   	blt	_$L138
                                 1337   
                                 1338   ;;					PB7DIR = RecWorld[4];
                                 1339   CLINEA 0000H 0001H 0201H 0006H 001AH
00:0540 10-90 00-00'             1340   	l	r0,	NEAR _RecWorld+04h
00:0544 01 20                    1341   	and	r0,	#01h
00:0546 03 C9                    1342   	beq	_$M29
00:0548 F0-A0 59-F2              1343   	sb	0f259h.7
00:054C 02 CE                    1344   	bal	_$M30
00:054E                          1345   _$M29 :
00:054E F2-A0 59-F2              1346   	rb	0f259h.7
00:0552                          1347   _$M30 :
                                 1348   
                                 1349   ;;					PB2DIR = RecWorld[9];
                                 1350   CLINEA 0000H 0001H 0206H 0006H 001AH
00:0552 10-90 00-00'             1351   	l	r0,	NEAR _RecWorld+09h
00:0556 01 20                    1352   	and	r0,	#01h
00:0558 03 C9                    1353   	beq	_$M31
00:055A A0-A0 59-F2              1354   	sb	0f259h.2
00:055E 02 CE                    1355   	bal	_$M32
00:0560                          1356   _$M31 :
00:0560 A2-A0 59-F2              1357   	rb	0f259h.2
00:0564                          1358   _$M32 :
                                 1359   
                                 1360   ;;					PB7D = RecWorld[13];
                                 1361   CLINEA 0000H 0001H 020BH 0006H 0019H
00:0564 10-90 00-00'             1362   	l	r0,	NEAR _RecWorld+0dh
00:0568 01 20                    1363   	and	r0,	#01h
00:056A 03 C9                    1364   	beq	_$M33
00:056C F0-A0 58-F2              1365   	sb	0f258h.7
00:0570 02 CE                    1366   	bal	_$M34
00:0572                          1367   _$M33 :
00:0572 F2-A0 58-F2              1368   	rb	0f258h.7
00:0576                          1369   _$M34 :
                                 1370   
                                 1371   ;;					PB2D = RecWorld[18];
                                 1372   CLINEA 0000H 0001H 0210H 0006H 0019H
00:0576 10-90 00-00'             1373   	l	r0,	NEAR _RecWorld+012h
00:057A 01 20                    1374   	and	r0,	#01h
00:057C 03 C9                    1375   	beq	_$M35
00:057E A0-A0 58-F2              1376   	sb	0f258h.2
00:0582 02 CE                    1377   	bal	_$M36
00:0584                          1378   _$M35 :
00:0584 A2-A0 58-F2              1379   	rb	0f258h.2
00:0588                          1380   _$M36 :
                                 1381   
                                 1382   ;;					OutputRec[13] = PB7D + 0x30;
                                 1383   CLINEA 0000H 0001H 0215H 0006H 0021H
00:0588 10-90 58-F2              1384   	l	r0,	0f258h
00:058C 7C-90                    1385   	srl	r0,	#07h
00:058E 01 20                    1386   	and	r0,	#01h
00:0590 30 10                    1387   	add	r0,	#030h
00:0592 11-90 00-00'             1388   	st	r0,	NEAR _OutputRec+0dh
                                 1389   
                                 1390   ;;					OutputRec[14] = 0x78;
                                 1391   CLINEA 0000H 0001H 0216H 0006H 001AH
00:0596 78 00                    1392   	mov	r0,	#078h
00:0598 11-90 00-00'             1393   	st	r0,	NEAR _OutputRec+0eh
                                 1394   
                                 1395   ;;					OutputRec[15] = 0x78;
                                 1396   CLINEA 0000H 0001H 0217H 0006H 001AH
00:059C 11-90 00-00'             1397   	st	r0,	NEAR _OutputRec+0fh
                                 1398   
                                 1399   ;;					OutputRec[16] = 0x78;
                                 1400   CLINEA 0000H 0001H 0218H 0006H 001AH
00:05A0 11-90 00-00'             1401   	st	r0,	NEAR _OutputRec+010h
                                 1402   
                                 1403   ;;					OutputRec[17] = 0x78;
                                 1404   CLINEA 0000H 0001H 0219H 0006H 001AH
00:05A4 11-90 00-00'             1405   	st	r0,	NEAR _OutputRec+011h
                                 1406   
                                 1407   ;;					OutputRec[18] = PB2D + 0x30;
                                 1408   CLINEA 0000H 0001H 021AH 0006H 0021H
00:05A8 10-90 58-F2              1409   	l	r0,	0f258h
00:05AC 2C-90                    1410   	srl	r0,	#02h
00:05AE 01 20                    1411   	and	r0,	#01h
00:05B0 30 10                    1412   	add	r0,	#030h
00:05B2 11-90 00-00'             1413   	st	r0,	NEAR _OutputRec+012h
                                 1414   
                                 1415   ;;					OutputRec[19] = 0x78;
                                 1416   CLINEA 0000H 0001H 021BH 0006H 001AH
00:05B6 78 00                    1417   	mov	r0,	#078h
00:05B8 11-90 00-00'             1418   	st	r0,	NEAR _OutputRec+013h
                                 1419   
                                 1420   ;;					OutputRec[20] = 0x78;
                                 1421   CLINEA 0000H 0001H 021CH 0006H 001AH
00:05BC 11-90 00-00'             1422   	st	r0,	NEAR _OutputRec+014h
                                 1423   
                                 1424   ;;					_flgUartFin = 0;
                                 1425   CLINEA 0000H 0001H 021EH 0006H 0015H
00:05C0 00 00                    1426   	mov	r0,	#00h
00:05C2 11-90 00-00'             1427   	st	r0,	NEAR __flgUartFin
                                 1428   
                                 1429   ;;					uart_stop();
                                 1430   CLINEA 0000H 0001H 021FH 0006H 0011H
00:05C6 01-F0'00-00'             1431   	bl	_uart_stop
                                 1432   
                                 1433   ;;					uart_startSend(OutputRec, 23, _funcUartFin);
                                 1434   CLINEA 0000H 0001H 0220H 0006H 0031H
00:05CA 00'00                    1435   	mov	r0,	#BYTE1 OFFSET __funcUartFin
00:05CC 00'01                    1436   	mov	r1,	#BYTE2 OFFSET __funcUartFin
00:05CE 5E-F0                    1437   	push	er0
00:05D0 17 E2                    1438   	mov	er2,	#23
00:05D2 00'00                    1439   	mov	r0,	#BYTE1 OFFSET _OutputRec
00:05D4 00'01                    1440   	mov	r1,	#BYTE2 OFFSET _OutputRec
00:05D6 01-F0'00-00'             1441   	bl	_uart_startSend
00:05DA 02 E1                    1442   	add	sp,	#2 
                                 1443   
                                 1444   ;;					while(_flgUartFin != 1){
                                 1445   CLINEA 0000H 0000H 0221H 0001H 000BH
00:05DC 04 CE                    1446   	bal	_$L433
                                 1447   
                                 1448   ;;					while(_flgUartFin != 1){
                                 1449   CLINEA 0000H 0000H 0221H 0006H 001DH
00:05DE                          1450   _$L154 :
                                 1451   CBLOCK 140 38 545
                                 1452   
                                 1453   ;;						NOP1000();
                                 1454   CLINEA 0000H 0001H 0222H 0007H 0010H
00:05DE 01-F0'00-00'             1455   	bl	_NOP1000
                                 1456   
                                 1457   ;;						main_clrWDT();
                                 1458   CLINEA 0000H 0001H 0223H 0007H 0014H
00:05E2 01-F0'00-00'             1459   	bl	_main_clrWDT
                                 1460   CBLOCKEND 140 38 548
                                 1461   
                                 1462   ;;					while(_flgUartFin != 1){
                                 1463   CLINEA 0000H 0000H 0221H 0001H 000BH
00:05E6                          1464   _$L433 :
00:05E6 10-90 00-00'             1465   	l	r0,	NEAR __flgUartFin
00:05EA 01 70                    1466   	cmp	r0,	#01h
00:05EC F8 C8                    1467   	bne	_$L154
                                 1468   
                                 1469   ;;					}
                                 1470   CLINEA 0000H 0000H 0224H 0006H 0006H
00:05EE                          1471   _$L153 :
                                 1472   CBLOCKEND 140 35 549
                                 1473   CBLOCKEND 140 34 550
                                 1474   CBLOCKEND 140 33 551
                                 1475   
                                 1476   ;;		if(RecWorld[0] == 0x49){			//if RECWORLD == "I2CTX"
                                 1477   CLINEA 0000H 0001H 022BH 0003H 0035H
00:05EE 10-90 00-00'             1478   	l	r0,	NEAR _RecWorld
00:05F2 49 70                    1479   	cmp	r0,	#049h
00:05F4 02 C9                    1480   	beq	_$M52
00:05F6 00-F0'00-00'             1481   	b	_$L341
00:05FA                          1482   _$M52 :
                                 1483   CBLOCK 140 39 555
                                 1484   
                                 1485   ;;			if(RecWorld[1] == 0x32){
                                 1486   CLINEA 0000H 0001H 022CH 0004H 001BH
00:05FA 10-90 00-00'             1487   	l	r0,	NEAR _RecWorld+01h
00:05FE 32 70                    1488   	cmp	r0,	#032h
00:0600 02 C9                    1489   	beq	_$M53
00:0602 00-F0'00-00'             1490   	b	_$L341
00:0606                          1491   _$M53 :
                                 1492   CBLOCK 140 40 556
                                 1493   
                                 1494   ;;				if(RecWorld[2] == 0x43){
                                 1495   CLINEA 0000H 0001H 022DH 0005H 001CH
00:0606 10-90 00-00'             1496   	l	r0,	NEAR _RecWorld+02h
00:060A 43 70                    1497   	cmp	r0,	#043h
00:060C 02 C9                    1498   	beq	_$M54
00:060E 00-F0'00-00'             1499   	b	_$L341
00:0612                          1500   _$M54 :
                                 1501   CBLOCK 140 41 557
                                 1502   
                                 1503   ;;					if(RecWorld[3] == 0x54){
                                 1504   CLINEA 0000H 0001H 022EH 0006H 001DH
00:0612 10-90 00-00'             1505   	l	r0,	NEAR _RecWorld+03h
00:0616 54 70                    1506   	cmp	r0,	#054h
00:0618 02 C9                    1507   	beq	_$M55
00:061A 00-F0'00-00'             1508   	b	_$L341
00:061E                          1509   _$M55 :
                                 1510   CBLOCK 140 42 558
                                 1511   
                                 1512   ;;						if(RecWorld[4] == 0x58){
                                 1513   CLINEA 0000H 0001H 022FH 0007H 001EH
00:061E 10-90 00-00'             1514   	l	r0,	NEAR _RecWorld+04h
00:0622 58 70                    1515   	cmp	r0,	#058h
00:0624 02 C9                    1516   	beq	_$M56
00:0626 00-F0'00-00'             1517   	b	_$L341
00:062A                          1518   _$M56 :
                                 1519   CBLOCK 140 43 559
                                 1520   
                                 1521   ;;							_flgUartFin = 0;
                                 1522   CLINEA 0000H 0001H 0232H 0008H 0017H
00:062A 00 00                    1523   	mov	r0,	#00h
00:062C 11-90 00-00'             1524   	st	r0,	NEAR __flgUartFin
                                 1525   
                                 1526   ;;							uart_stop();
                                 1527   CLINEA 0000H 0001H 0233H 0008H 0013H
00:0630 01-F0'00-00'             1528   	bl	_uart_stop
                                 1529   
                                 1530   ;;							uart_startReceive(I2C_BUFF, 46, _funcUartFin);
                                 1531   CLINEA 0000H 0001H 0234H 0008H 0035H
00:0634 00'00                    1532   	mov	r0,	#BYTE1 OFFSET __funcUartFin
00:0636 00'01                    1533   	mov	r1,	#BYTE2 OFFSET __funcUartFin
00:0638 5E-F0                    1534   	push	er0
00:063A 2E E2                    1535   	mov	er2,	#46
00:063C 00'00                    1536   	mov	r0,	#BYTE1 OFFSET _I2C_BUFF
00:063E 00'01                    1537   	mov	r1,	#BYTE2 OFFSET _I2C_BUFF
00:0640 01-F0'00-00'             1538   	bl	_uart_startReceive
00:0644 02 E1                    1539   	add	sp,	#2 
                                 1540   
                                 1541   ;;							while(_flgUartFin != 1){
                                 1542   CLINEA 0000H 0000H 0235H 0001H 000BH
00:0646 04 CE                    1543   	bal	_$L434
                                 1544   
                                 1545   ;;							while(_flgUartFin != 1){
                                 1546   CLINEA 0000H 0000H 0235H 0008H 001FH
00:0648                          1547   _$L168 :
                                 1548   CBLOCK 140 44 565
                                 1549   
                                 1550   ;;								NOP1000();
                                 1551   CLINEA 0000H 0001H 0236H 0009H 0012H
00:0648 01-F0'00-00'             1552   	bl	_NOP1000
                                 1553   
                                 1554   ;;								main_clrWDT();
                                 1555   CLINEA 0000H 0001H 0237H 0009H 0016H
00:064C 01-F0'00-00'             1556   	bl	_main_clrWDT
                                 1557   CBLOCKEND 140 44 568
                                 1558   
                                 1559   ;;							while(_flgUartFin != 1){
                                 1560   CLINEA 0000H 0000H 0235H 0001H 000BH
00:0650                          1561   _$L434 :
00:0650 10-90 00-00'             1562   	l	r0,	NEAR __flgUartFin
00:0654 01 70                    1563   	cmp	r0,	#01h
00:0656 F8 C8                    1564   	bne	_$L168
                                 1565   
                                 1566   ;;							chari = 2;
                                 1567   CLINEA 0000H 0001H 023BH 0008H 0011H
00:0658 02 00                    1568   	mov	r0,	#02h
00:065A 11-90 00-00'             1569   	st	r0,	NEAR _chari
                                 1570   
                                 1571   ;;							charj = 0;
                                 1572   CLINEA 0000H 0001H 023CH 0008H 0011H
00:065E 00 00                    1573   	mov	r0,	#00h
00:0660 11-90 00-00'             1574   	st	r0,	NEAR _charj
                                 1575   
                                 1576   ;;							while(I2C_BUFF[chari]!=0x20){
                                 1577   CLINEA 0000H 0001H 023EH 0008H 0024H
00:0664 10-90 00-00'             1578   	l	r0,	NEAR _I2C_BUFF+02h
00:0668 20 70                    1579   	cmp	r0,	#020h
00:066A 0D C9                    1580   	beq	_$L171
00:066C                          1581   _$L172 :
                                 1582   CBLOCK 140 45 574
                                 1583   
                                 1584   ;;								chari++;
                                 1585   CLINEA 0000H 0000H 023FH 0009H 0010H
00:066C 0C-F0 00-00'             1586   	lea	OFFSET _chari
00:0670 2F-FE                    1587   	inc	[ea]
                                 1588   
                                 1589   ;;								charj++;
                                 1590   CLINEA 0000H 0000H 0240H 0009H 0010H
00:0672 0C-F0 00-00'             1591   	lea	OFFSET _charj
00:0676 2F-FE                    1592   	inc	[ea]
                                 1593   CBLOCKEND 140 45 577
                                 1594   
                                 1595   ;;							while(I2C_BUFF[chari]!=0x20){
                                 1596   CLINEA 0000H 0000H 023EH 001BH 0022H
00:0678 10-90 00-00'             1597   	l	r0,	NEAR _chari
00:067C 00 01                    1598   	mov	r1,	#00h
00:067E 08-90 00-00'             1599   	l	r0,	NEAR _I2C_BUFF[er0]
00:0682 20 70                    1600   	cmp	r0,	#020h
00:0684 F3 C8                    1601   	bne	_$L172
                                 1602   
                                 1603   ;;							}
                                 1604   CLINEA 0000H 0000H 0241H 0008H 0008H
00:0686                          1605   _$L171 :
                                 1606   
                                 1607   ;;							for(chark = charj; chark>0; chark--){
                                 1608   CLINEA 0000H 0001H 0242H 000CH 0019H
00:0686 10-90 00-00'             1609   	l	r0,	NEAR _charj
                                 1610   
                                 1611   ;;							for(chark = charj; chark>0; chark--){
                                 1612   CLINEA 0000H 0000H 0242H 0001H 000BH
00:068A 40 CE                    1613   	bal	_$L435
                                 1614   
                                 1615   ;;							for(chark = charj; chark>0; chark--){
                                 1616   CLINEA 0000H 0000H 0242H 0024H 002AH
00:068C                          1617   _$L176 :
                                 1618   CBLOCK 140 46 578
                                 1619   
                                 1620   ;;								if(chark == 3){I2CAdd_temp = (I2C_BUFF[chari-chark]-0x30)*100;}
                                 1621   CLINEA 0000H 0001H 0243H 0009H 0047H
00:068C 03 70                    1622   	cmp	r0,	#03h
00:068E 14 C8                    1623   	bne	_$L180
                                 1624   CBLOCK 140 47 579
00:0690 10-90 00-00'             1625   	l	r0,	NEAR _chari
00:0694 00 01                    1626   	mov	r1,	#00h
00:0696 10-92 00-00'             1627   	l	r2,	NEAR _chark
00:069A 00 03                    1628   	mov	r3,	#00h
00:069C 28-80                    1629   	sub	r0,	r2
00:069E 39-81                    1630   	subc	r1,	r3
00:06A0 08-90 00-00'             1631   	l	r0,	NEAR _I2C_BUFF[er0]
00:06A4 D0 10                    1632   	add	r0,	#0d0h
00:06A6 00-81                    1633   	mov	r1,	r0
00:06A8 1A-91                    1634   	sll	r1,	#01h
00:06AA 01-81                    1635   	add	r1,	r0
00:06AC 3A-91                    1636   	sll	r1,	#03h
00:06AE 01-81                    1637   	add	r1,	r0
00:06B0 2A-91                    1638   	sll	r1,	#02h
00:06B2 11-91 00-00'             1639   	st	r1,	NEAR _I2CAdd_temp
                                 1640   
                                 1641   ;;								else if(chark == 2){I2CAdd_temp = (I2C_BUFF[chari-chark]-0x30)*10;}
                                 1642   CLINEA 0000H 0001H 0244H 0009H 004BH
00:06B6 21 CE                    1643   	bal	_$L185
00:06B8                          1644   _$L180 :
00:06B8 02 70                    1645   	cmp	r0,	#02h
00:06BA 12 C8                    1646   	bne	_$L183
                                 1647   CBLOCK 140 48 580
00:06BC 10-90 00-00'             1648   	l	r0,	NEAR _chari
00:06C0 00 01                    1649   	mov	r1,	#00h
00:06C2 10-92 00-00'             1650   	l	r2,	NEAR _chark
00:06C6 00 03                    1651   	mov	r3,	#00h
00:06C8 28-80                    1652   	sub	r0,	r2
00:06CA 39-81                    1653   	subc	r1,	r3
00:06CC 08-90 00-00'             1654   	l	r0,	NEAR _I2C_BUFF[er0]
00:06D0 D0 10                    1655   	add	r0,	#0d0h
00:06D2 00-81                    1656   	mov	r1,	r0
00:06D4 2A-91                    1657   	sll	r1,	#02h
00:06D6 01-81                    1658   	add	r1,	r0
00:06D8 1A-91                    1659   	sll	r1,	#01h
00:06DA 11-91 00-00'             1660   	st	r1,	NEAR _I2CAdd_temp
                                 1661   CBLOCKEND 140 48 580
                                 1662   
                                 1663   ;;								else {I2CAdd_temp = (I2C_BUFF[chari-chark]-0x30);}
                                 1664   CLINEA 0000H 0001H 0245H 0009H 003AH
00:06DE 0D CE                    1665   	bal	_$L185
00:06E0                          1666   _$L183 :
                                 1667   CBLOCK 140 49 581
00:06E0 10-90 00-00'             1668   	l	r0,	NEAR _chari
00:06E4 00 01                    1669   	mov	r1,	#00h
00:06E6 10-92 00-00'             1670   	l	r2,	NEAR _chark
00:06EA 00 03                    1671   	mov	r3,	#00h
00:06EC 28-80                    1672   	sub	r0,	r2
00:06EE 39-81                    1673   	subc	r1,	r3
00:06F0 08-90 00-00'             1674   	l	r0,	NEAR _I2C_BUFF[er0]
00:06F4 D0 10                    1675   	add	r0,	#0d0h
00:06F6 11-90 00-00'             1676   	st	r0,	NEAR _I2CAdd_temp
                                 1677   CBLOCKEND 140 49 581
00:06FA                          1678   _$L185 :
                                 1679   
                                 1680   ;;								I2CAdd += I2CAdd_temp;
                                 1681   CLINEA 0000H 0001H 0246H 0009H 001EH
00:06FA 10-90 00-00'             1682   	l	r0,	NEAR _I2CAdd
00:06FE 10-91 00-00'             1683   	l	r1,	NEAR _I2CAdd_temp
00:0702 11-80                    1684   	add	r0,	r1
00:0704 11-90 00-00'             1685   	st	r0,	NEAR _I2CAdd
                                 1686   CBLOCKEND 140 46 583
                                 1687   CBLOCKEND 140 47 860
                                 1688   
                                 1689   ;;							for(chark = charj; chark>0; chark--){
                                 1690   CLINEA 0000H 0000H 0242H 0024H 002AH
00:0708 20-80                    1691   	mov	r0,	r2
00:070A FF 10                    1692   	add	r0,	#0ffh
                                 1693   
                                 1694   ;;							for(chark = charj; chark>0; chark--){
                                 1695   CLINEA 0000H 0000H 0242H 0001H 000BH
00:070C                          1696   _$L435 :
00:070C 11-90 00-00'             1697   	st	r0,	NEAR _chark
                                 1698   
                                 1699   ;;							for(chark = charj; chark>0; chark--){
                                 1700   CLINEA 0000H 0000H 0242H 001BH 0022H
00:0710 00 70                    1701   	cmp	r0,	#00h
00:0712 02 C3                    1702   	ble	_$M57
00:0714 00-F0'00-00'             1703   	b	_$L176
00:0718                          1704   _$M57 :
                                 1705   
                                 1706   ;;							chari++;
                                 1707   CLINEA 0000H 0000H 0248H 0008H 000FH
00:0718 0C-F0 00-00'             1708   	lea	OFFSET _chari
00:071C 2F-FE                    1709   	inc	[ea]
                                 1710   
                                 1711   ;;							charj = 0;
                                 1712   CLINEA 0000H 0001H 0249H 0008H 0011H
00:071E 00 00                    1713   	mov	r0,	#00h
                                 1714   
                                 1715   ;;							while(I2C_BUFF[chari]!=0x20){
                                 1716   CLINEA 0000H 0000H 024AH 0001H 000BH
00:0720 06 CE                    1717   	bal	_$L436
                                 1718   
                                 1719   ;;							while(I2C_BUFF[chari]!=0x20){
                                 1720   CLINEA 0000H 0000H 024AH 0008H 0024H
00:0722                          1721   _$L188 :
                                 1722   CBLOCK 140 50 586
                                 1723   
                                 1724   ;;								chari++;
                                 1725   CLINEA 0000H 0000H 024BH 0009H 0010H
00:0722 0C-F0 00-00'             1726   	lea	OFFSET _chari
00:0726 2F-FE                    1727   	inc	[ea]
                                 1728   
                                 1729   ;;								charj++;
                                 1730   CLINEA 0000H 0000H 024CH 0009H 0010H
00:0728 10-90 00-00'             1731   	l	r0,	NEAR _charj
00:072C 01 10                    1732   	add	r0,	#01h
                                 1733   CBLOCKEND 140 50 589
                                 1734   
                                 1735   ;;							while(I2C_BUFF[chari]!=0x20){
                                 1736   CLINEA 0000H 0000H 024AH 0001H 000BH
00:072E                          1737   _$L436 :
00:072E 11-90 00-00'             1738   	st	r0,	NEAR _charj
                                 1739   
                                 1740   ;;							while(I2C_BUFF[chari]!=0x20){
                                 1741   CLINEA 0000H 0000H 024AH 001BH 0022H
00:0732 10-90 00-00'             1742   	l	r0,	NEAR _chari
00:0736 00 01                    1743   	mov	r1,	#00h
00:0738 08-90 00-00'             1744   	l	r0,	NEAR _I2C_BUFF[er0]
00:073C 20 70                    1745   	cmp	r0,	#020h
00:073E F1 C8                    1746   	bne	_$L188
                                 1747   
                                 1748   ;;							for(chark = charj; chark>0; chark--){
                                 1749   CLINEA 0000H 0001H 024EH 000CH 0019H
00:0740 10-90 00-00'             1750   	l	r0,	NEAR _charj
                                 1751   
                                 1752   ;;							for(chark = charj; chark>0; chark--){
                                 1753   CLINEA 0000H 0000H 024EH 0001H 000BH
00:0744 40 CE                    1754   	bal	_$L437
                                 1755   
                                 1756   ;;							for(chark = charj; chark>0; chark--){
                                 1757   CLINEA 0000H 0000H 024EH 0024H 002AH
00:0746                          1758   _$L192 :
                                 1759   CBLOCK 140 51 590
                                 1760   
                                 1761   ;;								if(chark == 3){I2CNumBytes_temp = (I2C_BUFF[chari-chark]-0x30)*100;}
                                 1762   CLINEA 0000H 0001H 024FH 0009H 004CH
00:0746 03 70                    1763   	cmp	r0,	#03h
00:0748 14 C8                    1764   	bne	_$L196
                                 1765   CBLOCK 140 52 591
00:074A 10-90 00-00'             1766   	l	r0,	NEAR _chari
00:074E 00 01                    1767   	mov	r1,	#00h
00:0750 10-92 00-00'             1768   	l	r2,	NEAR _chark
00:0754 00 03                    1769   	mov	r3,	#00h
00:0756 28-80                    1770   	sub	r0,	r2
00:0758 39-81                    1771   	subc	r1,	r3
00:075A 08-90 00-00'             1772   	l	r0,	NEAR _I2C_BUFF[er0]
00:075E D0 10                    1773   	add	r0,	#0d0h
00:0760 00-81                    1774   	mov	r1,	r0
00:0762 1A-91                    1775   	sll	r1,	#01h
00:0764 01-81                    1776   	add	r1,	r0
00:0766 3A-91                    1777   	sll	r1,	#03h
00:0768 01-81                    1778   	add	r1,	r0
00:076A 2A-91                    1779   	sll	r1,	#02h
00:076C 11-91 00-00'             1780   	st	r1,	NEAR _I2CNumBytes_temp
                                 1781   
                                 1782   ;;								else if(chark == 2){I2CNumBytes_temp = (I2C_BUFF[chari-chark]-0x30)*10;}
                                 1783   CLINEA 0000H 0001H 0250H 0009H 0050H
00:0770 21 CE                    1784   	bal	_$L201
00:0772                          1785   _$L196 :
00:0772 02 70                    1786   	cmp	r0,	#02h
00:0774 12 C8                    1787   	bne	_$L199
                                 1788   CBLOCK 140 53 592
00:0776 10-90 00-00'             1789   	l	r0,	NEAR _chari
00:077A 00 01                    1790   	mov	r1,	#00h
00:077C 10-92 00-00'             1791   	l	r2,	NEAR _chark
00:0780 00 03                    1792   	mov	r3,	#00h
00:0782 28-80                    1793   	sub	r0,	r2
00:0784 39-81                    1794   	subc	r1,	r3
00:0786 08-90 00-00'             1795   	l	r0,	NEAR _I2C_BUFF[er0]
00:078A D0 10                    1796   	add	r0,	#0d0h
00:078C 00-81                    1797   	mov	r1,	r0
00:078E 2A-91                    1798   	sll	r1,	#02h
00:0790 01-81                    1799   	add	r1,	r0
00:0792 1A-91                    1800   	sll	r1,	#01h
00:0794 11-91 00-00'             1801   	st	r1,	NEAR _I2CNumBytes_temp
                                 1802   CBLOCKEND 140 53 592
                                 1803   
                                 1804   ;;								else {I2CNumBytes_temp = (I2C_BUFF[chari-chark]-0x30);}
                                 1805   CLINEA 0000H 0001H 0251H 0009H 003FH
00:0798 0D CE                    1806   	bal	_$L201
00:079A                          1807   _$L199 :
                                 1808   CBLOCK 140 54 593
00:079A 10-90 00-00'             1809   	l	r0,	NEAR _chari
00:079E 00 01                    1810   	mov	r1,	#00h
00:07A0 10-92 00-00'             1811   	l	r2,	NEAR _chark
00:07A4 00 03                    1812   	mov	r3,	#00h
00:07A6 28-80                    1813   	sub	r0,	r2
00:07A8 39-81                    1814   	subc	r1,	r3
00:07AA 08-90 00-00'             1815   	l	r0,	NEAR _I2C_BUFF[er0]
00:07AE D0 10                    1816   	add	r0,	#0d0h
00:07B0 11-90 00-00'             1817   	st	r0,	NEAR _I2CNumBytes_temp
                                 1818   CBLOCKEND 140 54 593
00:07B4                          1819   _$L201 :
                                 1820   
                                 1821   ;;								I2CNumBytes += I2CNumBytes_temp;
                                 1822   CLINEA 0000H 0001H 0252H 0009H 0028H
00:07B4 10-90 00-00'             1823   	l	r0,	NEAR _I2CNumBytes
00:07B8 10-91 00-00'             1824   	l	r1,	NEAR _I2CNumBytes_temp
00:07BC 11-80                    1825   	add	r0,	r1
00:07BE 11-90 00-00'             1826   	st	r0,	NEAR _I2CNumBytes
                                 1827   CBLOCKEND 140 51 595
                                 1828   CBLOCKEND 140 52 860
                                 1829   
                                 1830   ;;							for(chark = charj; chark>0; chark--){
                                 1831   CLINEA 0000H 0000H 024EH 0024H 002AH
00:07C2 20-80                    1832   	mov	r0,	r2
00:07C4 FF 10                    1833   	add	r0,	#0ffh
                                 1834   
                                 1835   ;;							for(chark = charj; chark>0; chark--){
                                 1836   CLINEA 0000H 0000H 024EH 0001H 000BH
00:07C6                          1837   _$L437 :
00:07C6 11-90 00-00'             1838   	st	r0,	NEAR _chark
                                 1839   
                                 1840   ;;							for(chark = charj; chark>0; chark--){
                                 1841   CLINEA 0000H 0000H 024EH 001BH 0022H
00:07CA 00 70                    1842   	cmp	r0,	#00h
00:07CC 02 C3                    1843   	ble	_$M58
00:07CE 00-F0'00-00'             1844   	b	_$L192
00:07D2                          1845   _$M58 :
                                 1846   
                                 1847   ;;							chari++;
                                 1848   CLINEA 0000H 0000H 0254H 0008H 000FH
00:07D2 0C-F0 00-00'             1849   	lea	OFFSET _chari
00:07D6 2F-FE                    1850   	inc	[ea]
                                 1851   
                                 1852   ;;							charj = 0;
                                 1853   CLINEA 0000H 0001H 0255H 0008H 0011H
00:07D8 00 00                    1854   	mov	r0,	#00h
                                 1855   
                                 1856   ;;							while(I2C_BUFF[chari]!=0x20){
                                 1857   CLINEA 0000H 0000H 0257H 0001H 000BH
00:07DA 06 CE                    1858   	bal	_$L438
                                 1859   
                                 1860   ;;							while(I2C_BUFF[chari]!=0x20){
                                 1861   CLINEA 0000H 0000H 0257H 0008H 0024H
00:07DC                          1862   _$L204 :
                                 1863   CBLOCK 140 55 599
                                 1864   
                                 1865   ;;								chari++;
                                 1866   CLINEA 0000H 0000H 0258H 0009H 0010H
00:07DC 0C-F0 00-00'             1867   	lea	OFFSET _chari
00:07E0 2F-FE                    1868   	inc	[ea]
                                 1869   
                                 1870   ;;								charj++;
                                 1871   CLINEA 0000H 0000H 0259H 0009H 0010H
00:07E2 10-90 00-00'             1872   	l	r0,	NEAR _charj
00:07E6 01 10                    1873   	add	r0,	#01h
                                 1874   CBLOCKEND 140 55 602
                                 1875   
                                 1876   ;;							while(I2C_BUFF[chari]!=0x20){
                                 1877   CLINEA 0000H 0000H 0257H 0001H 000BH
00:07E8                          1878   _$L438 :
00:07E8 11-90 00-00'             1879   	st	r0,	NEAR _charj
                                 1880   
                                 1881   ;;							while(I2C_BUFF[chari]!=0x20){
                                 1882   CLINEA 0000H 0000H 0257H 001BH 0022H
00:07EC 10-90 00-00'             1883   	l	r0,	NEAR _chari
00:07F0 00 01                    1884   	mov	r1,	#00h
00:07F2 08-90 00-00'             1885   	l	r0,	NEAR _I2C_BUFF[er0]
00:07F6 20 70                    1886   	cmp	r0,	#020h
00:07F8 F1 C8                    1887   	bne	_$L204
                                 1888   
                                 1889   ;;							for(chark = charj; chark>0; chark--){
                                 1890   CLINEA 0000H 0001H 025BH 000CH 0019H
00:07FA 10-90 00-00'             1891   	l	r0,	NEAR _charj
                                 1892   
                                 1893   ;;							for(chark = charj; chark>0; chark--){
                                 1894   CLINEA 0000H 0000H 025BH 0001H 000BH
00:07FE 40 CE                    1895   	bal	_$L439
                                 1896   
                                 1897   ;;							for(chark = charj; chark>0; chark--){
                                 1898   CLINEA 0000H 0000H 025BH 0024H 002AH
00:0800                          1899   _$L208 :
                                 1900   CBLOCK 140 56 603
                                 1901   
                                 1902   ;;								if(chark == 3){Data0Str_temp = (I2C_BUFF[chari-chark]-0x30)*100;}
                                 1903   CLINEA 0000H 0001H 025CH 0009H 0049H
00:0800 03 70                    1904   	cmp	r0,	#03h
00:0802 14 C8                    1905   	bne	_$L212
                                 1906   CBLOCK 140 57 604
00:0804 10-90 00-00'             1907   	l	r0,	NEAR _chari
00:0808 00 01                    1908   	mov	r1,	#00h
00:080A 10-92 00-00'             1909   	l	r2,	NEAR _chark
00:080E 00 03                    1910   	mov	r3,	#00h
00:0810 28-80                    1911   	sub	r0,	r2
00:0812 39-81                    1912   	subc	r1,	r3
00:0814 08-90 00-00'             1913   	l	r0,	NEAR _I2C_BUFF[er0]
00:0818 D0 10                    1914   	add	r0,	#0d0h
00:081A 00-81                    1915   	mov	r1,	r0
00:081C 1A-91                    1916   	sll	r1,	#01h
00:081E 01-81                    1917   	add	r1,	r0
00:0820 3A-91                    1918   	sll	r1,	#03h
00:0822 01-81                    1919   	add	r1,	r0
00:0824 2A-91                    1920   	sll	r1,	#02h
00:0826 11-91 00-00'             1921   	st	r1,	NEAR _Data0Str_temp
                                 1922   
                                 1923   ;;								else if(chark == 2){Data0Str_temp = (I2C_BUFF[chari-chark]-0x30)*10;}
                                 1924   CLINEA 0000H 0001H 025DH 0009H 004DH
00:082A 21 CE                    1925   	bal	_$L217
00:082C                          1926   _$L212 :
00:082C 02 70                    1927   	cmp	r0,	#02h
00:082E 12 C8                    1928   	bne	_$L215
                                 1929   CBLOCK 140 58 605
00:0830 10-90 00-00'             1930   	l	r0,	NEAR _chari
00:0834 00 01                    1931   	mov	r1,	#00h
00:0836 10-92 00-00'             1932   	l	r2,	NEAR _chark
00:083A 00 03                    1933   	mov	r3,	#00h
00:083C 28-80                    1934   	sub	r0,	r2
00:083E 39-81                    1935   	subc	r1,	r3
00:0840 08-90 00-00'             1936   	l	r0,	NEAR _I2C_BUFF[er0]
00:0844 D0 10                    1937   	add	r0,	#0d0h
00:0846 00-81                    1938   	mov	r1,	r0
00:0848 2A-91                    1939   	sll	r1,	#02h
00:084A 01-81                    1940   	add	r1,	r0
00:084C 1A-91                    1941   	sll	r1,	#01h
00:084E 11-91 00-00'             1942   	st	r1,	NEAR _Data0Str_temp
                                 1943   CBLOCKEND 140 58 605
                                 1944   
                                 1945   ;;								else {Data0Str_temp = (I2C_BUFF[chari-chark]-0x30);}
                                 1946   CLINEA 0000H 0001H 025EH 0009H 003CH
00:0852 0D CE                    1947   	bal	_$L217
00:0854                          1948   _$L215 :
                                 1949   CBLOCK 140 59 606
00:0854 10-90 00-00'             1950   	l	r0,	NEAR _chari
00:0858 00 01                    1951   	mov	r1,	#00h
00:085A 10-92 00-00'             1952   	l	r2,	NEAR _chark
00:085E 00 03                    1953   	mov	r3,	#00h
00:0860 28-80                    1954   	sub	r0,	r2
00:0862 39-81                    1955   	subc	r1,	r3
00:0864 08-90 00-00'             1956   	l	r0,	NEAR _I2C_BUFF[er0]
00:0868 D0 10                    1957   	add	r0,	#0d0h
00:086A 11-90 00-00'             1958   	st	r0,	NEAR _Data0Str_temp
                                 1959   CBLOCKEND 140 59 606
00:086E                          1960   _$L217 :
                                 1961   
                                 1962   ;;								Data0Str += Data0Str_temp;
                                 1963   CLINEA 0000H 0001H 025FH 0009H 0022H
00:086E 10-90 00-00'             1964   	l	r0,	NEAR _Data0Str
00:0872 10-91 00-00'             1965   	l	r1,	NEAR _Data0Str_temp
00:0876 11-80                    1966   	add	r0,	r1
00:0878 11-90 00-00'             1967   	st	r0,	NEAR _Data0Str
                                 1968   CBLOCKEND 140 56 608
                                 1969   CBLOCKEND 140 57 860
                                 1970   
                                 1971   ;;							for(chark = charj; chark>0; chark--){
                                 1972   CLINEA 0000H 0000H 025BH 0024H 002AH
00:087C 20-80                    1973   	mov	r0,	r2
00:087E FF 10                    1974   	add	r0,	#0ffh
                                 1975   
                                 1976   ;;							for(chark = charj; chark>0; chark--){
                                 1977   CLINEA 0000H 0000H 025BH 0001H 000BH
00:0880                          1978   _$L439 :
00:0880 11-90 00-00'             1979   	st	r0,	NEAR _chark
                                 1980   
                                 1981   ;;							for(chark = charj; chark>0; chark--){
                                 1982   CLINEA 0000H 0000H 025BH 001BH 0022H
00:0884 00 70                    1983   	cmp	r0,	#00h
00:0886 02 C3                    1984   	ble	_$M59
00:0888 00-F0'00-00'             1985   	b	_$L208
00:088C                          1986   _$M59 :
                                 1987   
                                 1988   ;;							chari++;
                                 1989   CLINEA 0000H 0000H 0261H 0008H 000FH
00:088C 0C-F0 00-00'             1990   	lea	OFFSET _chari
00:0890 2F-FE                    1991   	inc	[ea]
                                 1992   
                                 1993   ;;							charj = 0;
                                 1994   CLINEA 0000H 0001H 0262H 0008H 0011H
00:0892 00 00                    1995   	mov	r0,	#00h
                                 1996   
                                 1997   ;;							while(I2C_BUFF[chari]!=0x20){
                                 1998   CLINEA 0000H 0000H 0264H 0001H 000BH
00:0894 06 CE                    1999   	bal	_$L440
                                 2000   
                                 2001   ;;							while(I2C_BUFF[chari]!=0x20){
                                 2002   CLINEA 0000H 0000H 0264H 0008H 0024H
00:0896                          2003   _$L220 :
                                 2004   CBLOCK 140 60 612
                                 2005   
                                 2006   ;;								chari++;
                                 2007   CLINEA 0000H 0000H 0265H 0009H 0010H
00:0896 0C-F0 00-00'             2008   	lea	OFFSET _chari
00:089A 2F-FE                    2009   	inc	[ea]
                                 2010   
                                 2011   ;;								charj++;
                                 2012   CLINEA 0000H 0000H 0266H 0009H 0010H
00:089C 10-90 00-00'             2013   	l	r0,	NEAR _charj
00:08A0 01 10                    2014   	add	r0,	#01h
                                 2015   CBLOCKEND 140 60 615
                                 2016   
                                 2017   ;;							while(I2C_BUFF[chari]!=0x20){
                                 2018   CLINEA 0000H 0000H 0264H 0001H 000BH
00:08A2                          2019   _$L440 :
00:08A2 11-90 00-00'             2020   	st	r0,	NEAR _charj
                                 2021   
                                 2022   ;;							while(I2C_BUFF[chari]!=0x20){
                                 2023   CLINEA 0000H 0000H 0264H 001BH 0022H
00:08A6 10-90 00-00'             2024   	l	r0,	NEAR _chari
00:08AA 00 01                    2025   	mov	r1,	#00h
00:08AC 08-90 00-00'             2026   	l	r0,	NEAR _I2C_BUFF[er0]
00:08B0 20 70                    2027   	cmp	r0,	#020h
00:08B2 F1 C8                    2028   	bne	_$L220
                                 2029   
                                 2030   ;;							for(chark = charj; chark>0; chark--){
                                 2031   CLINEA 0000H 0001H 0268H 000CH 0019H
00:08B4 10-90 00-00'             2032   	l	r0,	NEAR _charj
                                 2033   
                                 2034   ;;							for(chark = charj; chark>0; chark--){
                                 2035   CLINEA 0000H 0000H 0268H 0001H 000BH
00:08B8 40 CE                    2036   	bal	_$L441
                                 2037   
                                 2038   ;;							for(chark = charj; chark>0; chark--){
                                 2039   CLINEA 0000H 0000H 0268H 0024H 002AH
00:08BA                          2040   _$L224 :
                                 2041   CBLOCK 140 61 616
                                 2042   
                                 2043   ;;								if(chark == 3){Data1Str_temp = (I2C_BUFF[chari-chark]-0x30)*100;}
                                 2044   CLINEA 0000H 0001H 0269H 0009H 0049H
00:08BA 03 70                    2045   	cmp	r0,	#03h
00:08BC 14 C8                    2046   	bne	_$L228
                                 2047   CBLOCK 140 62 617
00:08BE 10-90 00-00'             2048   	l	r0,	NEAR _chari
00:08C2 00 01                    2049   	mov	r1,	#00h
00:08C4 10-92 00-00'             2050   	l	r2,	NEAR _chark
00:08C8 00 03                    2051   	mov	r3,	#00h
00:08CA 28-80                    2052   	sub	r0,	r2
00:08CC 39-81                    2053   	subc	r1,	r3
00:08CE 08-90 00-00'             2054   	l	r0,	NEAR _I2C_BUFF[er0]
00:08D2 D0 10                    2055   	add	r0,	#0d0h
00:08D4 00-81                    2056   	mov	r1,	r0
00:08D6 1A-91                    2057   	sll	r1,	#01h
00:08D8 01-81                    2058   	add	r1,	r0
00:08DA 3A-91                    2059   	sll	r1,	#03h
00:08DC 01-81                    2060   	add	r1,	r0
00:08DE 2A-91                    2061   	sll	r1,	#02h
00:08E0 11-91 00-00'             2062   	st	r1,	NEAR _Data1Str_temp
                                 2063   
                                 2064   ;;								else if(chark == 2){Data1Str_temp = (I2C_BUFF[chari-chark]-0x30)*10;}
                                 2065   CLINEA 0000H 0001H 026AH 0009H 004DH
00:08E4 21 CE                    2066   	bal	_$L233
00:08E6                          2067   _$L228 :
00:08E6 02 70                    2068   	cmp	r0,	#02h
00:08E8 12 C8                    2069   	bne	_$L231
                                 2070   CBLOCK 140 63 618
00:08EA 10-90 00-00'             2071   	l	r0,	NEAR _chari
00:08EE 00 01                    2072   	mov	r1,	#00h
00:08F0 10-92 00-00'             2073   	l	r2,	NEAR _chark
00:08F4 00 03                    2074   	mov	r3,	#00h
00:08F6 28-80                    2075   	sub	r0,	r2
00:08F8 39-81                    2076   	subc	r1,	r3
00:08FA 08-90 00-00'             2077   	l	r0,	NEAR _I2C_BUFF[er0]
00:08FE D0 10                    2078   	add	r0,	#0d0h
00:0900 00-81                    2079   	mov	r1,	r0
00:0902 2A-91                    2080   	sll	r1,	#02h
00:0904 01-81                    2081   	add	r1,	r0
00:0906 1A-91                    2082   	sll	r1,	#01h
00:0908 11-91 00-00'             2083   	st	r1,	NEAR _Data1Str_temp
                                 2084   CBLOCKEND 140 63 618
                                 2085   
                                 2086   ;;								else {Data1Str_temp = (I2C_BUFF[chari-chark]-0x30);}
                                 2087   CLINEA 0000H 0001H 026BH 0009H 003CH
00:090C 0D CE                    2088   	bal	_$L233
00:090E                          2089   _$L231 :
                                 2090   CBLOCK 140 64 619
00:090E 10-90 00-00'             2091   	l	r0,	NEAR _chari
00:0912 00 01                    2092   	mov	r1,	#00h
00:0914 10-92 00-00'             2093   	l	r2,	NEAR _chark
00:0918 00 03                    2094   	mov	r3,	#00h
00:091A 28-80                    2095   	sub	r0,	r2
00:091C 39-81                    2096   	subc	r1,	r3
00:091E 08-90 00-00'             2097   	l	r0,	NEAR _I2C_BUFF[er0]
00:0922 D0 10                    2098   	add	r0,	#0d0h
00:0924 11-90 00-00'             2099   	st	r0,	NEAR _Data1Str_temp
                                 2100   CBLOCKEND 140 64 619
00:0928                          2101   _$L233 :
                                 2102   
                                 2103   ;;								Data1Str += Data1Str_temp;
                                 2104   CLINEA 0000H 0001H 026CH 0009H 0022H
00:0928 10-90 00-00'             2105   	l	r0,	NEAR _Data1Str
00:092C 10-91 00-00'             2106   	l	r1,	NEAR _Data1Str_temp
00:0930 11-80                    2107   	add	r0,	r1
00:0932 11-90 00-00'             2108   	st	r0,	NEAR _Data1Str
                                 2109   CBLOCKEND 140 61 621
                                 2110   CBLOCKEND 140 62 860
                                 2111   
                                 2112   ;;							for(chark = charj; chark>0; chark--){
                                 2113   CLINEA 0000H 0000H 0268H 0024H 002AH
00:0936 20-80                    2114   	mov	r0,	r2
00:0938 FF 10                    2115   	add	r0,	#0ffh
                                 2116   
                                 2117   ;;							for(chark = charj; chark>0; chark--){
                                 2118   CLINEA 0000H 0000H 0268H 0001H 000BH
00:093A                          2119   _$L441 :
00:093A 11-90 00-00'             2120   	st	r0,	NEAR _chark
                                 2121   
                                 2122   ;;							for(chark = charj; chark>0; chark--){
                                 2123   CLINEA 0000H 0000H 0268H 001BH 0022H
00:093E 00 70                    2124   	cmp	r0,	#00h
00:0940 02 C3                    2125   	ble	_$M60
00:0942 00-F0'00-00'             2126   	b	_$L224
00:0946                          2127   _$M60 :
                                 2128   
                                 2129   ;;							chari++;
                                 2130   CLINEA 0000H 0000H 026EH 0008H 000FH
00:0946 0C-F0 00-00'             2131   	lea	OFFSET _chari
00:094A 2F-FE                    2132   	inc	[ea]
                                 2133   
                                 2134   ;;							charj = 0;
                                 2135   CLINEA 0000H 0001H 026FH 0008H 0011H
00:094C 00 00                    2136   	mov	r0,	#00h
                                 2137   
                                 2138   ;;							while(I2C_BUFF[chari]!=0x20){
                                 2139   CLINEA 0000H 0000H 0271H 0001H 000BH
00:094E 06 CE                    2140   	bal	_$L442
                                 2141   
                                 2142   ;;							while(I2C_BUFF[chari]!=0x20){
                                 2143   CLINEA 0000H 0000H 0271H 0008H 0024H
00:0950                          2144   _$L236 :
                                 2145   CBLOCK 140 65 625
                                 2146   
                                 2147   ;;								chari++;
                                 2148   CLINEA 0000H 0000H 0272H 0009H 0010H
00:0950 0C-F0 00-00'             2149   	lea	OFFSET _chari
00:0954 2F-FE                    2150   	inc	[ea]
                                 2151   
                                 2152   ;;								charj++;
                                 2153   CLINEA 0000H 0000H 0273H 0009H 0010H
00:0956 10-90 00-00'             2154   	l	r0,	NEAR _charj
00:095A 01 10                    2155   	add	r0,	#01h
                                 2156   CBLOCKEND 140 65 628
                                 2157   
                                 2158   ;;							while(I2C_BUFF[chari]!=0x20){
                                 2159   CLINEA 0000H 0000H 0271H 0001H 000BH
00:095C                          2160   _$L442 :
00:095C 11-90 00-00'             2161   	st	r0,	NEAR _charj
                                 2162   
                                 2163   ;;							while(I2C_BUFF[chari]!=0x20){
                                 2164   CLINEA 0000H 0000H 0271H 001BH 0022H
00:0960 10-90 00-00'             2165   	l	r0,	NEAR _chari
00:0964 00 01                    2166   	mov	r1,	#00h
00:0966 08-90 00-00'             2167   	l	r0,	NEAR _I2C_BUFF[er0]
00:096A 20 70                    2168   	cmp	r0,	#020h
00:096C F1 C8                    2169   	bne	_$L236
                                 2170   
                                 2171   ;;							for(chark = charj; chark>0; chark--){
                                 2172   CLINEA 0000H 0001H 0275H 000CH 0019H
00:096E 10-90 00-00'             2173   	l	r0,	NEAR _charj
                                 2174   
                                 2175   ;;							for(chark = charj; chark>0; chark--){
                                 2176   CLINEA 0000H 0000H 0275H 0001H 000BH
00:0972 40 CE                    2177   	bal	_$L443
                                 2178   
                                 2179   ;;							for(chark = charj; chark>0; chark--){
                                 2180   CLINEA 0000H 0000H 0275H 0024H 002AH
00:0974                          2181   _$L240 :
                                 2182   CBLOCK 140 66 629
                                 2183   
                                 2184   ;;								if(chark == 3){Data2Str_temp = (I2C_BUFF[chari-chark]-0x30)*100;}
                                 2185   CLINEA 0000H 0001H 0276H 0009H 0049H
00:0974 03 70                    2186   	cmp	r0,	#03h
00:0976 14 C8                    2187   	bne	_$L244
                                 2188   CBLOCK 140 67 630
00:0978 10-90 00-00'             2189   	l	r0,	NEAR _chari
00:097C 00 01                    2190   	mov	r1,	#00h
00:097E 10-92 00-00'             2191   	l	r2,	NEAR _chark
00:0982 00 03                    2192   	mov	r3,	#00h
00:0984 28-80                    2193   	sub	r0,	r2
00:0986 39-81                    2194   	subc	r1,	r3
00:0988 08-90 00-00'             2195   	l	r0,	NEAR _I2C_BUFF[er0]
00:098C D0 10                    2196   	add	r0,	#0d0h
00:098E 00-81                    2197   	mov	r1,	r0
00:0990 1A-91                    2198   	sll	r1,	#01h
00:0992 01-81                    2199   	add	r1,	r0
00:0994 3A-91                    2200   	sll	r1,	#03h
00:0996 01-81                    2201   	add	r1,	r0
00:0998 2A-91                    2202   	sll	r1,	#02h
00:099A 11-91 00-00'             2203   	st	r1,	NEAR _Data2Str_temp
                                 2204   
                                 2205   ;;								else if(chark == 2){Data2Str_temp = (I2C_BUFF[chari-chark]-0x30)*10;}
                                 2206   CLINEA 0000H 0001H 0277H 0009H 004DH
00:099E 21 CE                    2207   	bal	_$L249
00:09A0                          2208   _$L244 :
00:09A0 02 70                    2209   	cmp	r0,	#02h
00:09A2 12 C8                    2210   	bne	_$L247
                                 2211   CBLOCK 140 68 631
00:09A4 10-90 00-00'             2212   	l	r0,	NEAR _chari
00:09A8 00 01                    2213   	mov	r1,	#00h
00:09AA 10-92 00-00'             2214   	l	r2,	NEAR _chark
00:09AE 00 03                    2215   	mov	r3,	#00h
00:09B0 28-80                    2216   	sub	r0,	r2
00:09B2 39-81                    2217   	subc	r1,	r3
00:09B4 08-90 00-00'             2218   	l	r0,	NEAR _I2C_BUFF[er0]
00:09B8 D0 10                    2219   	add	r0,	#0d0h
00:09BA 00-81                    2220   	mov	r1,	r0
00:09BC 2A-91                    2221   	sll	r1,	#02h
00:09BE 01-81                    2222   	add	r1,	r0
00:09C0 1A-91                    2223   	sll	r1,	#01h
00:09C2 11-91 00-00'             2224   	st	r1,	NEAR _Data2Str_temp
                                 2225   CBLOCKEND 140 68 631
                                 2226   
                                 2227   ;;								else {Data2Str_temp = (I2C_BUFF[chari-chark]-0x30);}
                                 2228   CLINEA 0000H 0001H 0278H 0009H 003CH
00:09C6 0D CE                    2229   	bal	_$L249
00:09C8                          2230   _$L247 :
                                 2231   CBLOCK 140 69 632
00:09C8 10-90 00-00'             2232   	l	r0,	NEAR _chari
00:09CC 00 01                    2233   	mov	r1,	#00h
00:09CE 10-92 00-00'             2234   	l	r2,	NEAR _chark
00:09D2 00 03                    2235   	mov	r3,	#00h
00:09D4 28-80                    2236   	sub	r0,	r2
00:09D6 39-81                    2237   	subc	r1,	r3
00:09D8 08-90 00-00'             2238   	l	r0,	NEAR _I2C_BUFF[er0]
00:09DC D0 10                    2239   	add	r0,	#0d0h
00:09DE 11-90 00-00'             2240   	st	r0,	NEAR _Data2Str_temp
                                 2241   CBLOCKEND 140 69 632
00:09E2                          2242   _$L249 :
                                 2243   
                                 2244   ;;								Data2Str += Data2Str_temp;
                                 2245   CLINEA 0000H 0001H 0279H 0009H 0022H
00:09E2 10-90 00-00'             2246   	l	r0,	NEAR _Data2Str
00:09E6 10-91 00-00'             2247   	l	r1,	NEAR _Data2Str_temp
00:09EA 11-80                    2248   	add	r0,	r1
00:09EC 11-90 00-00'             2249   	st	r0,	NEAR _Data2Str
                                 2250   CBLOCKEND 140 66 634
                                 2251   CBLOCKEND 140 67 860
                                 2252   
                                 2253   ;;							for(chark = charj; chark>0; chark--){
                                 2254   CLINEA 0000H 0000H 0275H 0024H 002AH
00:09F0 20-80                    2255   	mov	r0,	r2
00:09F2 FF 10                    2256   	add	r0,	#0ffh
                                 2257   
                                 2258   ;;							for(chark = charj; chark>0; chark--){
                                 2259   CLINEA 0000H 0000H 0275H 0001H 000BH
00:09F4                          2260   _$L443 :
00:09F4 11-90 00-00'             2261   	st	r0,	NEAR _chark
                                 2262   
                                 2263   ;;							for(chark = charj; chark>0; chark--){
                                 2264   CLINEA 0000H 0000H 0275H 001BH 0022H
00:09F8 00 70                    2265   	cmp	r0,	#00h
00:09FA 02 C3                    2266   	ble	_$M61
00:09FC 00-F0'00-00'             2267   	b	_$L240
00:0A00                          2268   _$M61 :
                                 2269   
                                 2270   ;;							chari++;
                                 2271   CLINEA 0000H 0000H 027BH 0008H 000FH
00:0A00 0C-F0 00-00'             2272   	lea	OFFSET _chari
00:0A04 2F-FE                    2273   	inc	[ea]
                                 2274   
                                 2275   ;;							charj = 0;
                                 2276   CLINEA 0000H 0001H 027CH 0008H 0011H
00:0A06 00 00                    2277   	mov	r0,	#00h
                                 2278   
                                 2279   ;;							while(I2C_BUFF[chari]!=0x20){
                                 2280   CLINEA 0000H 0000H 027EH 0001H 000BH
00:0A08 06 CE                    2281   	bal	_$L444
                                 2282   
                                 2283   ;;							while(I2C_BUFF[chari]!=0x20){
                                 2284   CLINEA 0000H 0000H 027EH 0008H 0024H
00:0A0A                          2285   _$L252 :
                                 2286   CBLOCK 140 70 638
                                 2287   
                                 2288   ;;								chari++;
                                 2289   CLINEA 0000H 0000H 027FH 0009H 0010H
00:0A0A 0C-F0 00-00'             2290   	lea	OFFSET _chari
00:0A0E 2F-FE                    2291   	inc	[ea]
                                 2292   
                                 2293   ;;								charj++;
                                 2294   CLINEA 0000H 0000H 0280H 0009H 0010H
00:0A10 10-90 00-00'             2295   	l	r0,	NEAR _charj
00:0A14 01 10                    2296   	add	r0,	#01h
                                 2297   CBLOCKEND 140 70 641
                                 2298   
                                 2299   ;;							while(I2C_BUFF[chari]!=0x20){
                                 2300   CLINEA 0000H 0000H 027EH 0001H 000BH
00:0A16                          2301   _$L444 :
00:0A16 11-90 00-00'             2302   	st	r0,	NEAR _charj
                                 2303   
                                 2304   ;;							while(I2C_BUFF[chari]!=0x20){
                                 2305   CLINEA 0000H 0000H 027EH 001BH 0022H
00:0A1A 10-90 00-00'             2306   	l	r0,	NEAR _chari
00:0A1E 00 01                    2307   	mov	r1,	#00h
00:0A20 08-90 00-00'             2308   	l	r0,	NEAR _I2C_BUFF[er0]
00:0A24 20 70                    2309   	cmp	r0,	#020h
00:0A26 F1 C8                    2310   	bne	_$L252
                                 2311   
                                 2312   ;;							for(chark = charj; chark>0; chark--){
                                 2313   CLINEA 0000H 0001H 0282H 000CH 0019H
00:0A28 10-90 00-00'             2314   	l	r0,	NEAR _charj
                                 2315   
                                 2316   ;;							for(chark = charj; chark>0; chark--){
                                 2317   CLINEA 0000H 0000H 0282H 0001H 000BH
00:0A2C 40 CE                    2318   	bal	_$L445
                                 2319   
                                 2320   ;;							for(chark = charj; chark>0; chark--){
                                 2321   CLINEA 0000H 0000H 0282H 0024H 002AH
00:0A2E                          2322   _$L256 :
                                 2323   CBLOCK 140 71 642
                                 2324   
                                 2325   ;;								if(chark == 3){Data3Str_temp = (I2C_BUFF[chari-chark]-0x30)*100;}
                                 2326   CLINEA 0000H 0001H 0283H 0009H 0049H
00:0A2E 03 70                    2327   	cmp	r0,	#03h
00:0A30 14 C8                    2328   	bne	_$L260
                                 2329   CBLOCK 140 72 643
00:0A32 10-90 00-00'             2330   	l	r0,	NEAR _chari
00:0A36 00 01                    2331   	mov	r1,	#00h
00:0A38 10-92 00-00'             2332   	l	r2,	NEAR _chark
00:0A3C 00 03                    2333   	mov	r3,	#00h
00:0A3E 28-80                    2334   	sub	r0,	r2
00:0A40 39-81                    2335   	subc	r1,	r3
00:0A42 08-90 00-00'             2336   	l	r0,	NEAR _I2C_BUFF[er0]
00:0A46 D0 10                    2337   	add	r0,	#0d0h
00:0A48 00-81                    2338   	mov	r1,	r0
00:0A4A 1A-91                    2339   	sll	r1,	#01h
00:0A4C 01-81                    2340   	add	r1,	r0
00:0A4E 3A-91                    2341   	sll	r1,	#03h
00:0A50 01-81                    2342   	add	r1,	r0
00:0A52 2A-91                    2343   	sll	r1,	#02h
00:0A54 11-91 00-00'             2344   	st	r1,	NEAR _Data3Str_temp
                                 2345   
                                 2346   ;;								else if(chark == 2){Data3Str_temp = (I2C_BUFF[chari-chark]-0x30)*10;}
                                 2347   CLINEA 0000H 0001H 0284H 0009H 004DH
00:0A58 21 CE                    2348   	bal	_$L265
00:0A5A                          2349   _$L260 :
00:0A5A 02 70                    2350   	cmp	r0,	#02h
00:0A5C 12 C8                    2351   	bne	_$L263
                                 2352   CBLOCK 140 73 644
00:0A5E 10-90 00-00'             2353   	l	r0,	NEAR _chari
00:0A62 00 01                    2354   	mov	r1,	#00h
00:0A64 10-92 00-00'             2355   	l	r2,	NEAR _chark
00:0A68 00 03                    2356   	mov	r3,	#00h
00:0A6A 28-80                    2357   	sub	r0,	r2
00:0A6C 39-81                    2358   	subc	r1,	r3
00:0A6E 08-90 00-00'             2359   	l	r0,	NEAR _I2C_BUFF[er0]
00:0A72 D0 10                    2360   	add	r0,	#0d0h
00:0A74 00-81                    2361   	mov	r1,	r0
00:0A76 2A-91                    2362   	sll	r1,	#02h
00:0A78 01-81                    2363   	add	r1,	r0
00:0A7A 1A-91                    2364   	sll	r1,	#01h
00:0A7C 11-91 00-00'             2365   	st	r1,	NEAR _Data3Str_temp
                                 2366   CBLOCKEND 140 73 644
                                 2367   
                                 2368   ;;								else {Data3Str_temp = (I2C_BUFF[chari-chark]-0x30);}
                                 2369   CLINEA 0000H 0001H 0285H 0009H 003CH
00:0A80 0D CE                    2370   	bal	_$L265
00:0A82                          2371   _$L263 :
                                 2372   CBLOCK 140 74 645
00:0A82 10-90 00-00'             2373   	l	r0,	NEAR _chari
00:0A86 00 01                    2374   	mov	r1,	#00h
00:0A88 10-92 00-00'             2375   	l	r2,	NEAR _chark
00:0A8C 00 03                    2376   	mov	r3,	#00h
00:0A8E 28-80                    2377   	sub	r0,	r2
00:0A90 39-81                    2378   	subc	r1,	r3
00:0A92 08-90 00-00'             2379   	l	r0,	NEAR _I2C_BUFF[er0]
00:0A96 D0 10                    2380   	add	r0,	#0d0h
00:0A98 11-90 00-00'             2381   	st	r0,	NEAR _Data3Str_temp
                                 2382   CBLOCKEND 140 74 645
00:0A9C                          2383   _$L265 :
                                 2384   
                                 2385   ;;								Data3Str += Data3Str_temp;
                                 2386   CLINEA 0000H 0001H 0286H 0009H 0022H
00:0A9C 10-90 00-00'             2387   	l	r0,	NEAR _Data3Str
00:0AA0 10-91 00-00'             2388   	l	r1,	NEAR _Data3Str_temp
00:0AA4 11-80                    2389   	add	r0,	r1
00:0AA6 11-90 00-00'             2390   	st	r0,	NEAR _Data3Str
                                 2391   CBLOCKEND 140 71 647
                                 2392   CBLOCKEND 140 72 860
                                 2393   
                                 2394   ;;							for(chark = charj; chark>0; chark--){
                                 2395   CLINEA 0000H 0000H 0282H 0024H 002AH
00:0AAA 20-80                    2396   	mov	r0,	r2
00:0AAC FF 10                    2397   	add	r0,	#0ffh
                                 2398   
                                 2399   ;;							for(chark = charj; chark>0; chark--){
                                 2400   CLINEA 0000H 0000H 0282H 0001H 000BH
00:0AAE                          2401   _$L445 :
00:0AAE 11-90 00-00'             2402   	st	r0,	NEAR _chark
                                 2403   
                                 2404   ;;							for(chark = charj; chark>0; chark--){
                                 2405   CLINEA 0000H 0000H 0282H 001BH 0022H
00:0AB2 00 70                    2406   	cmp	r0,	#00h
00:0AB4 02 C3                    2407   	ble	_$M62
00:0AB6 00-F0'00-00'             2408   	b	_$L256
00:0ABA                          2409   _$M62 :
                                 2410   
                                 2411   ;;							chari++;
                                 2412   CLINEA 0000H 0000H 0288H 0008H 000FH
00:0ABA 0C-F0 00-00'             2413   	lea	OFFSET _chari
00:0ABE 2F-FE                    2414   	inc	[ea]
                                 2415   
                                 2416   ;;							charj = 0;
                                 2417   CLINEA 0000H 0001H 0289H 0008H 0011H
00:0AC0 00 00                    2418   	mov	r0,	#00h
                                 2419   
                                 2420   ;;							while(I2C_BUFF[chari]!=0x20){
                                 2421   CLINEA 0000H 0000H 028BH 0001H 000BH
00:0AC2 06 CE                    2422   	bal	_$L446
                                 2423   
                                 2424   ;;							while(I2C_BUFF[chari]!=0x20){
                                 2425   CLINEA 0000H 0000H 028BH 0008H 0024H
00:0AC4                          2426   _$L268 :
                                 2427   CBLOCK 140 75 651
                                 2428   
                                 2429   ;;								chari++;
                                 2430   CLINEA 0000H 0000H 028CH 0009H 0010H
00:0AC4 0C-F0 00-00'             2431   	lea	OFFSET _chari
00:0AC8 2F-FE                    2432   	inc	[ea]
                                 2433   
                                 2434   ;;								charj++;
                                 2435   CLINEA 0000H 0000H 028DH 0009H 0010H
00:0ACA 10-90 00-00'             2436   	l	r0,	NEAR _charj
00:0ACE 01 10                    2437   	add	r0,	#01h
                                 2438   CBLOCKEND 140 75 654
                                 2439   
                                 2440   ;;							while(I2C_BUFF[chari]!=0x20){
                                 2441   CLINEA 0000H 0000H 028BH 0001H 000BH
00:0AD0                          2442   _$L446 :
00:0AD0 11-90 00-00'             2443   	st	r0,	NEAR _charj
                                 2444   
                                 2445   ;;							while(I2C_BUFF[chari]!=0x20){
                                 2446   CLINEA 0000H 0000H 028BH 001BH 0022H
00:0AD4 10-90 00-00'             2447   	l	r0,	NEAR _chari
00:0AD8 00 01                    2448   	mov	r1,	#00h
00:0ADA 08-90 00-00'             2449   	l	r0,	NEAR _I2C_BUFF[er0]
00:0ADE 20 70                    2450   	cmp	r0,	#020h
00:0AE0 F1 C8                    2451   	bne	_$L268
                                 2452   
                                 2453   ;;							for(chark = charj; chark>0; chark--){
                                 2454   CLINEA 0000H 0001H 028FH 000CH 0019H
00:0AE2 10-90 00-00'             2455   	l	r0,	NEAR _charj
                                 2456   
                                 2457   ;;							for(chark = charj; chark>0; chark--){
                                 2458   CLINEA 0000H 0000H 028FH 0001H 000BH
00:0AE6 40 CE                    2459   	bal	_$L447
                                 2460   
                                 2461   ;;							for(chark = charj; chark>0; chark--){
                                 2462   CLINEA 0000H 0000H 028FH 0024H 002AH
00:0AE8                          2463   _$L272 :
                                 2464   CBLOCK 140 76 655
                                 2465   
                                 2466   ;;								if(chark == 3){Data4Str_temp = (I2C_BUFF[chari-chark]-0x30)*100;}
                                 2467   CLINEA 0000H 0001H 0290H 0009H 0049H
00:0AE8 03 70                    2468   	cmp	r0,	#03h
00:0AEA 14 C8                    2469   	bne	_$L276
                                 2470   CBLOCK 140 77 656
00:0AEC 10-90 00-00'             2471   	l	r0,	NEAR _chari
00:0AF0 00 01                    2472   	mov	r1,	#00h
00:0AF2 10-92 00-00'             2473   	l	r2,	NEAR _chark
00:0AF6 00 03                    2474   	mov	r3,	#00h
00:0AF8 28-80                    2475   	sub	r0,	r2
00:0AFA 39-81                    2476   	subc	r1,	r3
00:0AFC 08-90 00-00'             2477   	l	r0,	NEAR _I2C_BUFF[er0]
00:0B00 D0 10                    2478   	add	r0,	#0d0h
00:0B02 00-81                    2479   	mov	r1,	r0
00:0B04 1A-91                    2480   	sll	r1,	#01h
00:0B06 01-81                    2481   	add	r1,	r0
00:0B08 3A-91                    2482   	sll	r1,	#03h
00:0B0A 01-81                    2483   	add	r1,	r0
00:0B0C 2A-91                    2484   	sll	r1,	#02h
00:0B0E 11-91 00-00'             2485   	st	r1,	NEAR _Data4Str_temp
                                 2486   
                                 2487   ;;								else if(chark == 2){Data4Str_temp = (I2C_BUFF[chari-chark]-0x30)*10;}
                                 2488   CLINEA 0000H 0001H 0291H 0009H 004DH
00:0B12 21 CE                    2489   	bal	_$L281
00:0B14                          2490   _$L276 :
00:0B14 02 70                    2491   	cmp	r0,	#02h
00:0B16 12 C8                    2492   	bne	_$L279
                                 2493   CBLOCK 140 78 657
00:0B18 10-90 00-00'             2494   	l	r0,	NEAR _chari
00:0B1C 00 01                    2495   	mov	r1,	#00h
00:0B1E 10-92 00-00'             2496   	l	r2,	NEAR _chark
00:0B22 00 03                    2497   	mov	r3,	#00h
00:0B24 28-80                    2498   	sub	r0,	r2
00:0B26 39-81                    2499   	subc	r1,	r3
00:0B28 08-90 00-00'             2500   	l	r0,	NEAR _I2C_BUFF[er0]
00:0B2C D0 10                    2501   	add	r0,	#0d0h
00:0B2E 00-81                    2502   	mov	r1,	r0
00:0B30 2A-91                    2503   	sll	r1,	#02h
00:0B32 01-81                    2504   	add	r1,	r0
00:0B34 1A-91                    2505   	sll	r1,	#01h
00:0B36 11-91 00-00'             2506   	st	r1,	NEAR _Data4Str_temp
                                 2507   CBLOCKEND 140 78 657
                                 2508   
                                 2509   ;;								else {Data4Str_temp = (I2C_BUFF[chari-chark]-0x30);}
                                 2510   CLINEA 0000H 0001H 0292H 0009H 003CH
00:0B3A 0D CE                    2511   	bal	_$L281
00:0B3C                          2512   _$L279 :
                                 2513   CBLOCK 140 79 658
00:0B3C 10-90 00-00'             2514   	l	r0,	NEAR _chari
00:0B40 00 01                    2515   	mov	r1,	#00h
00:0B42 10-92 00-00'             2516   	l	r2,	NEAR _chark
00:0B46 00 03                    2517   	mov	r3,	#00h
00:0B48 28-80                    2518   	sub	r0,	r2
00:0B4A 39-81                    2519   	subc	r1,	r3
00:0B4C 08-90 00-00'             2520   	l	r0,	NEAR _I2C_BUFF[er0]
00:0B50 D0 10                    2521   	add	r0,	#0d0h
00:0B52 11-90 00-00'             2522   	st	r0,	NEAR _Data4Str_temp
                                 2523   CBLOCKEND 140 79 658
00:0B56                          2524   _$L281 :
                                 2525   
                                 2526   ;;								Data4Str += Data4Str_temp;
                                 2527   CLINEA 0000H 0001H 0293H 0009H 0022H
00:0B56 10-90 00-00'             2528   	l	r0,	NEAR _Data4Str
00:0B5A 10-91 00-00'             2529   	l	r1,	NEAR _Data4Str_temp
00:0B5E 11-80                    2530   	add	r0,	r1
00:0B60 11-90 00-00'             2531   	st	r0,	NEAR _Data4Str
                                 2532   CBLOCKEND 140 76 660
                                 2533   CBLOCKEND 140 77 860
                                 2534   
                                 2535   ;;							for(chark = charj; chark>0; chark--){
                                 2536   CLINEA 0000H 0000H 028FH 0024H 002AH
00:0B64 20-80                    2537   	mov	r0,	r2
00:0B66 FF 10                    2538   	add	r0,	#0ffh
                                 2539   
                                 2540   ;;							for(chark = charj; chark>0; chark--){
                                 2541   CLINEA 0000H 0000H 028FH 0001H 000BH
00:0B68                          2542   _$L447 :
00:0B68 11-90 00-00'             2543   	st	r0,	NEAR _chark
                                 2544   
                                 2545   ;;							for(chark = charj; chark>0; chark--){
                                 2546   CLINEA 0000H 0000H 028FH 001BH 0022H
00:0B6C 00 70                    2547   	cmp	r0,	#00h
00:0B6E 02 C3                    2548   	ble	_$M63
00:0B70 00-F0'00-00'             2549   	b	_$L272
00:0B74                          2550   _$M63 :
                                 2551   
                                 2552   ;;							chari++;
                                 2553   CLINEA 0000H 0000H 0295H 0008H 000FH
00:0B74 0C-F0 00-00'             2554   	lea	OFFSET _chari
00:0B78 2F-FE                    2555   	inc	[ea]
                                 2556   
                                 2557   ;;							charj = 0;
                                 2558   CLINEA 0000H 0001H 0296H 0008H 0011H
00:0B7A 00 00                    2559   	mov	r0,	#00h
                                 2560   
                                 2561   ;;							while(I2C_BUFF[chari]!=0x20){
                                 2562   CLINEA 0000H 0000H 0298H 0001H 000BH
00:0B7C 06 CE                    2563   	bal	_$L448
                                 2564   
                                 2565   ;;							while(I2C_BUFF[chari]!=0x20){
                                 2566   CLINEA 0000H 0000H 0298H 0008H 0024H
00:0B7E                          2567   _$L284 :
                                 2568   CBLOCK 140 80 664
                                 2569   
                                 2570   ;;								chari++;
                                 2571   CLINEA 0000H 0000H 0299H 0009H 0010H
00:0B7E 0C-F0 00-00'             2572   	lea	OFFSET _chari
00:0B82 2F-FE                    2573   	inc	[ea]
                                 2574   
                                 2575   ;;								charj++;
                                 2576   CLINEA 0000H 0000H 029AH 0009H 0010H
00:0B84 10-90 00-00'             2577   	l	r0,	NEAR _charj
00:0B88 01 10                    2578   	add	r0,	#01h
                                 2579   CBLOCKEND 140 80 667
                                 2580   
                                 2581   ;;							while(I2C_BUFF[chari]!=0x20){
                                 2582   CLINEA 0000H 0000H 0298H 0001H 000BH
00:0B8A                          2583   _$L448 :
00:0B8A 11-90 00-00'             2584   	st	r0,	NEAR _charj
                                 2585   
                                 2586   ;;							while(I2C_BUFF[chari]!=0x20){
                                 2587   CLINEA 0000H 0000H 0298H 001BH 0022H
00:0B8E 10-90 00-00'             2588   	l	r0,	NEAR _chari
00:0B92 00 01                    2589   	mov	r1,	#00h
00:0B94 08-90 00-00'             2590   	l	r0,	NEAR _I2C_BUFF[er0]
00:0B98 20 70                    2591   	cmp	r0,	#020h
00:0B9A F1 C8                    2592   	bne	_$L284
                                 2593   
                                 2594   ;;							for(chark = charj; chark>0; chark--){
                                 2595   CLINEA 0000H 0001H 029CH 000CH 0019H
00:0B9C 10-90 00-00'             2596   	l	r0,	NEAR _charj
                                 2597   
                                 2598   ;;							for(chark = charj; chark>0; chark--){
                                 2599   CLINEA 0000H 0000H 029CH 0001H 000BH
00:0BA0 40 CE                    2600   	bal	_$L449
                                 2601   
                                 2602   ;;							for(chark = charj; chark>0; chark--){
                                 2603   CLINEA 0000H 0000H 029CH 0024H 002AH
00:0BA2                          2604   _$L288 :
                                 2605   CBLOCK 140 81 668
                                 2606   
                                 2607   ;;								if(chark == 3){Data5Str_temp = (I2C_BUFF[chari-chark]-0x30)*100;}
                                 2608   CLINEA 0000H 0001H 029DH 0009H 0049H
00:0BA2 03 70                    2609   	cmp	r0,	#03h
00:0BA4 14 C8                    2610   	bne	_$L292
                                 2611   CBLOCK 140 82 669
00:0BA6 10-90 00-00'             2612   	l	r0,	NEAR _chari
00:0BAA 00 01                    2613   	mov	r1,	#00h
00:0BAC 10-92 00-00'             2614   	l	r2,	NEAR _chark
00:0BB0 00 03                    2615   	mov	r3,	#00h
00:0BB2 28-80                    2616   	sub	r0,	r2
00:0BB4 39-81                    2617   	subc	r1,	r3
00:0BB6 08-90 00-00'             2618   	l	r0,	NEAR _I2C_BUFF[er0]
00:0BBA D0 10                    2619   	add	r0,	#0d0h
00:0BBC 00-81                    2620   	mov	r1,	r0
00:0BBE 1A-91                    2621   	sll	r1,	#01h
00:0BC0 01-81                    2622   	add	r1,	r0
00:0BC2 3A-91                    2623   	sll	r1,	#03h
00:0BC4 01-81                    2624   	add	r1,	r0
00:0BC6 2A-91                    2625   	sll	r1,	#02h
00:0BC8 11-91 00-00'             2626   	st	r1,	NEAR _Data5Str_temp
                                 2627   
                                 2628   ;;								else if(chark == 2){Data5Str_temp = (I2C_BUFF[chari-chark]-0x30)*10;}
                                 2629   CLINEA 0000H 0001H 029EH 0009H 004DH
00:0BCC 21 CE                    2630   	bal	_$L297
00:0BCE                          2631   _$L292 :
00:0BCE 02 70                    2632   	cmp	r0,	#02h
00:0BD0 12 C8                    2633   	bne	_$L295
                                 2634   CBLOCK 140 83 670
00:0BD2 10-90 00-00'             2635   	l	r0,	NEAR _chari
00:0BD6 00 01                    2636   	mov	r1,	#00h
00:0BD8 10-92 00-00'             2637   	l	r2,	NEAR _chark
00:0BDC 00 03                    2638   	mov	r3,	#00h
00:0BDE 28-80                    2639   	sub	r0,	r2
00:0BE0 39-81                    2640   	subc	r1,	r3
00:0BE2 08-90 00-00'             2641   	l	r0,	NEAR _I2C_BUFF[er0]
00:0BE6 D0 10                    2642   	add	r0,	#0d0h
00:0BE8 00-81                    2643   	mov	r1,	r0
00:0BEA 2A-91                    2644   	sll	r1,	#02h
00:0BEC 01-81                    2645   	add	r1,	r0
00:0BEE 1A-91                    2646   	sll	r1,	#01h
00:0BF0 11-91 00-00'             2647   	st	r1,	NEAR _Data5Str_temp
                                 2648   CBLOCKEND 140 83 670
                                 2649   
                                 2650   ;;								else {Data5Str_temp = (I2C_BUFF[chari-chark]-0x30);}
                                 2651   CLINEA 0000H 0001H 029FH 0009H 003CH
00:0BF4 0D CE                    2652   	bal	_$L297
00:0BF6                          2653   _$L295 :
                                 2654   CBLOCK 140 84 671
00:0BF6 10-90 00-00'             2655   	l	r0,	NEAR _chari
00:0BFA 00 01                    2656   	mov	r1,	#00h
00:0BFC 10-92 00-00'             2657   	l	r2,	NEAR _chark
00:0C00 00 03                    2658   	mov	r3,	#00h
00:0C02 28-80                    2659   	sub	r0,	r2
00:0C04 39-81                    2660   	subc	r1,	r3
00:0C06 08-90 00-00'             2661   	l	r0,	NEAR _I2C_BUFF[er0]
00:0C0A D0 10                    2662   	add	r0,	#0d0h
00:0C0C 11-90 00-00'             2663   	st	r0,	NEAR _Data5Str_temp
                                 2664   CBLOCKEND 140 84 671
00:0C10                          2665   _$L297 :
                                 2666   
                                 2667   ;;								Data5Str += Data5Str_temp;
                                 2668   CLINEA 0000H 0001H 02A0H 0009H 0022H
00:0C10 10-90 00-00'             2669   	l	r0,	NEAR _Data5Str
00:0C14 10-91 00-00'             2670   	l	r1,	NEAR _Data5Str_temp
00:0C18 11-80                    2671   	add	r0,	r1
00:0C1A 11-90 00-00'             2672   	st	r0,	NEAR _Data5Str
                                 2673   CBLOCKEND 140 81 673
                                 2674   CBLOCKEND 140 82 860
                                 2675   
                                 2676   ;;							for(chark = charj; chark>0; chark--){
                                 2677   CLINEA 0000H 0000H 029CH 0024H 002AH
00:0C1E 20-80                    2678   	mov	r0,	r2
00:0C20 FF 10                    2679   	add	r0,	#0ffh
                                 2680   
                                 2681   ;;							for(chark = charj; chark>0; chark--){
                                 2682   CLINEA 0000H 0000H 029CH 0001H 000BH
00:0C22                          2683   _$L449 :
00:0C22 11-90 00-00'             2684   	st	r0,	NEAR _chark
                                 2685   
                                 2686   ;;							for(chark = charj; chark>0; chark--){
                                 2687   CLINEA 0000H 0000H 029CH 001BH 0022H
00:0C26 00 70                    2688   	cmp	r0,	#00h
00:0C28 02 C3                    2689   	ble	_$M64
00:0C2A 00-F0'00-00'             2690   	b	_$L288
00:0C2E                          2691   _$M64 :
                                 2692   
                                 2693   ;;							chari++;
                                 2694   CLINEA 0000H 0000H 02A2H 0008H 000FH
00:0C2E 0C-F0 00-00'             2695   	lea	OFFSET _chari
00:0C32 2F-FE                    2696   	inc	[ea]
                                 2697   
                                 2698   ;;							charj = 0;
                                 2699   CLINEA 0000H 0001H 02A3H 0008H 0011H
00:0C34 00 00                    2700   	mov	r0,	#00h
                                 2701   
                                 2702   ;;							while(I2C_BUFF[chari]!=0x20){
                                 2703   CLINEA 0000H 0000H 02A5H 0001H 000BH
00:0C36 06 CE                    2704   	bal	_$L450
                                 2705   
                                 2706   ;;							while(I2C_BUFF[chari]!=0x20){
                                 2707   CLINEA 0000H 0000H 02A5H 0008H 0024H
00:0C38                          2708   _$L300 :
                                 2709   CBLOCK 140 85 677
                                 2710   
                                 2711   ;;								chari++;
                                 2712   CLINEA 0000H 0000H 02A6H 0009H 0010H
00:0C38 0C-F0 00-00'             2713   	lea	OFFSET _chari
00:0C3C 2F-FE                    2714   	inc	[ea]
                                 2715   
                                 2716   ;;								charj++;
                                 2717   CLINEA 0000H 0000H 02A7H 0009H 0010H
00:0C3E 10-90 00-00'             2718   	l	r0,	NEAR _charj
00:0C42 01 10                    2719   	add	r0,	#01h
                                 2720   CBLOCKEND 140 85 680
                                 2721   
                                 2722   ;;							while(I2C_BUFF[chari]!=0x20){
                                 2723   CLINEA 0000H 0000H 02A5H 0001H 000BH
00:0C44                          2724   _$L450 :
00:0C44 11-90 00-00'             2725   	st	r0,	NEAR _charj
                                 2726   
                                 2727   ;;							while(I2C_BUFF[chari]!=0x20){
                                 2728   CLINEA 0000H 0000H 02A5H 001BH 0022H
00:0C48 10-90 00-00'             2729   	l	r0,	NEAR _chari
00:0C4C 00 01                    2730   	mov	r1,	#00h
00:0C4E 08-90 00-00'             2731   	l	r0,	NEAR _I2C_BUFF[er0]
00:0C52 20 70                    2732   	cmp	r0,	#020h
00:0C54 F1 C8                    2733   	bne	_$L300
                                 2734   
                                 2735   ;;							for(chark = charj; chark>0; chark--){
                                 2736   CLINEA 0000H 0001H 02A9H 000CH 0019H
00:0C56 10-90 00-00'             2737   	l	r0,	NEAR _charj
                                 2738   
                                 2739   ;;							for(chark = charj; chark>0; chark--){
                                 2740   CLINEA 0000H 0000H 02A9H 0001H 000BH
00:0C5A 40 CE                    2741   	bal	_$L451
                                 2742   
                                 2743   ;;							for(chark = charj; chark>0; chark--){
                                 2744   CLINEA 0000H 0000H 02A9H 0024H 002AH
00:0C5C                          2745   _$L304 :
                                 2746   CBLOCK 140 86 681
                                 2747   
                                 2748   ;;								if(chark == 3){Data6Str_temp = (I2C_BUFF[chari-chark]-0x30)*100;}
                                 2749   CLINEA 0000H 0001H 02AAH 0009H 0049H
00:0C5C 03 70                    2750   	cmp	r0,	#03h
00:0C5E 14 C8                    2751   	bne	_$L308
                                 2752   CBLOCK 140 87 682
00:0C60 10-90 00-00'             2753   	l	r0,	NEAR _chari
00:0C64 00 01                    2754   	mov	r1,	#00h
00:0C66 10-92 00-00'             2755   	l	r2,	NEAR _chark
00:0C6A 00 03                    2756   	mov	r3,	#00h
00:0C6C 28-80                    2757   	sub	r0,	r2
00:0C6E 39-81                    2758   	subc	r1,	r3
00:0C70 08-90 00-00'             2759   	l	r0,	NEAR _I2C_BUFF[er0]
00:0C74 D0 10                    2760   	add	r0,	#0d0h
00:0C76 00-81                    2761   	mov	r1,	r0
00:0C78 1A-91                    2762   	sll	r1,	#01h
00:0C7A 01-81                    2763   	add	r1,	r0
00:0C7C 3A-91                    2764   	sll	r1,	#03h
00:0C7E 01-81                    2765   	add	r1,	r0
00:0C80 2A-91                    2766   	sll	r1,	#02h
00:0C82 11-91 00-00'             2767   	st	r1,	NEAR _Data6Str_temp
                                 2768   
                                 2769   ;;								else if(chark == 2){Data6Str_temp = (I2C_BUFF[chari-chark]-0x30)*10;}
                                 2770   CLINEA 0000H 0001H 02ABH 0009H 004DH
00:0C86 21 CE                    2771   	bal	_$L313
00:0C88                          2772   _$L308 :
00:0C88 02 70                    2773   	cmp	r0,	#02h
00:0C8A 12 C8                    2774   	bne	_$L311
                                 2775   CBLOCK 140 88 683
00:0C8C 10-90 00-00'             2776   	l	r0,	NEAR _chari
00:0C90 00 01                    2777   	mov	r1,	#00h
00:0C92 10-92 00-00'             2778   	l	r2,	NEAR _chark
00:0C96 00 03                    2779   	mov	r3,	#00h
00:0C98 28-80                    2780   	sub	r0,	r2
00:0C9A 39-81                    2781   	subc	r1,	r3
00:0C9C 08-90 00-00'             2782   	l	r0,	NEAR _I2C_BUFF[er0]
00:0CA0 D0 10                    2783   	add	r0,	#0d0h
00:0CA2 00-81                    2784   	mov	r1,	r0
00:0CA4 2A-91                    2785   	sll	r1,	#02h
00:0CA6 01-81                    2786   	add	r1,	r0
00:0CA8 1A-91                    2787   	sll	r1,	#01h
00:0CAA 11-91 00-00'             2788   	st	r1,	NEAR _Data6Str_temp
                                 2789   CBLOCKEND 140 88 683
                                 2790   
                                 2791   ;;								else {Data6Str_temp = (I2C_BUFF[chari-chark]-0x30);}
                                 2792   CLINEA 0000H 0001H 02ACH 0009H 003CH
00:0CAE 0D CE                    2793   	bal	_$L313
00:0CB0                          2794   _$L311 :
                                 2795   CBLOCK 140 89 684
00:0CB0 10-90 00-00'             2796   	l	r0,	NEAR _chari
00:0CB4 00 01                    2797   	mov	r1,	#00h
00:0CB6 10-92 00-00'             2798   	l	r2,	NEAR _chark
00:0CBA 00 03                    2799   	mov	r3,	#00h
00:0CBC 28-80                    2800   	sub	r0,	r2
00:0CBE 39-81                    2801   	subc	r1,	r3
00:0CC0 08-90 00-00'             2802   	l	r0,	NEAR _I2C_BUFF[er0]
00:0CC4 D0 10                    2803   	add	r0,	#0d0h
00:0CC6 11-90 00-00'             2804   	st	r0,	NEAR _Data6Str_temp
                                 2805   CBLOCKEND 140 89 684
00:0CCA                          2806   _$L313 :
                                 2807   
                                 2808   ;;								Data6Str += Data6Str_temp;
                                 2809   CLINEA 0000H 0001H 02ADH 0009H 0022H
00:0CCA 10-90 00-00'             2810   	l	r0,	NEAR _Data6Str
00:0CCE 10-91 00-00'             2811   	l	r1,	NEAR _Data6Str_temp
00:0CD2 11-80                    2812   	add	r0,	r1
00:0CD4 11-90 00-00'             2813   	st	r0,	NEAR _Data6Str
                                 2814   CBLOCKEND 140 86 686
                                 2815   CBLOCKEND 140 87 860
                                 2816   
                                 2817   ;;							for(chark = charj; chark>0; chark--){
                                 2818   CLINEA 0000H 0000H 02A9H 0024H 002AH
00:0CD8 20-80                    2819   	mov	r0,	r2
00:0CDA FF 10                    2820   	add	r0,	#0ffh
                                 2821   
                                 2822   ;;							for(chark = charj; chark>0; chark--){
                                 2823   CLINEA 0000H 0000H 02A9H 0001H 000BH
00:0CDC                          2824   _$L451 :
00:0CDC 11-90 00-00'             2825   	st	r0,	NEAR _chark
                                 2826   
                                 2827   ;;							for(chark = charj; chark>0; chark--){
                                 2828   CLINEA 0000H 0000H 02A9H 001BH 0022H
00:0CE0 00 70                    2829   	cmp	r0,	#00h
00:0CE2 02 C3                    2830   	ble	_$M65
00:0CE4 00-F0'00-00'             2831   	b	_$L304
00:0CE8                          2832   _$M65 :
                                 2833   
                                 2834   ;;							chari++;
                                 2835   CLINEA 0000H 0000H 02AFH 0008H 000FH
00:0CE8 0C-F0 00-00'             2836   	lea	OFFSET _chari
00:0CEC 2F-FE                    2837   	inc	[ea]
                                 2838   
                                 2839   ;;							charj = 0;
                                 2840   CLINEA 0000H 0001H 02B0H 0008H 0011H
00:0CEE 00 00                    2841   	mov	r0,	#00h
                                 2842   
                                 2843   ;;							while(I2C_BUFF[chari]!=0x20){
                                 2844   CLINEA 0000H 0000H 02B2H 0001H 000BH
00:0CF0 06 CE                    2845   	bal	_$L452
                                 2846   
                                 2847   ;;							while(I2C_BUFF[chari]!=0x20){
                                 2848   CLINEA 0000H 0000H 02B2H 0008H 0024H
00:0CF2                          2849   _$L316 :
                                 2850   CBLOCK 140 90 690
                                 2851   
                                 2852   ;;								chari++;
                                 2853   CLINEA 0000H 0000H 02B3H 0009H 0010H
00:0CF2 0C-F0 00-00'             2854   	lea	OFFSET _chari
00:0CF6 2F-FE                    2855   	inc	[ea]
                                 2856   
                                 2857   ;;								charj++;
                                 2858   CLINEA 0000H 0000H 02B4H 0009H 0010H
00:0CF8 10-90 00-00'             2859   	l	r0,	NEAR _charj
00:0CFC 01 10                    2860   	add	r0,	#01h
                                 2861   CBLOCKEND 140 90 693
                                 2862   
                                 2863   ;;							while(I2C_BUFF[chari]!=0x20){
                                 2864   CLINEA 0000H 0000H 02B2H 0001H 000BH
00:0CFE                          2865   _$L452 :
00:0CFE 11-90 00-00'             2866   	st	r0,	NEAR _charj
                                 2867   
                                 2868   ;;							while(I2C_BUFF[chari]!=0x20){
                                 2869   CLINEA 0000H 0000H 02B2H 001BH 0022H
00:0D02 10-90 00-00'             2870   	l	r0,	NEAR _chari
00:0D06 00 01                    2871   	mov	r1,	#00h
00:0D08 08-90 00-00'             2872   	l	r0,	NEAR _I2C_BUFF[er0]
00:0D0C 20 70                    2873   	cmp	r0,	#020h
00:0D0E F1 C8                    2874   	bne	_$L316
                                 2875   
                                 2876   ;;							for(chark = charj; chark>0; chark--){
                                 2877   CLINEA 0000H 0001H 02B6H 000CH 0019H
00:0D10 10-90 00-00'             2878   	l	r0,	NEAR _charj
                                 2879   
                                 2880   ;;							for(chark = charj; chark>0; chark--){
                                 2881   CLINEA 0000H 0000H 02B6H 0001H 000BH
00:0D14 40 CE                    2882   	bal	_$L453
                                 2883   
                                 2884   ;;							for(chark = charj; chark>0; chark--){
                                 2885   CLINEA 0000H 0000H 02B6H 0024H 002AH
00:0D16                          2886   _$L320 :
                                 2887   CBLOCK 140 91 694
                                 2888   
                                 2889   ;;								if(chark == 3){Data7Str_temp = (I2C_BUFF[chari-chark]-0x30)*100;}
                                 2890   CLINEA 0000H 0001H 02B7H 0009H 0049H
00:0D16 03 70                    2891   	cmp	r0,	#03h
00:0D18 14 C8                    2892   	bne	_$L324
                                 2893   CBLOCK 140 92 695
00:0D1A 10-90 00-00'             2894   	l	r0,	NEAR _chari
00:0D1E 00 01                    2895   	mov	r1,	#00h
00:0D20 10-92 00-00'             2896   	l	r2,	NEAR _chark
00:0D24 00 03                    2897   	mov	r3,	#00h
00:0D26 28-80                    2898   	sub	r0,	r2
00:0D28 39-81                    2899   	subc	r1,	r3
00:0D2A 08-90 00-00'             2900   	l	r0,	NEAR _I2C_BUFF[er0]
00:0D2E D0 10                    2901   	add	r0,	#0d0h
00:0D30 00-81                    2902   	mov	r1,	r0
00:0D32 1A-91                    2903   	sll	r1,	#01h
00:0D34 01-81                    2904   	add	r1,	r0
00:0D36 3A-91                    2905   	sll	r1,	#03h
00:0D38 01-81                    2906   	add	r1,	r0
00:0D3A 2A-91                    2907   	sll	r1,	#02h
00:0D3C 11-91 00-00'             2908   	st	r1,	NEAR _Data7Str_temp
                                 2909   
                                 2910   ;;								else if(chark == 2){Data7Str_temp = (I2C_BUFF[chari-chark]-0x30)*10;}
                                 2911   CLINEA 0000H 0001H 02B8H 0009H 004DH
00:0D40 21 CE                    2912   	bal	_$L329
00:0D42                          2913   _$L324 :
00:0D42 02 70                    2914   	cmp	r0,	#02h
00:0D44 12 C8                    2915   	bne	_$L327
                                 2916   CBLOCK 140 93 696
00:0D46 10-90 00-00'             2917   	l	r0,	NEAR _chari
00:0D4A 00 01                    2918   	mov	r1,	#00h
00:0D4C 10-92 00-00'             2919   	l	r2,	NEAR _chark
00:0D50 00 03                    2920   	mov	r3,	#00h
00:0D52 28-80                    2921   	sub	r0,	r2
00:0D54 39-81                    2922   	subc	r1,	r3
00:0D56 08-90 00-00'             2923   	l	r0,	NEAR _I2C_BUFF[er0]
00:0D5A D0 10                    2924   	add	r0,	#0d0h
00:0D5C 00-81                    2925   	mov	r1,	r0
00:0D5E 2A-91                    2926   	sll	r1,	#02h
00:0D60 01-81                    2927   	add	r1,	r0
00:0D62 1A-91                    2928   	sll	r1,	#01h
00:0D64 11-91 00-00'             2929   	st	r1,	NEAR _Data7Str_temp
                                 2930   CBLOCKEND 140 93 696
                                 2931   
                                 2932   ;;								else {Data7Str_temp = (I2C_BUFF[chari-chark]-0x30);}
                                 2933   CLINEA 0000H 0001H 02B9H 0009H 003CH
00:0D68 0D CE                    2934   	bal	_$L329
00:0D6A                          2935   _$L327 :
                                 2936   CBLOCK 140 94 697
00:0D6A 10-90 00-00'             2937   	l	r0,	NEAR _chari
00:0D6E 00 01                    2938   	mov	r1,	#00h
00:0D70 10-92 00-00'             2939   	l	r2,	NEAR _chark
00:0D74 00 03                    2940   	mov	r3,	#00h
00:0D76 28-80                    2941   	sub	r0,	r2
00:0D78 39-81                    2942   	subc	r1,	r3
00:0D7A 08-90 00-00'             2943   	l	r0,	NEAR _I2C_BUFF[er0]
00:0D7E D0 10                    2944   	add	r0,	#0d0h
00:0D80 11-90 00-00'             2945   	st	r0,	NEAR _Data7Str_temp
                                 2946   CBLOCKEND 140 94 697
00:0D84                          2947   _$L329 :
                                 2948   
                                 2949   ;;								Data7Str += Data7Str_temp;
                                 2950   CLINEA 0000H 0001H 02BAH 0009H 0022H
00:0D84 10-90 00-00'             2951   	l	r0,	NEAR _Data7Str
00:0D88 10-91 00-00'             2952   	l	r1,	NEAR _Data7Str_temp
00:0D8C 11-80                    2953   	add	r0,	r1
00:0D8E 11-90 00-00'             2954   	st	r0,	NEAR _Data7Str
                                 2955   CBLOCKEND 140 91 699
                                 2956   CBLOCKEND 140 92 860
                                 2957   
                                 2958   ;;							for(chark = charj; chark>0; chark--){
                                 2959   CLINEA 0000H 0000H 02B6H 0024H 002AH
00:0D92 20-80                    2960   	mov	r0,	r2
00:0D94 FF 10                    2961   	add	r0,	#0ffh
                                 2962   
                                 2963   ;;							for(chark = charj; chark>0; chark--){
                                 2964   CLINEA 0000H 0000H 02B6H 0001H 000BH
00:0D96                          2965   _$L453 :
00:0D96 11-90 00-00'             2966   	st	r0,	NEAR _chark
                                 2967   
                                 2968   ;;							for(chark = charj; chark>0; chark--){
                                 2969   CLINEA 0000H 0000H 02B6H 001BH 0022H
00:0D9A 00 70                    2970   	cmp	r0,	#00h
00:0D9C 02 C3                    2971   	ble	_$M66
00:0D9E 00-F0'00-00'             2972   	b	_$L320
00:0DA2                          2973   _$M66 :
                                 2974   
                                 2975   ;;							chari++;
                                 2976   CLINEA 0000H 0000H 02BCH 0008H 000FH
00:0DA2 0C-F0 00-00'             2977   	lea	OFFSET _chari
00:0DA6 2F-FE                    2978   	inc	[ea]
                                 2979   
                                 2980   ;;							charj = 0;							
                                 2981   CLINEA 0000H 0001H 02BDH 0008H 0018H
00:0DA8 00 00                    2982   	mov	r0,	#00h
00:0DAA 11-90 00-00'             2983   	st	r0,	NEAR _charj
                                 2984   
                                 2985   ;;							I2CSendInfo[0] = Data0Str;
                                 2986   CLINEA 0000H 0001H 02C0H 0008H 0021H
00:0DAE 10-90 00-00'             2987   	l	r0,	NEAR _Data0Str
00:0DB2 11-90 00-00'             2988   	st	r0,	NEAR _I2CSendInfo
                                 2989   
                                 2990   ;;							I2CSendInfo[1] = Data1Str;
                                 2991   CLINEA 0000H 0001H 02C1H 0008H 0021H
00:0DB6 10-90 00-00'             2992   	l	r0,	NEAR _Data1Str
00:0DBA 11-90 00-00'             2993   	st	r0,	NEAR _I2CSendInfo+01h
                                 2994   
                                 2995   ;;							I2CSendInfo[2] = Data2Str;
                                 2996   CLINEA 0000H 0001H 02C2H 0008H 0021H
00:0DBE 10-90 00-00'             2997   	l	r0,	NEAR _Data2Str
00:0DC2 11-90 00-00'             2998   	st	r0,	NEAR _I2CSendInfo+02h
                                 2999   
                                 3000   ;;							I2CSendInfo[3] = Data3Str;
                                 3001   CLINEA 0000H 0001H 02C3H 0008H 0021H
00:0DC6 10-90 00-00'             3002   	l	r0,	NEAR _Data3Str
00:0DCA 11-90 00-00'             3003   	st	r0,	NEAR _I2CSendInfo+03h
                                 3004   
                                 3005   ;;							I2CSendInfo[4] = Data4Str;
                                 3006   CLINEA 0000H 0001H 02C4H 0008H 0021H
00:0DCE 10-90 00-00'             3007   	l	r0,	NEAR _Data4Str
00:0DD2 11-90 00-00'             3008   	st	r0,	NEAR _I2CSendInfo+04h
                                 3009   
                                 3010   ;;							I2CSendInfo[5] = Data5Str;
                                 3011   CLINEA 0000H 0001H 02C5H 0008H 0021H
00:0DD6 10-90 00-00'             3012   	l	r0,	NEAR _Data5Str
00:0DDA 11-90 00-00'             3013   	st	r0,	NEAR _I2CSendInfo+05h
                                 3014   
                                 3015   ;;							I2CSendInfo[6] = Data6Str;
                                 3016   CLINEA 0000H 0001H 02C6H 0008H 0021H
00:0DDE 10-90 00-00'             3017   	l	r0,	NEAR _Data6Str
00:0DE2 11-90 00-00'             3018   	st	r0,	NEAR _I2CSendInfo+06h
                                 3019   
                                 3020   ;;							I2CSendInfo[7] = Data7Str;
                                 3021   CLINEA 0000H 0001H 02C7H 0008H 0021H
00:0DE6 10-90 00-00'             3022   	l	r0,	NEAR _Data7Str
00:0DEA 11-90 00-00'             3023   	st	r0,	NEAR _I2CSendInfo+07h
                                 3024   
                                 3025   ;;							Data0Str = Data1Str = Data2Str = Data3Str = Data4Str = Data5Str = Data6Str = Data7Str = 0;
                                 3026   CLINEA 0000H 0001H 02CAH 0008H 0061H
00:0DEE 00 00                    3027   	mov	r0,	#00h
00:0DF0 11-90 00-00'             3028   	st	r0,	NEAR _Data7Str
00:0DF4 11-90 00-00'             3029   	st	r0,	NEAR _Data6Str
00:0DF8 11-90 00-00'             3030   	st	r0,	NEAR _Data5Str
00:0DFC 11-90 00-00'             3031   	st	r0,	NEAR _Data4Str
00:0E00 11-90 00-00'             3032   	st	r0,	NEAR _Data3Str
00:0E04 11-90 00-00'             3033   	st	r0,	NEAR _Data2Str
00:0E08 11-90 00-00'             3034   	st	r0,	NEAR _Data1Str
00:0E0C 11-90 00-00'             3035   	st	r0,	NEAR _Data0Str
                                 3036   
                                 3037   ;;							_flgI2CFin = 0;														//reset I2C completed flag
                                 3038   CLINEA 0000H 0001H 02CDH 0008H 003EH
00:0E10 11-90 00-00'             3039   	st	r0,	NEAR __flgI2CFin
                                 3040   
                                 3041   ;;							i2c_stop();															//Make sure I2C is not currently running
                                 3042   CLINEA 0000H 0001H 02CEH 0008H 0049H
00:0E14 01-F0'00-00'             3043   	bl	_i2c_stop
                                 3044   
                                 3045   ;;							i2c_startSend( I2CAdd, &I2CSendInfo, I2CNumBytes, &I2CSendInfo, 0, (cbfI2c)_funcI2CFin);		//Begin I2C Recieve Command
                                 3046   CLINEA 0000H 0001H 02CFH 0008H 007CH
00:0E18 00'00                    3047   	mov	r0,	#BYTE1 OFFSET __funcI2CFin
00:0E1A 00'01                    3048   	mov	r1,	#BYTE2 OFFSET __funcI2CFin
00:0E1C 5E-F0                    3049   	push	er0
00:0E1E 00 E0                    3050   	mov	er0,	#0 
00:0E20 5E-F0                    3051   	push	er0
00:0E22 00'00                    3052   	mov	r0,	#BYTE1 OFFSET _I2CSendInfo
00:0E24 00'01                    3053   	mov	r1,	#BYTE2 OFFSET _I2CSendInfo
00:0E26 5E-F0                    3054   	push	er0
00:0E28 10-90 00-00'             3055   	l	r0,	NEAR _I2CNumBytes
00:0E2C 00 01                    3056   	mov	r1,	#00h
00:0E2E 5E-F0                    3057   	push	er0
00:0E30 00'02                    3058   	mov	r2,	#BYTE1 OFFSET _I2CSendInfo
00:0E32 00'03                    3059   	mov	r3,	#BYTE2 OFFSET _I2CSendInfo
00:0E34 10-90 00-00'             3060   	l	r0,	NEAR _I2CAdd
00:0E38 01-F0'00-00'             3061   	bl	_i2c_startSend
00:0E3C 08 E1                    3062   	add	sp,	#8 
                                 3063   
                                 3064   ;;							while(_flgI2CFin != 1){												//Wait for I2C commands to finish transfer
                                 3065   CLINEA 0000H 0000H 02D0H 0001H 000BH
00:0E3E 04 CE                    3066   	bal	_$L454
                                 3067   
                                 3068   ;;							while(_flgI2CFin != 1){												//Wait for I2C commands to finish transfer
                                 3069   CLINEA 0000H 0000H 02D0H 0008H 0054H
00:0E40                          3070   _$L332 :
                                 3071   CBLOCK 140 95 720
                                 3072   
                                 3073   ;;								NOP1000();
                                 3074   CLINEA 0000H 0001H 02D1H 0009H 0012H
00:0E40 01-F0'00-00'             3075   	bl	_NOP1000
                                 3076   
                                 3077   ;;								main_clrWDT();
                                 3078   CLINEA 0000H 0001H 02D2H 0009H 0016H
00:0E44 01-F0'00-00'             3079   	bl	_main_clrWDT
                                 3080   CBLOCKEND 140 95 723
                                 3081   
                                 3082   ;;							while(_flgI2CFin != 1){												//Wait for I2C commands to finish transfer
                                 3083   CLINEA 0000H 0000H 02D0H 0001H 000BH
00:0E48                          3084   _$L454 :
                                 3085   
                                 3086   ;;							while(_flgI2CFin != 1){												//Wait for I2C commands to finish transfer
                                 3087   CLINEA 0000H 0000H 02D0H 001BH 0022H
00:0E48 10-90 00-00'             3088   	l	r0,	NEAR __flgI2CFin
00:0E4C 01 70                    3089   	cmp	r0,	#01h
00:0E4E F8 C8                    3090   	bne	_$L332
                                 3091   
                                 3092   ;;							I2CAdd = 0;
                                 3093   CLINEA 0000H 0001H 02D6H 0008H 0012H
00:0E50 00 00                    3094   	mov	r0,	#00h
00:0E52 11-90 00-00'             3095   	st	r0,	NEAR _I2CAdd
                                 3096   
                                 3097   ;;							I2CNumBytes = 0;
                                 3098   CLINEA 0000H 0001H 02D7H 0008H 0017H
00:0E56 11-90 00-00'             3099   	st	r0,	NEAR _I2CNumBytes
                                 3100   
                                 3101   ;;							chari = 0;
                                 3102   CLINEA 0000H 0001H 02D8H 0008H 0011H
00:0E5A 11-90 00-00'             3103   	st	r0,	NEAR _chari
                                 3104   
                                 3105   ;;							for(chari = 0; chari < 8; chari++){
                                 3106   CLINEA 0000H 0000H 02D9H 0008H 002AH
00:0E5E                          3107   _$L336 :
                                 3108   CBLOCK 140 96 729
                                 3109   
                                 3110   ;;								I2CSendInfo[chari] = 0;
                                 3111   CLINEA 0000H 0001H 02DAH 0009H 001FH
00:0E5E 00 01                    3112   	mov	r1,	#00h
00:0E60 00 02                    3113   	mov	r2,	#00h
00:0E62 09-92 00-00'             3114   	st	r2,	NEAR _I2CSendInfo[er0]
                                 3115   CBLOCKEND 140 96 731
                                 3116   
                                 3117   ;;							for(chari = 0; chari < 8; chari++){
                                 3118   CLINEA 0000H 0000H 02D9H 0008H 002AH
00:0E66 0C-F0 00-00'             3119   	lea	OFFSET _chari
00:0E6A 2F-FE                    3120   	inc	[ea]
00:0E6C 10-90 00-00'             3121   	l	r0,	NEAR _chari
                                 3122   
                                 3123   ;;							for(chari = 0; chari < 8; chari++){
                                 3124   CLINEA 0000H 0000H 02D9H 001BH 0022H
00:0E70 08 70                    3125   	cmp	r0,	#08h
00:0E72 F5 C1                    3126   	blt	_$L336
                                 3127   
                                 3128   ;;							_flgUartFin = 0;
                                 3129   CLINEA 0000H 0001H 02DEH 0008H 0017H
00:0E74 00 00                    3130   	mov	r0,	#00h
00:0E76 11-90 00-00'             3131   	st	r0,	NEAR __flgUartFin
                                 3132   
                                 3133   ;;							uart_stop();
                                 3134   CLINEA 0000H 0001H 02DFH 0008H 0013H
00:0E7A 01-F0'00-00'             3135   	bl	_uart_stop
                                 3136   
                                 3137   ;;							uart_startSend(I2C_TX_REC, 21, _funcUartFin);
                                 3138   CLINEA 0000H 0001H 02E0H 0008H 0034H
00:0E7E 00'00                    3139   	mov	r0,	#BYTE1 OFFSET __funcUartFin
00:0E80 00'01                    3140   	mov	r1,	#BYTE2 OFFSET __funcUartFin
00:0E82 5E-F0                    3141   	push	er0
00:0E84 15 E2                    3142   	mov	er2,	#21
00:0E86 00'00                    3143   	mov	r0,	#BYTE1 OFFSET _I2C_TX_REC
00:0E88 00'01                    3144   	mov	r1,	#BYTE2 OFFSET _I2C_TX_REC
00:0E8A 01-F0'00-00'             3145   	bl	_uart_startSend
00:0E8E 02 E1                    3146   	add	sp,	#2 
                                 3147   
                                 3148   ;;							while(_flgUartFin != 1){
                                 3149   CLINEA 0000H 0000H 02E1H 0001H 000BH
00:0E90 04 CE                    3150   	bal	_$L455
                                 3151   
                                 3152   ;;							while(_flgUartFin != 1){
                                 3153   CLINEA 0000H 0000H 02E1H 0008H 001FH
00:0E92                          3154   _$L342 :
                                 3155   CBLOCK 140 97 737
                                 3156   
                                 3157   ;;								NOP1000();
                                 3158   CLINEA 0000H 0001H 02E2H 0009H 0012H
00:0E92 01-F0'00-00'             3159   	bl	_NOP1000
                                 3160   
                                 3161   ;;								main_clrWDT();
                                 3162   CLINEA 0000H 0001H 02E3H 0009H 0016H
00:0E96 01-F0'00-00'             3163   	bl	_main_clrWDT
                                 3164   CBLOCKEND 140 97 740
                                 3165   
                                 3166   ;;							while(_flgUartFin != 1){
                                 3167   CLINEA 0000H 0000H 02E1H 0001H 000BH
00:0E9A                          3168   _$L455 :
                                 3169   
                                 3170   ;;							while(_flgUartFin != 1){
                                 3171   CLINEA 0000H 0000H 02E1H 001BH 0022H
00:0E9A 10-90 00-00'             3172   	l	r0,	NEAR __flgUartFin
00:0E9E 01 70                    3173   	cmp	r0,	#01h
00:0EA0 F8 C8                    3174   	bne	_$L342
                                 3175   
                                 3176   ;;							}
                                 3177   CLINEA 0000H 0000H 02E4H 0008H 0008H
00:0EA2                          3178   _$L341 :
                                 3179   CBLOCKEND 140 43 741
                                 3180   CBLOCKEND 140 42 742
                                 3181   CBLOCKEND 140 41 743
                                 3182   CBLOCKEND 140 40 744
                                 3183   CBLOCKEND 140 39 745
                                 3184   
                                 3185   ;;		if(RecWorld[0] == 0x49){			//if RECWORLD == "I2CRX"
                                 3186   CLINEA 0000H 0001H 02EDH 0003H 0035H
00:0EA2 10-90 00-00'             3187   	l	r0,	NEAR _RecWorld
00:0EA6 49 70                    3188   	cmp	r0,	#049h
00:0EA8 02 C9                    3189   	beq	_$M67
00:0EAA 00-F0'00-00'             3190   	b	_$L12
00:0EAE                          3191   _$M67 :
                                 3192   CBLOCK 140 98 749
                                 3193   
                                 3194   ;;			if(RecWorld[1] == 0x32){
                                 3195   CLINEA 0000H 0001H 02EEH 0004H 001BH
00:0EAE 10-90 00-00'             3196   	l	r0,	NEAR _RecWorld+01h
00:0EB2 32 70                    3197   	cmp	r0,	#032h
00:0EB4 02 C9                    3198   	beq	_$M68
00:0EB6 00-F0'00-00'             3199   	b	_$L12
00:0EBA                          3200   _$M68 :
                                 3201   CBLOCK 140 99 750
                                 3202   
                                 3203   ;;				if(RecWorld[2] == 0x43){
                                 3204   CLINEA 0000H 0001H 02EFH 0005H 001CH
00:0EBA 10-90 00-00'             3205   	l	r0,	NEAR _RecWorld+02h
00:0EBE 43 70                    3206   	cmp	r0,	#043h
00:0EC0 02 C9                    3207   	beq	_$M69
00:0EC2 00-F0'00-00'             3208   	b	_$L12
00:0EC6                          3209   _$M69 :
                                 3210   CBLOCK 140 100 751
                                 3211   
                                 3212   ;;					if(RecWorld[3] == 0x52){
                                 3213   CLINEA 0000H 0001H 02F0H 0006H 001DH
00:0EC6 10-90 00-00'             3214   	l	r0,	NEAR _RecWorld+03h
00:0ECA 52 70                    3215   	cmp	r0,	#052h
00:0ECC 02 C9                    3216   	beq	_$M70
00:0ECE 00-F0'00-00'             3217   	b	_$L12
00:0ED2                          3218   _$M70 :
                                 3219   CBLOCK 140 101 752
                                 3220   
                                 3221   ;;						if(RecWorld[4] == 0x58){
                                 3222   CLINEA 0000H 0001H 02F1H 0007H 001EH
00:0ED2 10-90 00-00'             3223   	l	r0,	NEAR _RecWorld+04h
00:0ED6 58 70                    3224   	cmp	r0,	#058h
00:0ED8 02 C9                    3225   	beq	_$M71
00:0EDA 00-F0'00-00'             3226   	b	_$L12
00:0EDE                          3227   _$M71 :
                                 3228   CBLOCK 140 102 753
                                 3229   
                                 3230   ;;							_flgUartFin = 0;
                                 3231   CLINEA 0000H 0001H 02F4H 0008H 0017H
00:0EDE 00 00                    3232   	mov	r0,	#00h
00:0EE0 11-90 00-00'             3233   	st	r0,	NEAR __flgUartFin
                                 3234   
                                 3235   ;;							uart_stop();
                                 3236   CLINEA 0000H 0001H 02F5H 0008H 0013H
00:0EE4 01-F0'00-00'             3237   	bl	_uart_stop
                                 3238   
                                 3239   ;;							uart_startReceive(I2C_BUFF, 46, _funcUartFin);
                                 3240   CLINEA 0000H 0001H 02F6H 0008H 0035H
00:0EE8 00'00                    3241   	mov	r0,	#BYTE1 OFFSET __funcUartFin
00:0EEA 00'01                    3242   	mov	r1,	#BYTE2 OFFSET __funcUartFin
00:0EEC 5E-F0                    3243   	push	er0
00:0EEE 2E E2                    3244   	mov	er2,	#46
00:0EF0 00'00                    3245   	mov	r0,	#BYTE1 OFFSET _I2C_BUFF
00:0EF2 00'01                    3246   	mov	r1,	#BYTE2 OFFSET _I2C_BUFF
00:0EF4 01-F0'00-00'             3247   	bl	_uart_startReceive
00:0EF8 02 E1                    3248   	add	sp,	#2 
                                 3249   
                                 3250   ;;							while(_flgUartFin != 1){
                                 3251   CLINEA 0000H 0000H 02F7H 0001H 000BH
00:0EFA 04 CE                    3252   	bal	_$L456
                                 3253   
                                 3254   ;;							while(_flgUartFin != 1){
                                 3255   CLINEA 0000H 0000H 02F7H 0008H 001FH
00:0EFC                          3256   _$L356 :
                                 3257   CBLOCK 140 103 759
                                 3258   
                                 3259   ;;								NOP1000();
                                 3260   CLINEA 0000H 0001H 02F8H 0009H 0012H
00:0EFC 01-F0'00-00'             3261   	bl	_NOP1000
                                 3262   
                                 3263   ;;								main_clrWDT();
                                 3264   CLINEA 0000H 0001H 02F9H 0009H 0016H
00:0F00 01-F0'00-00'             3265   	bl	_main_clrWDT
                                 3266   CBLOCKEND 140 103 762
                                 3267   
                                 3268   ;;							while(_flgUartFin != 1){
                                 3269   CLINEA 0000H 0000H 02F7H 0001H 000BH
00:0F04                          3270   _$L456 :
                                 3271   
                                 3272   ;;							while(_flgUartFin != 1){
                                 3273   CLINEA 0000H 0000H 02F7H 001BH 0022H
00:0F04 10-90 00-00'             3274   	l	r0,	NEAR __flgUartFin
00:0F08 01 70                    3275   	cmp	r0,	#01h
00:0F0A F8 C8                    3276   	bne	_$L356
                                 3277   
                                 3278   ;;							chari = 2;
                                 3279   CLINEA 0000H 0001H 02FDH 0008H 0011H
00:0F0C 02 00                    3280   	mov	r0,	#02h
00:0F0E 11-90 00-00'             3281   	st	r0,	NEAR _chari
                                 3282   
                                 3283   ;;							charj = 0;
                                 3284   CLINEA 0000H 0001H 02FEH 0008H 0011H
00:0F12 00 00                    3285   	mov	r0,	#00h
00:0F14 11-90 00-00'             3286   	st	r0,	NEAR _charj
                                 3287   
                                 3288   ;;							while(I2C_BUFF[chari]!=0x20){
                                 3289   CLINEA 0000H 0001H 0300H 0008H 0024H
00:0F18 10-90 00-00'             3290   	l	r0,	NEAR _I2C_BUFF+02h
00:0F1C 20 70                    3291   	cmp	r0,	#020h
00:0F1E 0D C9                    3292   	beq	_$L359
00:0F20                          3293   _$L360 :
                                 3294   CBLOCK 140 104 768
                                 3295   
                                 3296   ;;								chari++;
                                 3297   CLINEA 0000H 0000H 0301H 0009H 0010H
00:0F20 0C-F0 00-00'             3298   	lea	OFFSET _chari
00:0F24 2F-FE                    3299   	inc	[ea]
                                 3300   
                                 3301   ;;								charj++;
                                 3302   CLINEA 0000H 0000H 0302H 0009H 0010H
00:0F26 0C-F0 00-00'             3303   	lea	OFFSET _charj
00:0F2A 2F-FE                    3304   	inc	[ea]
                                 3305   CBLOCKEND 140 104 771
                                 3306   
                                 3307   ;;							while(I2C_BUFF[chari]!=0x20){
                                 3308   CLINEA 0000H 0000H 0300H 001BH 0022H
00:0F2C 10-90 00-00'             3309   	l	r0,	NEAR _chari
00:0F30 00 01                    3310   	mov	r1,	#00h
00:0F32 08-90 00-00'             3311   	l	r0,	NEAR _I2C_BUFF[er0]
00:0F36 20 70                    3312   	cmp	r0,	#020h
00:0F38 F3 C8                    3313   	bne	_$L360
                                 3314   
                                 3315   ;;							}
                                 3316   CLINEA 0000H 0000H 0303H 0008H 0008H
00:0F3A                          3317   _$L359 :
                                 3318   
                                 3319   ;;							for(chark = charj; chark>0; chark--){
                                 3320   CLINEA 0000H 0001H 0304H 000CH 0019H
00:0F3A 10-90 00-00'             3321   	l	r0,	NEAR _charj
                                 3322   
                                 3323   ;;							for(chark = charj; chark>0; chark--){
                                 3324   CLINEA 0000H 0000H 0304H 0001H 000BH
00:0F3E 40 CE                    3325   	bal	_$L457
                                 3326   
                                 3327   ;;							for(chark = charj; chark>0; chark--){
                                 3328   CLINEA 0000H 0000H 0304H 0024H 002AH
00:0F40                          3329   _$L364 :
                                 3330   CBLOCK 140 105 772
                                 3331   
                                 3332   ;;								if(chark == 3){I2CAdd_temp = (I2C_BUFF[chari-chark]-0x30)*100;}
                                 3333   CLINEA 0000H 0001H 0305H 0009H 0047H
00:0F40 03 70                    3334   	cmp	r0,	#03h
00:0F42 14 C8                    3335   	bne	_$L368
                                 3336   CBLOCK 140 106 773
00:0F44 10-90 00-00'             3337   	l	r0,	NEAR _chari
00:0F48 00 01                    3338   	mov	r1,	#00h
00:0F4A 10-92 00-00'             3339   	l	r2,	NEAR _chark
00:0F4E 00 03                    3340   	mov	r3,	#00h
00:0F50 28-80                    3341   	sub	r0,	r2
00:0F52 39-81                    3342   	subc	r1,	r3
00:0F54 08-90 00-00'             3343   	l	r0,	NEAR _I2C_BUFF[er0]
00:0F58 D0 10                    3344   	add	r0,	#0d0h
00:0F5A 00-81                    3345   	mov	r1,	r0
00:0F5C 1A-91                    3346   	sll	r1,	#01h
00:0F5E 01-81                    3347   	add	r1,	r0
00:0F60 3A-91                    3348   	sll	r1,	#03h
00:0F62 01-81                    3349   	add	r1,	r0
00:0F64 2A-91                    3350   	sll	r1,	#02h
00:0F66 11-91 00-00'             3351   	st	r1,	NEAR _I2CAdd_temp
                                 3352   
                                 3353   ;;								else if(chark == 2){I2CAdd_temp = (I2C_BUFF[chari-chark]-0x30)*10;}
                                 3354   CLINEA 0000H 0001H 0306H 0009H 004BH
00:0F6A 21 CE                    3355   	bal	_$L373
00:0F6C                          3356   _$L368 :
00:0F6C 02 70                    3357   	cmp	r0,	#02h
00:0F6E 12 C8                    3358   	bne	_$L371
                                 3359   CBLOCK 140 107 774
00:0F70 10-90 00-00'             3360   	l	r0,	NEAR _chari
00:0F74 00 01                    3361   	mov	r1,	#00h
00:0F76 10-92 00-00'             3362   	l	r2,	NEAR _chark
00:0F7A 00 03                    3363   	mov	r3,	#00h
00:0F7C 28-80                    3364   	sub	r0,	r2
00:0F7E 39-81                    3365   	subc	r1,	r3
00:0F80 08-90 00-00'             3366   	l	r0,	NEAR _I2C_BUFF[er0]
00:0F84 D0 10                    3367   	add	r0,	#0d0h
00:0F86 00-81                    3368   	mov	r1,	r0
00:0F88 2A-91                    3369   	sll	r1,	#02h
00:0F8A 01-81                    3370   	add	r1,	r0
00:0F8C 1A-91                    3371   	sll	r1,	#01h
00:0F8E 11-91 00-00'             3372   	st	r1,	NEAR _I2CAdd_temp
                                 3373   CBLOCKEND 140 107 774
                                 3374   
                                 3375   ;;								else {I2CAdd_temp = (I2C_BUFF[chari-chark]-0x30);}
                                 3376   CLINEA 0000H 0001H 0307H 0009H 003AH
00:0F92 0D CE                    3377   	bal	_$L373
00:0F94                          3378   _$L371 :
                                 3379   CBLOCK 140 108 775
00:0F94 10-90 00-00'             3380   	l	r0,	NEAR _chari
00:0F98 00 01                    3381   	mov	r1,	#00h
00:0F9A 10-92 00-00'             3382   	l	r2,	NEAR _chark
00:0F9E 00 03                    3383   	mov	r3,	#00h
00:0FA0 28-80                    3384   	sub	r0,	r2
00:0FA2 39-81                    3385   	subc	r1,	r3
00:0FA4 08-90 00-00'             3386   	l	r0,	NEAR _I2C_BUFF[er0]
00:0FA8 D0 10                    3387   	add	r0,	#0d0h
00:0FAA 11-90 00-00'             3388   	st	r0,	NEAR _I2CAdd_temp
                                 3389   CBLOCKEND 140 108 775
00:0FAE                          3390   _$L373 :
                                 3391   
                                 3392   ;;								I2CAdd += I2CAdd_temp;
                                 3393   CLINEA 0000H 0001H 0308H 0009H 001EH
00:0FAE 10-90 00-00'             3394   	l	r0,	NEAR _I2CAdd
00:0FB2 10-91 00-00'             3395   	l	r1,	NEAR _I2CAdd_temp
00:0FB6 11-80                    3396   	add	r0,	r1
00:0FB8 11-90 00-00'             3397   	st	r0,	NEAR _I2CAdd
                                 3398   CBLOCKEND 140 105 777
                                 3399   CBLOCKEND 140 106 860
                                 3400   
                                 3401   ;;							for(chark = charj; chark>0; chark--){
                                 3402   CLINEA 0000H 0000H 0304H 0024H 002AH
00:0FBC 20-80                    3403   	mov	r0,	r2
00:0FBE FF 10                    3404   	add	r0,	#0ffh
                                 3405   
                                 3406   ;;							for(chark = charj; chark>0; chark--){
                                 3407   CLINEA 0000H 0000H 0304H 0001H 000BH
00:0FC0                          3408   _$L457 :
00:0FC0 11-90 00-00'             3409   	st	r0,	NEAR _chark
                                 3410   
                                 3411   ;;							for(chark = charj; chark>0; chark--){
                                 3412   CLINEA 0000H 0000H 0304H 001BH 0022H
00:0FC4 00 70                    3413   	cmp	r0,	#00h
00:0FC6 02 C3                    3414   	ble	_$M72
00:0FC8 00-F0'00-00'             3415   	b	_$L364
00:0FCC                          3416   _$M72 :
                                 3417   
                                 3418   ;;							chari++;
                                 3419   CLINEA 0000H 0000H 030AH 0008H 000FH
00:0FCC 0C-F0 00-00'             3420   	lea	OFFSET _chari
00:0FD0 2F-FE                    3421   	inc	[ea]
                                 3422   
                                 3423   ;;							charj = 0;
                                 3424   CLINEA 0000H 0001H 030BH 0008H 0011H
00:0FD2 00 00                    3425   	mov	r0,	#00h
                                 3426   
                                 3427   ;;							while(I2C_BUFF[chari]!=0x20){
                                 3428   CLINEA 0000H 0000H 030CH 0001H 000BH
00:0FD4 06 CE                    3429   	bal	_$L458
                                 3430   
                                 3431   ;;							while(I2C_BUFF[chari]!=0x20){
                                 3432   CLINEA 0000H 0000H 030CH 0008H 0024H
00:0FD6                          3433   _$L376 :
                                 3434   CBLOCK 140 109 780
                                 3435   
                                 3436   ;;								chari++;
                                 3437   CLINEA 0000H 0000H 030DH 0009H 0010H
00:0FD6 0C-F0 00-00'             3438   	lea	OFFSET _chari
00:0FDA 2F-FE                    3439   	inc	[ea]
                                 3440   
                                 3441   ;;								charj++;
                                 3442   CLINEA 0000H 0000H 030EH 0009H 0010H
00:0FDC 10-90 00-00'             3443   	l	r0,	NEAR _charj
00:0FE0 01 10                    3444   	add	r0,	#01h
                                 3445   CBLOCKEND 140 109 783
                                 3446   
                                 3447   ;;							while(I2C_BUFF[chari]!=0x20){
                                 3448   CLINEA 0000H 0000H 030CH 0001H 000BH
00:0FE2                          3449   _$L458 :
00:0FE2 11-90 00-00'             3450   	st	r0,	NEAR _charj
                                 3451   
                                 3452   ;;							while(I2C_BUFF[chari]!=0x20){
                                 3453   CLINEA 0000H 0000H 030CH 001BH 0022H
00:0FE6 10-90 00-00'             3454   	l	r0,	NEAR _chari
00:0FEA 00 01                    3455   	mov	r1,	#00h
00:0FEC 08-90 00-00'             3456   	l	r0,	NEAR _I2C_BUFF[er0]
00:0FF0 20 70                    3457   	cmp	r0,	#020h
00:0FF2 F1 C8                    3458   	bne	_$L376
                                 3459   
                                 3460   ;;							for(chark = charj; chark>0; chark--){
                                 3461   CLINEA 0000H 0001H 0310H 000CH 0019H
00:0FF4 10-90 00-00'             3462   	l	r0,	NEAR _charj
                                 3463   
                                 3464   ;;							for(chark = charj; chark>0; chark--){
                                 3465   CLINEA 0000H 0000H 0310H 0001H 000BH
00:0FF8 40 CE                    3466   	bal	_$L459
                                 3467   
                                 3468   ;;							for(chark = charj; chark>0; chark--){
                                 3469   CLINEA 0000H 0000H 0310H 0024H 002AH
00:0FFA                          3470   _$L380 :
                                 3471   CBLOCK 140 110 784
                                 3472   
                                 3473   ;;								if(chark == 3){I2CNumBytes_temp = (I2C_BUFF[chari-chark]-0x30)*100;}
                                 3474   CLINEA 0000H 0001H 0311H 0009H 004CH
00:0FFA 03 70                    3475   	cmp	r0,	#03h
00:0FFC 14 C8                    3476   	bne	_$L384
                                 3477   CBLOCK 140 111 785
00:0FFE 10-90 00-00'             3478   	l	r0,	NEAR _chari
00:1002 00 01                    3479   	mov	r1,	#00h
00:1004 10-92 00-00'             3480   	l	r2,	NEAR _chark
00:1008 00 03                    3481   	mov	r3,	#00h
00:100A 28-80                    3482   	sub	r0,	r2
00:100C 39-81                    3483   	subc	r1,	r3
00:100E 08-90 00-00'             3484   	l	r0,	NEAR _I2C_BUFF[er0]
00:1012 D0 10                    3485   	add	r0,	#0d0h
00:1014 00-81                    3486   	mov	r1,	r0
00:1016 1A-91                    3487   	sll	r1,	#01h
00:1018 01-81                    3488   	add	r1,	r0
00:101A 3A-91                    3489   	sll	r1,	#03h
00:101C 01-81                    3490   	add	r1,	r0
00:101E 2A-91                    3491   	sll	r1,	#02h
00:1020 11-91 00-00'             3492   	st	r1,	NEAR _I2CNumBytes_temp
                                 3493   
                                 3494   ;;								else if(chark == 2){I2CNumBytes_temp = (I2C_BUFF[chari-chark]-0x30)*10;}
                                 3495   CLINEA 0000H 0001H 0312H 0009H 0050H
00:1024 21 CE                    3496   	bal	_$L389
00:1026                          3497   _$L384 :
00:1026 02 70                    3498   	cmp	r0,	#02h
00:1028 12 C8                    3499   	bne	_$L387
                                 3500   CBLOCK 140 112 786
00:102A 10-90 00-00'             3501   	l	r0,	NEAR _chari
00:102E 00 01                    3502   	mov	r1,	#00h
00:1030 10-92 00-00'             3503   	l	r2,	NEAR _chark
00:1034 00 03                    3504   	mov	r3,	#00h
00:1036 28-80                    3505   	sub	r0,	r2
00:1038 39-81                    3506   	subc	r1,	r3
00:103A 08-90 00-00'             3507   	l	r0,	NEAR _I2C_BUFF[er0]
00:103E D0 10                    3508   	add	r0,	#0d0h
00:1040 00-81                    3509   	mov	r1,	r0
00:1042 2A-91                    3510   	sll	r1,	#02h
00:1044 01-81                    3511   	add	r1,	r0
00:1046 1A-91                    3512   	sll	r1,	#01h
00:1048 11-91 00-00'             3513   	st	r1,	NEAR _I2CNumBytes_temp
                                 3514   CBLOCKEND 140 112 786
                                 3515   
                                 3516   ;;								else {I2CNumBytes_temp = (I2C_BUFF[chari-chark]-0x30);}
                                 3517   CLINEA 0000H 0001H 0313H 0009H 003FH
00:104C 0D CE                    3518   	bal	_$L389
00:104E                          3519   _$L387 :
                                 3520   CBLOCK 140 113 787
00:104E 10-90 00-00'             3521   	l	r0,	NEAR _chari
00:1052 00 01                    3522   	mov	r1,	#00h
00:1054 10-92 00-00'             3523   	l	r2,	NEAR _chark
00:1058 00 03                    3524   	mov	r3,	#00h
00:105A 28-80                    3525   	sub	r0,	r2
00:105C 39-81                    3526   	subc	r1,	r3
00:105E 08-90 00-00'             3527   	l	r0,	NEAR _I2C_BUFF[er0]
00:1062 D0 10                    3528   	add	r0,	#0d0h
00:1064 11-90 00-00'             3529   	st	r0,	NEAR _I2CNumBytes_temp
                                 3530   CBLOCKEND 140 113 787
00:1068                          3531   _$L389 :
                                 3532   
                                 3533   ;;								I2CNumBytes += I2CNumBytes_temp;
                                 3534   CLINEA 0000H 0001H 0314H 0009H 0028H
00:1068 10-90 00-00'             3535   	l	r0,	NEAR _I2CNumBytes
00:106C 10-91 00-00'             3536   	l	r1,	NEAR _I2CNumBytes_temp
00:1070 11-80                    3537   	add	r0,	r1
00:1072 11-90 00-00'             3538   	st	r0,	NEAR _I2CNumBytes
                                 3539   CBLOCKEND 140 110 789
                                 3540   CBLOCKEND 140 111 860
                                 3541   
                                 3542   ;;							for(chark = charj; chark>0; chark--){
                                 3543   CLINEA 0000H 0000H 0310H 0024H 002AH
00:1076 20-80                    3544   	mov	r0,	r2
00:1078 FF 10                    3545   	add	r0,	#0ffh
                                 3546   
                                 3547   ;;							for(chark = charj; chark>0; chark--){
                                 3548   CLINEA 0000H 0000H 0310H 0001H 000BH
00:107A                          3549   _$L459 :
00:107A 11-90 00-00'             3550   	st	r0,	NEAR _chark
                                 3551   
                                 3552   ;;							for(chark = charj; chark>0; chark--){
                                 3553   CLINEA 0000H 0000H 0310H 001BH 0022H
00:107E 00 70                    3554   	cmp	r0,	#00h
00:1080 02 C3                    3555   	ble	_$M73
00:1082 00-F0'00-00'             3556   	b	_$L380
00:1086                          3557   _$M73 :
                                 3558   
                                 3559   ;;							chari++;
                                 3560   CLINEA 0000H 0000H 0316H 0008H 000FH
00:1086 0C-F0 00-00'             3561   	lea	OFFSET _chari
00:108A 2F-FE                    3562   	inc	[ea]
                                 3563   
                                 3564   ;;							charj = 0;
                                 3565   CLINEA 0000H 0001H 0317H 0008H 0011H
00:108C 00 00                    3566   	mov	r0,	#00h
                                 3567   
                                 3568   ;;							while(I2C_BUFF[chari]!=0x20){
                                 3569   CLINEA 0000H 0000H 0319H 0001H 000BH
00:108E 06 CE                    3570   	bal	_$L460
                                 3571   
                                 3572   ;;							while(I2C_BUFF[chari]!=0x20){
                                 3573   CLINEA 0000H 0000H 0319H 0008H 0024H
00:1090                          3574   _$L392 :
                                 3575   CBLOCK 140 114 793
                                 3576   
                                 3577   ;;								chari++;
                                 3578   CLINEA 0000H 0000H 031AH 0009H 0010H
00:1090 0C-F0 00-00'             3579   	lea	OFFSET _chari
00:1094 2F-FE                    3580   	inc	[ea]
                                 3581   
                                 3582   ;;								charj++;
                                 3583   CLINEA 0000H 0000H 031BH 0009H 0010H
00:1096 10-90 00-00'             3584   	l	r0,	NEAR _charj
00:109A 01 10                    3585   	add	r0,	#01h
                                 3586   CBLOCKEND 140 114 796
                                 3587   
                                 3588   ;;							while(I2C_BUFF[chari]!=0x20){
                                 3589   CLINEA 0000H 0000H 0319H 0001H 000BH
00:109C                          3590   _$L460 :
00:109C 11-90 00-00'             3591   	st	r0,	NEAR _charj
                                 3592   
                                 3593   ;;							while(I2C_BUFF[chari]!=0x20){
                                 3594   CLINEA 0000H 0000H 0319H 001BH 0022H
00:10A0 10-90 00-00'             3595   	l	r0,	NEAR _chari
00:10A4 00 01                    3596   	mov	r1,	#00h
00:10A6 08-90 00-00'             3597   	l	r0,	NEAR _I2C_BUFF[er0]
00:10AA 20 70                    3598   	cmp	r0,	#020h
00:10AC F1 C8                    3599   	bne	_$L392
                                 3600   
                                 3601   ;;							for(chark = charj; chark>0; chark--){
                                 3602   CLINEA 0000H 0001H 031DH 000CH 0019H
00:10AE 10-90 00-00'             3603   	l	r0,	NEAR _charj
                                 3604   
                                 3605   ;;							for(chark = charj; chark>0; chark--){
                                 3606   CLINEA 0000H 0000H 031DH 0001H 000BH
00:10B2 40 CE                    3607   	bal	_$L461
                                 3608   
                                 3609   ;;							for(chark = charj; chark>0; chark--){
                                 3610   CLINEA 0000H 0000H 031DH 0024H 002AH
00:10B4                          3611   _$L396 :
                                 3612   CBLOCK 140 115 797
                                 3613   
                                 3614   ;;								if(chark == 3){RegAddr_temp = (I2C_BUFF[chari-chark]-0x30)*100;}
                                 3615   CLINEA 0000H 0001H 031EH 0009H 0048H
00:10B4 03 70                    3616   	cmp	r0,	#03h
00:10B6 14 C8                    3617   	bne	_$L400
                                 3618   CBLOCK 140 116 798
00:10B8 10-90 00-00'             3619   	l	r0,	NEAR _chari
00:10BC 00 01                    3620   	mov	r1,	#00h
00:10BE 10-92 00-00'             3621   	l	r2,	NEAR _chark
00:10C2 00 03                    3622   	mov	r3,	#00h
00:10C4 28-80                    3623   	sub	r0,	r2
00:10C6 39-81                    3624   	subc	r1,	r3
00:10C8 08-90 00-00'             3625   	l	r0,	NEAR _I2C_BUFF[er0]
00:10CC D0 10                    3626   	add	r0,	#0d0h
00:10CE 00-81                    3627   	mov	r1,	r0
00:10D0 1A-91                    3628   	sll	r1,	#01h
00:10D2 01-81                    3629   	add	r1,	r0
00:10D4 3A-91                    3630   	sll	r1,	#03h
00:10D6 01-81                    3631   	add	r1,	r0
00:10D8 2A-91                    3632   	sll	r1,	#02h
00:10DA 11-91 00-00'             3633   	st	r1,	NEAR _RegAddr_temp
                                 3634   
                                 3635   ;;								else if(chark == 2){RegAddr_temp = (I2C_BUFF[chari-chark]-0x30)*10;}
                                 3636   CLINEA 0000H 0001H 031FH 0009H 004CH
00:10DE 21 CE                    3637   	bal	_$L405
00:10E0                          3638   _$L400 :
00:10E0 02 70                    3639   	cmp	r0,	#02h
00:10E2 12 C8                    3640   	bne	_$L403
                                 3641   CBLOCK 140 117 799
00:10E4 10-90 00-00'             3642   	l	r0,	NEAR _chari
00:10E8 00 01                    3643   	mov	r1,	#00h
00:10EA 10-92 00-00'             3644   	l	r2,	NEAR _chark
00:10EE 00 03                    3645   	mov	r3,	#00h
00:10F0 28-80                    3646   	sub	r0,	r2
00:10F2 39-81                    3647   	subc	r1,	r3
00:10F4 08-90 00-00'             3648   	l	r0,	NEAR _I2C_BUFF[er0]
00:10F8 D0 10                    3649   	add	r0,	#0d0h
00:10FA 00-81                    3650   	mov	r1,	r0
00:10FC 2A-91                    3651   	sll	r1,	#02h
00:10FE 01-81                    3652   	add	r1,	r0
00:1100 1A-91                    3653   	sll	r1,	#01h
00:1102 11-91 00-00'             3654   	st	r1,	NEAR _RegAddr_temp
                                 3655   CBLOCKEND 140 117 799
                                 3656   
                                 3657   ;;								else {RegAddr_temp = (I2C_BUFF[chari-chark]-0x30);}
                                 3658   CLINEA 0000H 0001H 0320H 0009H 003BH
00:1106 0D CE                    3659   	bal	_$L405
00:1108                          3660   _$L403 :
                                 3661   CBLOCK 140 118 800
00:1108 10-90 00-00'             3662   	l	r0,	NEAR _chari
00:110C 00 01                    3663   	mov	r1,	#00h
00:110E 10-92 00-00'             3664   	l	r2,	NEAR _chark
00:1112 00 03                    3665   	mov	r3,	#00h
00:1114 28-80                    3666   	sub	r0,	r2
00:1116 39-81                    3667   	subc	r1,	r3
00:1118 08-90 00-00'             3668   	l	r0,	NEAR _I2C_BUFF[er0]
00:111C D0 10                    3669   	add	r0,	#0d0h
00:111E 11-90 00-00'             3670   	st	r0,	NEAR _RegAddr_temp
                                 3671   CBLOCKEND 140 118 800
00:1122                          3672   _$L405 :
                                 3673   
                                 3674   ;;								RegAddr += RegAddr_temp;
                                 3675   CLINEA 0000H 0001H 0321H 0009H 0020H
00:1122 10-90 00-00'             3676   	l	r0,	NEAR _RegAddr
00:1126 10-91 00-00'             3677   	l	r1,	NEAR _RegAddr_temp
00:112A 11-80                    3678   	add	r0,	r1
00:112C 11-90 00-00'             3679   	st	r0,	NEAR _RegAddr
                                 3680   CBLOCKEND 140 115 802
                                 3681   CBLOCKEND 140 116 860
                                 3682   
                                 3683   ;;							for(chark = charj; chark>0; chark--){
                                 3684   CLINEA 0000H 0000H 031DH 0024H 002AH
00:1130 20-80                    3685   	mov	r0,	r2
00:1132 FF 10                    3686   	add	r0,	#0ffh
                                 3687   
                                 3688   ;;							for(chark = charj; chark>0; chark--){
                                 3689   CLINEA 0000H 0000H 031DH 0001H 000BH
00:1134                          3690   _$L461 :
00:1134 11-90 00-00'             3691   	st	r0,	NEAR _chark
                                 3692   
                                 3693   ;;							for(chark = charj; chark>0; chark--){
                                 3694   CLINEA 0000H 0000H 031DH 001BH 0022H
00:1138 00 70                    3695   	cmp	r0,	#00h
00:113A 02 C3                    3696   	ble	_$M74
00:113C 00-F0'00-00'             3697   	b	_$L396
00:1140                          3698   _$M74 :
                                 3699   
                                 3700   ;;							chari++;
                                 3701   CLINEA 0000H 0000H 0323H 0008H 000FH
00:1140 0C-F0 00-00'             3702   	lea	OFFSET _chari
00:1144 2F-FE                    3703   	inc	[ea]
                                 3704   
                                 3705   ;;							charj = 0;
                                 3706   CLINEA 0000H 0001H 0324H 0008H 0011H
00:1146 00 00                    3707   	mov	r0,	#00h
00:1148 11-90 00-00'             3708   	st	r0,	NEAR _charj
                                 3709   
                                 3710   ;;							_flgI2CFin = 0;																	//reset I2C completed Flag
                                 3711   CLINEA 0000H 0001H 0327H 0008H 0041H
00:114C 11-90 00-00'             3712   	st	r0,	NEAR __flgI2CFin
                                 3713   
                                 3714   ;;							i2c_stop();																		//Make sure I2C is not currently running
                                 3715   CLINEA 0000H 0001H 0328H 0008H 004CH
00:1150 01-F0'00-00'             3716   	bl	_i2c_stop
                                 3717   
                                 3718   ;;							i2c_startReceive(I2CAdd, &RegAddr, 1, &I2CReceInfo, I2CNumBytes, (cbfI2c)_funcI2CFin);	//Begin I2C Recieve Command
                                 3719   CLINEA 0000H 0001H 0329H 0008H 0079H
00:1154 00'00                    3720   	mov	r0,	#BYTE1 OFFSET __funcI2CFin
00:1156 00'01                    3721   	mov	r1,	#BYTE2 OFFSET __funcI2CFin
00:1158 5E-F0                    3722   	push	er0
00:115A 10-90 00-00'             3723   	l	r0,	NEAR _I2CNumBytes
00:115E 00 01                    3724   	mov	r1,	#00h
00:1160 5E-F0                    3725   	push	er0
00:1162 00'00                    3726   	mov	r0,	#BYTE1 OFFSET _I2CReceInfo
00:1164 00'01                    3727   	mov	r1,	#BYTE2 OFFSET _I2CReceInfo
00:1166 5E-F0                    3728   	push	er0
00:1168 01 E0                    3729   	mov	er0,	#1 
00:116A 5E-F0                    3730   	push	er0
00:116C 00'02                    3731   	mov	r2,	#BYTE1 OFFSET _RegAddr
00:116E 00'03                    3732   	mov	r3,	#BYTE2 OFFSET _RegAddr
00:1170 10-90 00-00'             3733   	l	r0,	NEAR _I2CAdd
00:1174 01-F0'00-00'             3734   	bl	_i2c_startReceive
00:1178 08 E1                    3735   	add	sp,	#8 
                                 3736   
                                 3737   ;;							while(_flgI2CFin != 1){															//Wait for I2C commands to finish transfer
                                 3738   CLINEA 0000H 0000H 032AH 0001H 000BH
00:117A 04 CE                    3739   	bal	_$L462
                                 3740   
                                 3741   ;;							while(_flgI2CFin != 1){															//Wait for I2C commands to finish transfer
                                 3742   CLINEA 0000H 0000H 032AH 0008H 0057H
00:117C                          3743   _$L408 :
                                 3744   CBLOCK 140 119 810
                                 3745   
                                 3746   ;;								NOP1000();
                                 3747   CLINEA 0000H 0001H 032BH 0009H 0012H
00:117C 01-F0'00-00'             3748   	bl	_NOP1000
                                 3749   
                                 3750   ;;								main_clrWDT();
                                 3751   CLINEA 0000H 0001H 032CH 0009H 0016H
00:1180 01-F0'00-00'             3752   	bl	_main_clrWDT
                                 3753   CBLOCKEND 140 119 813
                                 3754   
                                 3755   ;;							while(_flgI2CFin != 1){															//Wait for I2C commands to finish transfer
                                 3756   CLINEA 0000H 0000H 032AH 0001H 000BH
00:1184                          3757   _$L462 :
                                 3758   
                                 3759   ;;							while(_flgI2CFin != 1){															//Wait for I2C commands to finish transfer
                                 3760   CLINEA 0000H 0000H 032AH 001BH 0022H
00:1184 10-90 00-00'             3761   	l	r0,	NEAR __flgI2CFin
00:1188 01 70                    3762   	cmp	r0,	#01h
00:118A F8 C8                    3763   	bne	_$L408
                                 3764   
                                 3765   ;;							I2C_RX_Data[6] = I2CReceInfo[0];
                                 3766   CLINEA 0000H 0001H 0333H 0008H 0027H
00:118C 10-90 00-00'             3767   	l	r0,	NEAR _I2CReceInfo
00:1190 11-90 00-00'             3768   	st	r0,	NEAR _I2C_RX_Data+06h
                                 3769   
                                 3770   ;;							I2C_RX_Data[8] = I2CReceInfo[1];
                                 3771   CLINEA 0000H 0001H 0334H 0008H 0027H
00:1194 10-90 00-00'             3772   	l	r0,	NEAR _I2CReceInfo+01h
00:1198 11-90 00-00'             3773   	st	r0,	NEAR _I2C_RX_Data+08h
                                 3774   
                                 3775   ;;							I2C_RX_Data[10] = I2CReceInfo[2];
                                 3776   CLINEA 0000H 0001H 0335H 0008H 0028H
00:119C 10-90 00-00'             3777   	l	r0,	NEAR _I2CReceInfo+02h
00:11A0 11-90 00-00'             3778   	st	r0,	NEAR _I2C_RX_Data+0ah
                                 3779   
                                 3780   ;;							I2C_RX_Data[12] = I2CReceInfo[3];
                                 3781   CLINEA 0000H 0001H 0336H 0008H 0028H
00:11A4 10-90 00-00'             3782   	l	r0,	NEAR _I2CReceInfo+03h
00:11A8 11-90 00-00'             3783   	st	r0,	NEAR _I2C_RX_Data+0ch
                                 3784   
                                 3785   ;;							I2C_RX_Data[14] = I2CReceInfo[4];
                                 3786   CLINEA 0000H 0001H 0337H 0008H 0028H
00:11AC 10-90 00-00'             3787   	l	r0,	NEAR _I2CReceInfo+04h
00:11B0 11-90 00-00'             3788   	st	r0,	NEAR _I2C_RX_Data+0eh
                                 3789   
                                 3790   ;;							I2C_RX_Data[16] = I2CReceInfo[5];
                                 3791   CLINEA 0000H 0001H 0338H 0008H 0028H
00:11B4 10-90 00-00'             3792   	l	r0,	NEAR _I2CReceInfo+05h
00:11B8 11-90 00-00'             3793   	st	r0,	NEAR _I2C_RX_Data+010h
                                 3794   
                                 3795   ;;							I2C_RX_Data[18] = I2CReceInfo[6];
                                 3796   CLINEA 0000H 0001H 0339H 0008H 0028H
00:11BC 10-90 00-00'             3797   	l	r0,	NEAR _I2CReceInfo+06h
00:11C0 11-90 00-00'             3798   	st	r0,	NEAR _I2C_RX_Data+012h
                                 3799   
                                 3800   ;;							I2C_RX_Data[20] = I2CReceInfo[7];
                                 3801   CLINEA 0000H 0001H 033AH 0008H 0028H
00:11C4 10-90 00-00'             3802   	l	r0,	NEAR _I2CReceInfo+07h
00:11C8 11-90 00-00'             3803   	st	r0,	NEAR _I2C_RX_Data+014h
                                 3804   
                                 3805   ;;							_flgUartFin = 0;
                                 3806   CLINEA 0000H 0001H 033CH 0008H 0017H
00:11CC 00 00                    3807   	mov	r0,	#00h
00:11CE 11-90 00-00'             3808   	st	r0,	NEAR __flgUartFin
                                 3809   
                                 3810   ;;							uart_stop();
                                 3811   CLINEA 0000H 0001H 033DH 0008H 0013H
00:11D2 01-F0'00-00'             3812   	bl	_uart_stop
                                 3813   
                                 3814   ;;							uart_startSend(I2C_RX_Data, 23, _funcUartFin);
                                 3815   CLINEA 0000H 0001H 033EH 0008H 0035H
00:11D6 00'00                    3816   	mov	r0,	#BYTE1 OFFSET __funcUartFin
00:11D8 00'01                    3817   	mov	r1,	#BYTE2 OFFSET __funcUartFin
00:11DA 5E-F0                    3818   	push	er0
00:11DC 17 E2                    3819   	mov	er2,	#23
00:11DE 00'00                    3820   	mov	r0,	#BYTE1 OFFSET _I2C_RX_Data
00:11E0 00'01                    3821   	mov	r1,	#BYTE2 OFFSET _I2C_RX_Data
00:11E2 01-F0'00-00'             3822   	bl	_uart_startSend
00:11E6 02 E1                    3823   	add	sp,	#2 
                                 3824   
                                 3825   ;;							while(_flgUartFin != 1){
                                 3826   CLINEA 0000H 0000H 033FH 0001H 000BH
00:11E8 04 CE                    3827   	bal	_$L463
                                 3828   
                                 3829   ;;							while(_flgUartFin != 1){
                                 3830   CLINEA 0000H 0000H 033FH 0008H 001FH
00:11EA                          3831   _$L412 :
                                 3832   CBLOCK 140 120 831
                                 3833   
                                 3834   ;;								NOP1000();
                                 3835   CLINEA 0000H 0001H 0340H 0009H 0012H
00:11EA 01-F0'00-00'             3836   	bl	_NOP1000
                                 3837   
                                 3838   ;;								main_clrWDT();
                                 3839   CLINEA 0000H 0001H 0341H 0009H 0016H
00:11EE 01-F0'00-00'             3840   	bl	_main_clrWDT
                                 3841   CBLOCKEND 140 120 834
                                 3842   
                                 3843   ;;							while(_flgUartFin != 1){
                                 3844   CLINEA 0000H 0000H 033FH 0001H 000BH
00:11F2                          3845   _$L463 :
                                 3846   
                                 3847   ;;							while(_flgUartFin != 1){
                                 3848   CLINEA 0000H 0000H 033FH 001BH 0022H
00:11F2 10-90 00-00'             3849   	l	r0,	NEAR __flgUartFin
00:11F6 01 70                    3850   	cmp	r0,	#01h
00:11F8 F8 C8                    3851   	bne	_$L412
                                 3852   
                                 3853   ;;							I2CAdd = 0;
                                 3854   CLINEA 0000H 0001H 0345H 0008H 0012H
00:11FA 00 00                    3855   	mov	r0,	#00h
00:11FC 11-90 00-00'             3856   	st	r0,	NEAR _I2CAdd
                                 3857   
                                 3858   ;;							I2CNumBytes = 0;
                                 3859   CLINEA 0000H 0001H 0346H 0008H 0017H
00:1200 11-90 00-00'             3860   	st	r0,	NEAR _I2CNumBytes
                                 3861   
                                 3862   ;;							RegAddr = 0;
                                 3863   CLINEA 0000H 0001H 0347H 0008H 0013H
00:1204 11-90 00-00'             3864   	st	r0,	NEAR _RegAddr
                                 3865   
                                 3866   ;;							chari = 0;
                                 3867   CLINEA 0000H 0001H 0348H 0008H 0011H
00:1208 11-90 00-00'             3868   	st	r0,	NEAR _chari
                                 3869   
                                 3870   ;;							for(chari = 0; chari < 8; chari++){
                                 3871   CLINEA 0000H 0000H 0349H 0008H 002AH
00:120C                          3872   _$L416 :
                                 3873   CBLOCK 140 121 841
                                 3874   
                                 3875   ;;								I2CReceInfo[chari] = 0;
                                 3876   CLINEA 0000H 0001H 034AH 0009H 001FH
00:120C 00 01                    3877   	mov	r1,	#00h
00:120E 00 02                    3878   	mov	r2,	#00h
00:1210 09-92 00-00'             3879   	st	r2,	NEAR _I2CReceInfo[er0]
                                 3880   CBLOCKEND 140 121 843
                                 3881   
                                 3882   ;;							for(chari = 0; chari < 8; chari++){
                                 3883   CLINEA 0000H 0000H 0349H 0008H 002AH
00:1214 0C-F0 00-00'             3884   	lea	OFFSET _chari
00:1218 2F-FE                    3885   	inc	[ea]
00:121A 10-90 00-00'             3886   	l	r0,	NEAR _chari
                                 3887   
                                 3888   ;;							for(chari = 0; chari < 8; chari++){
                                 3889   CLINEA 0000H 0000H 0349H 001BH 0022H
00:121E 08 70                    3890   	cmp	r0,	#08h
00:1220 F5 C1                    3891   	blt	_$L416
                                 3892   
                                 3893   ;;							_flgUartFin = 0;
                                 3894   CLINEA 0000H 0001H 034EH 0008H 0017H
00:1222 00 00                    3895   	mov	r0,	#00h
00:1224 11-90 00-00'             3896   	st	r0,	NEAR __flgUartFin
                                 3897   
                                 3898   ;;							uart_stop();
                                 3899   CLINEA 0000H 0001H 034FH 0008H 0013H
00:1228 01-F0'00-00'             3900   	bl	_uart_stop
                                 3901   
                                 3902   ;;							uart_startSend(I2C_RX_REC, 21, _funcUartFin);
                                 3903   CLINEA 0000H 0001H 0350H 0008H 0034H
00:122C 00'00                    3904   	mov	r0,	#BYTE1 OFFSET __funcUartFin
00:122E 00'01                    3905   	mov	r1,	#BYTE2 OFFSET __funcUartFin
00:1230 5E-F0                    3906   	push	er0
00:1232 15 E2                    3907   	mov	er2,	#21
00:1234 00'00                    3908   	mov	r0,	#BYTE1 OFFSET _I2C_RX_REC
00:1236 00'01                    3909   	mov	r1,	#BYTE2 OFFSET _I2C_RX_REC
00:1238 01-F0'00-00'             3910   	bl	_uart_startSend
00:123C 02 E1                    3911   	add	sp,	#2 
                                 3912   
                                 3913   ;;							while(_flgUartFin != 1){
                                 3914   CLINEA 0000H 0000H 0351H 0001H 000BH
00:123E 04 CE                    3915   	bal	_$L464
                                 3916   
                                 3917   ;;							while(_flgUartFin != 1){
                                 3918   CLINEA 0000H 0000H 0351H 0008H 001FH
00:1240                          3919   _$L422 :
                                 3920   CBLOCK 140 122 849
                                 3921   
                                 3922   ;;								NOP1000();
                                 3923   CLINEA 0000H 0001H 0352H 0009H 0012H
00:1240 01-F0'00-00'             3924   	bl	_NOP1000
                                 3925   
                                 3926   ;;								main_clrWDT();
                                 3927   CLINEA 0000H 0001H 0353H 0009H 0016H
00:1244 01-F0'00-00'             3928   	bl	_main_clrWDT
                                 3929   CBLOCKEND 140 122 852
                                 3930   
                                 3931   ;;							while(_flgUartFin != 1){
                                 3932   CLINEA 0000H 0000H 0351H 0001H 000BH
00:1248                          3933   _$L464 :
                                 3934   
                                 3935   ;;							while(_flgUartFin != 1){
                                 3936   CLINEA 0000H 0000H 0351H 001BH 0022H
00:1248 10-90 00-00'             3937   	l	r0,	NEAR __flgUartFin
00:124C 01 70                    3938   	cmp	r0,	#01h
00:124E F8 C8                    3939   	bne	_$L422
                                 3940   
                                 3941   ;;							}
                                 3942   CLINEA 0000H 0000H 0354H 0008H 0008H
                                 3943   CBLOCKEND 140 102 853
                                 3944   CBLOCKEND 140 101 854
                                 3945   CBLOCKEND 140 100 855
                                 3946   CBLOCKEND 140 99 856
                                 3947   CBLOCKEND 140 98 857
                                 3948   
                                 3949   ;;goto RX_Loop;
                                 3950   CLINEA 0000H 0001H 035AH 0001H 000DH
00:1250 00-F0'00-00'             3951   	b	_$L12
                                 3952   CBLOCKEND 140 2 860
                                 3953   
                                 3954   ;;}//end main
                                 3955   CLINEA 0000H 0001H 035CH 0001H 000BH
                                 3956   CBLOCKEND 140 1 860
                                 3957   CFUNCTIONEND 140
                                 3958   
                                 3959   
  --------------------------     3960   	rseg $$main_clrWDT$main
                                 3961   CFUNCTION 124
                                 3962   
00:0000                          3963   _main_clrWDT	:
                                 3964   CBLOCK 124 1 886
                                 3965   
                                 3966   ;;{
                                 3967   CLINEA 0000H 0001H 0376H 0001H 0001H
                                 3968   CBLOCK 124 2 886
                                 3969   
                                 3970   ;;	do {
                                 3971   CLINEA 0000H 0001H 0377H 0002H 0005H
00:0000                          3972   _$L468 :
                                 3973   CBLOCK 124 3 887
                                 3974   
                                 3975   ;;		WDTCON = 0x5Au;
                                 3976   CLINEA 0000H 0001H 0378H 0003H 0011H
00:0000 5A 00                    3977   	mov	r0,	#05ah
00:0002 11-90 0E-F0              3978   	st	r0,	0f00eh
                                 3979   CBLOCKEND 124 3 889
                                 3980   
                                 3981   ;;	} while (WDP != 1);
                                 3982   CLINEA 0000H 0000H 0379H 0002H 0014H
00:0006 81-A0 0E-F0              3983   	tb	0f00eh.0
00:000A FA C9                    3984   	beq	_$L468
                                 3985   
                                 3986   ;;	WDTCON = 0xA5u;
                                 3987   CLINEA 0000H 0001H 037AH 0002H 0010H
00:000C A5 00                    3988   	mov	r0,	#0a5h
00:000E 11-90 0E-F0              3989   	st	r0,	0f00eh
                                 3990   CBLOCKEND 124 2 891
                                 3991   
                                 3992   ;;}
                                 3993   CLINEA 0000H 0001H 037BH 0001H 0001H
00:0012 1F-FE                    3994   	rt
                                 3995   CBLOCKEND 124 1 891
                                 3996   CFUNCTIONEND 124
                                 3997   
                                 3998   
  --------------------------     3999   	rseg $$NOP1000$main
                                 4000   CFUNCTION 139
                                 4001   
00:0000                          4002   _NOP1000	:
                                 4003   CBLOCK 139 1 901
                                 4004   
                                 4005   ;;{
                                 4006   CLINEA 0000H 0001H 0385H 0001H 0001H
                                 4007   CBLOCK 139 2 901
                                 4008   CLOCAL 4AH 0002H 0000H 0002H "ONCNT" 02H 00H 01H
                                 4009   CBLOCKEND 139 2 908
                                 4010   
                                 4011   ;;}
                                 4012   CLINEA 0000H 0001H 038CH 0001H 0001H
00:0000 1F-FE                    4013   	rt
                                 4014   CBLOCKEND 139 1 908
                                 4015   CFUNCTIONEND 139
                                 4016   
                                 4017   
  --------------------------     4018   	rseg $$Initialization$main
                                 4019   CFUNCTION 125
                                 4020   
00:0000                          4021   _Initialization	:
                                 4022   CBLOCK 125 1 915
                                 4023   
                                 4024   ;;{
                                 4025   CLINEA 0000H 0001H 0393H 0001H 0001H
00:0000 CE-F8                    4026   	push	lr
                                 4027   CBLOCK 125 2 915
                                 4028   CRET 0000H
                                 4029   
                                 4030   ;;	DSIO0 = 1; // 0=> Enables Synchronous Serial Port 0 (initial value).
                                 4031   CLINEA 0000H 0001H 0397H 0002H 0045H
00:0002 80-A0 2A-F0              4032   	sb	0f02ah.0
                                 4033   
                                 4034   ;;	DUA0	= 0; // 0=> Enables the operation of UART0 (initial value).
                                 4035   CLINEA 0000H 0001H 0398H 0002H 0041H
00:0006 A2-A0 2A-F0              4036   	rb	0f02ah.2
                                 4037   
                                 4038   ;;	DUA1  = 1; // 0=> Enables Uart1 (initial value). 
                                 4039   CLINEA 0000H 0001H 0399H 0002H 0032H
00:000A B0-A0 2A-F0              4040   	sb	0f02ah.3
                                 4041   
                                 4042   ;;	DI2C1 = 1; // 0=> Enables I2C bus Interface (Slave) (initial value).
                                 4043   CLINEA 0000H 0001H 039AH 0002H 0045H
00:000E E0-A0 2A-F0              4044   	sb	0f02ah.6
                                 4045   
                                 4046   ;;	DI2C0 = 0; // 0=> Enables I2C bus Interface (Master) (initial value).	
                                 4047   CLINEA 0000H 0001H 039BH 0002H 0047H
00:0012 F2-A0 2A-F0              4048   	rb	0f02ah.7
                                 4049   
                                 4050   ;;	BLKCON4 = 0x00; // 0=> Enables SA-ADC
                                 4051   CLINEA 0000H 0001H 039DH 0002H 0026H
00:0016 00 00                    4052   	mov	r0,	#00h
00:0018 11-90 2C-F0              4053   	st	r0,	0f02ch
                                 4054   
                                 4055   ;;	BLKCON6 = 0x00; // (1=disables; 0=enables) the operation of Timers 8, 9, A, E, F.
                                 4056   CLINEA 0000H 0001H 039EH 0002H 0052H
00:001C 11-90 2E-F0              4057   	st	r0,	0f02eh
                                 4058   
                                 4059   ;;	BLKCON7 = 0x00; // (1=disables; 0=enables) the operation of PWM (PWMC, PWMD, PWME, PWMF
                                 4060   CLINEA 0000H 0001H 039FH 0002H 0058H
00:0020 11-90 2F-F0              4061   	st	r0,	0f02fh
                                 4062   
                                 4063   ;;	PortA_Low();	//Initialize all 3 Ports of Q111 Port A to GPIO-Low
                                 4064   CLINEA 0000H 0001H 03A3H 0002H 0041H
00:0024 01-F0'00-00'             4065   	bl	_PortA_Low
                                 4066   
                                 4067   ;;	PortB_Low();	//Initialize all 8 Ports of Q111 Port B to GPIO-Low
                                 4068   CLINEA 0000H 0001H 03A4H 0002H 0041H
00:0028 01-F0'00-00'             4069   	bl	_PortB_Low
                                 4070   
                                 4071   ;;	PortC_Low();	//Initialize all 4 Ports of Q111 Port C to GPIO-Low
                                 4072   CLINEA 0000H 0001H 03A5H 0002H 0041H
00:002C 01-F0'00-00'             4073   	bl	_PortC_Low
                                 4074   
                                 4075   ;;	SetOSC(); //8MHz
                                 4076   CLINEA 0000H 0001H 03A8H 0002H 0011H
00:0030 01-F0'00-00'             4077   	bl	_SetOSC
                                 4078   
                                 4079   ;;	TM8D    = 0;	//Timer 8 DATA Register
                                 4080   CLINEA 0000H 0001H 03BAH 0002H 0025H
00:0034 00 00                    4081   	mov	r0,	#00h
00:0036 11-90 E0-F8              4082   	st	r0,	0f8e0h
                                 4083   
                                 4084   ;;	TM8C    = 0;	//Timer 8 CLOCK Register
                                 4085   CLINEA 0000H 0001H 03BDH 0002H 0026H
00:003A 11-90 E1-F8              4086   	st	r0,	0f8e1h
                                 4087   
                                 4088   ;;	T8C1 = 0;	// 01 = HTBCLK  
                                 4089   CLINEA 0000H 0001H 03C2H 0002H 001BH
00:003E 92-A0 E1-F8              4090   	rb	0f8e1h.1
                                 4091   
                                 4092   ;;	T8C0 = 1;
                                 4093   CLINEA 0000H 0001H 03C3H 0002H 000AH
00:0042 80-A0 E1-F8              4094   	sb	0f8e1h.0
                                 4095   
                                 4096   ;;	T89M16 = 0;	// 0=8-Bit Mode; 1=16bit Mode...
                                 4097   CLINEA 0000H 0001H 03C5H 0002H 002DH
00:0046 D2-A0 E2-F8              4098   	rb	0f8e2h.5
                                 4099   
                                 4100   ;;	T8OST = 0;	// 0=Normal; 1=One-Shot...
                                 4101   CLINEA 0000H 0001H 03C7H 0002H 0026H
00:004A F2-A0 E2-F8              4102   	rb	0f8e2h.7
                                 4103   
                                 4104   ;;	T8RUN = 0;	//0=STOP; 1=START...
                                 4105   CLINEA 0000H 0001H 03CAH 0002H 0020H
00:004E 82-A0 E3-F8              4106   	rb	0f8e3h.0
                                 4107   
                                 4108   ;;	irq_di(); 	//Disable Interrupts...
                                 4109   CLINEA 0000H 0001H 03CFH 0002H 0023H
00:0052 01-F0'00-00'             4110   	bl	_irq_di
                                 4111   
                                 4112   ;;	irq_init();	//Initialize Interrupts (All Off and NO Requests)
                                 4113   CLINEA 0000H 0001H 03D0H 0002H 003EH
00:0056 01-F0'00-00'             4114   	bl	_irq_init
                                 4115   
                                 4116   ;;	IE0 = IE1 = IE2 = IE3 = IE4 = IE5 = IE6 = IE7 = 0; // 0=DISABLED; 1=ENABLED
                                 4117   CLINEA 0000H 0001H 03DBH 0002H 004CH
00:005A 00 00                    4118   	mov	r0,	#00h
00:005C 11-90 17-F0              4119   	st	r0,	0f017h
00:0060 11-90 16-F0              4120   	st	r0,	0f016h
00:0064 11-90 15-F0              4121   	st	r0,	0f015h
00:0068 11-90 14-F0              4122   	st	r0,	0f014h
00:006C 11-90 13-F0              4123   	st	r0,	0f013h
00:0070 11-90 12-F0              4124   	st	r0,	0f012h
00:0074 11-90 11-F0              4125   	st	r0,	0f011h
00:0078 11-90 10-F0              4126   	st	r0,	0f010h
                                 4127   
                                 4128   ;;	IRQ0 = IRQ1 = IRQ2 = IRQ3 = IRQ4 = IRQ5 = IRQ6 = IRQ7 = 0;	//Clear all Requests...
                                 4129   CLINEA 0000H 0001H 03E6H 0002H 0053H
00:007C 11-90 1F-F0              4130   	st	r0,	0f01fh
00:0080 11-90 1E-F0              4131   	st	r0,	0f01eh
00:0084 11-90 1D-F0              4132   	st	r0,	0f01dh
00:0088 11-90 1C-F0              4133   	st	r0,	0f01ch
00:008C 11-90 1B-F0              4134   	st	r0,	0f01bh
00:0090 11-90 1A-F0              4135   	st	r0,	0f01ah
00:0094 11-90 19-F0              4136   	st	r0,	0f019h
00:0098 11-90 18-F0              4137   	st	r0,	0f018h
                                 4138   
                                 4139   ;;	E2H = 0; 	// E2H is the Enable flag for 2Hz TBC Interrupt (1=ENABLED)
                                 4140   CLINEA 0000H 0001H 03E7H 0002H 0046H
00:009C B2-A0 17-F0              4141   	rb	0f017h.3
                                 4142   
                                 4143   ;;	(void)irq_setHdr( (unsigned char)IRQ_NO_UA0INT, _intUart );
                                 4144   CLINEA 0000H 0001H 03E9H 0002H 003CH
00:00A0 00'02                    4145   	mov	r2,	#BYTE1 OFFSET __intUart
00:00A2 00'03                    4146   	mov	r3,	#BYTE2 OFFSET __intUart
00:00A4 0B 00                    4147   	mov	r0,	#0bh
00:00A6 01-F0'00-00'             4148   	bl	_irq_setHdr
                                 4149   
                                 4150   ;;	(void)irq_setHdr( (unsigned char)IRQ_NO_I2C0INT, _intI2c );
                                 4151   CLINEA 0000H 0001H 03EAH 0002H 003CH
00:00AA 00'02                    4152   	mov	r2,	#BYTE1 OFFSET __intI2c
00:00AC 00'03                    4153   	mov	r3,	#BYTE2 OFFSET __intI2c
00:00AE 08 00                    4154   	mov	r0,	#08h
00:00B0 01-F0'00-00'             4155   	bl	_irq_setHdr
                                 4156   
                                 4157   ;;	EI2CM = 1;
                                 4158   CLINEA 0000H 0001H 03ECH 0002H 000BH
00:00B4 F0-A0 12-F0              4159   	sb	0f012h.7
                                 4160   
                                 4161   ;;	QI2CM = 1;
                                 4162   CLINEA 0000H 0001H 03EDH 0002H 000BH
00:00B8 F0-A0 1A-F0              4163   	sb	0f01ah.7
                                 4164   
                                 4165   ;;	EUA0 = 1; // EUA0 is the enable flag for the UART0 interrupt (1=ENABLED)
                                 4166   CLINEA 0000H 0001H 03EEH 0002H 0049H
00:00BC 80-A0 14-F0              4167   	sb	0f014h.0
                                 4168   
                                 4169   ;;	irq_ei();	// Enable Interrupts...
                                 4170   CLINEA 0000H 0001H 03F0H 0002H 0022H
00:00C0 01-F0'00-00'             4171   	bl	_irq_ei
                                 4172   
                                 4173   ;;	WDTMOD = 0x03; 	// 0x03=overflow 8sec...
                                 4174   CLINEA 0000H 0001H 03F5H 0002H 0029H
00:00C4 03 00                    4175   	mov	r0,	#03h
00:00C6 11-90 0F-F0              4176   	st	r0,	0f00fh
                                 4177   
                                 4178   ;;	main_clrWDT(); 	// Clear WDT
                                 4179   CLINEA 0000H 0001H 03F6H 0002H 001DH
00:00CA 01-F0'00-00'             4180   	bl	_main_clrWDT
                                 4181   
                                 4182   ;;	HelloWorld[12] 	= 0x0D;
                                 4183   CLINEA 0000H 0001H 03F9H 0002H 0018H
00:00CE 0D 00                    4184   	mov	r0,	#0dh
00:00D0 11-90 00-00'             4185   	st	r0,	NEAR _HelloWorld+0ch
                                 4186   
                                 4187   ;;	HelloWorld[13] 	= 0x0A;
                                 4188   CLINEA 0000H 0001H 03FAH 0002H 0018H
00:00D4 0A 00                    4189   	mov	r0,	#0ah
00:00D6 11-90 00-00'             4190   	st	r0,	NEAR _HelloWorld+0dh
                                 4191   
                                 4192   ;;	InputStatus[21] 	= 0x0D;
                                 4193   CLINEA 0000H 0001H 03FBH 0002H 0019H
00:00DA 0D 00                    4194   	mov	r0,	#0dh
00:00DC 11-90 00-00'             4195   	st	r0,	NEAR _InputStatus+015h
                                 4196   
                                 4197   ;;	InputStatus[22] 	= 0x0A;
                                 4198   CLINEA 0000H 0001H 03FCH 0002H 0019H
00:00E0 0A 00                    4199   	mov	r0,	#0ah
00:00E2 11-90 00-00'             4200   	st	r0,	NEAR _InputStatus+016h
                                 4201   
                                 4202   ;;	InputRec[12] 	= 0x0D;
                                 4203   CLINEA 0000H 0001H 03FDH 0002H 0016H
00:00E6 0D 00                    4204   	mov	r0,	#0dh
00:00E8 11-90 00-00'             4205   	st	r0,	NEAR _InputRec+0ch
                                 4206   
                                 4207   ;;	InputRec[13] 	= 0x0A;
                                 4208   CLINEA 0000H 0001H 03FEH 0002H 0016H
00:00EC 0A 00                    4209   	mov	r0,	#0ah
00:00EE 11-90 00-00'             4210   	st	r0,	NEAR _InputRec+0dh
                                 4211   
                                 4212   ;;	OutputRec[21] 	= 0x0D;
                                 4213   CLINEA 0000H 0001H 03FFH 0002H 0017H
00:00F2 0D 00                    4214   	mov	r0,	#0dh
00:00F4 11-90 00-00'             4215   	st	r0,	NEAR _OutputRec+015h
                                 4216   
                                 4217   ;;	OutputRec[22] 	= 0x0A;
                                 4218   CLINEA 0000H 0001H 0400H 0002H 0017H
00:00F8 0A 00                    4219   	mov	r0,	#0ah
00:00FA 11-90 00-00'             4220   	st	r0,	NEAR _OutputRec+016h
                                 4221   
                                 4222   ;;	AckMCUConn[20] 	= 0x0D;
                                 4223   CLINEA 0000H 0001H 0401H 0002H 0018H
00:00FE 0D 00                    4224   	mov	r0,	#0dh
00:0100 11-90 00-00'             4225   	st	r0,	NEAR _AckMCUConn+014h
                                 4226   
                                 4227   ;;	AckMCUConn[21] 	= 0x0A;
                                 4228   CLINEA 0000H 0001H 0402H 0002H 0018H
00:0104 0A 00                    4229   	mov	r0,	#0ah
00:0106 11-90 00-00'             4230   	st	r0,	NEAR _AckMCUConn+015h
                                 4231   
                                 4232   ;;	NackMCUConn[60] = 0x0D;
                                 4233   CLINEA 0000H 0001H 0403H 0002H 0018H
00:010A 0D 00                    4234   	mov	r0,	#0dh
00:010C 11-90 00-00'             4235   	st	r0,	NEAR _NackMCUConn+03ch
                                 4236   
                                 4237   ;;	NackMCUConn[61] = 0x0A;
                                 4238   CLINEA 0000H 0001H 0404H 0002H 0018H
00:0110 0A 00                    4239   	mov	r0,	#0ah
00:0112 11-90 00-00'             4240   	st	r0,	NEAR _NackMCUConn+03dh
                                 4241   
                                 4242   ;;	ListFWRev[20] = 0x0D;
                                 4243   CLINEA 0000H 0001H 0405H 0002H 0016H
00:0116 0D 00                    4244   	mov	r0,	#0dh
00:0118 11-90 00-00'             4245   	st	r0,	NEAR _ListFWRev+014h
                                 4246   
                                 4247   ;;	ListFWRev[21] = 0x0A;
                                 4248   CLINEA 0000H 0001H 0406H 0002H 0016H
00:011C 0A 00                    4249   	mov	r0,	#0ah
00:011E 11-90 00-00'             4250   	st	r0,	NEAR _ListFWRev+015h
                                 4251   
                                 4252   ;;	I2C_TX_REC[19] = 0x0D;
                                 4253   CLINEA 0000H 0001H 0407H 0002H 0017H
00:0122 0D 00                    4254   	mov	r0,	#0dh
00:0124 11-90 00-00'             4255   	st	r0,	NEAR _I2C_TX_REC+013h
                                 4256   
                                 4257   ;;	I2C_TX_REC[20] = 0x0A;
                                 4258   CLINEA 0000H 0001H 0408H 0002H 0017H
00:0128 0A 00                    4259   	mov	r0,	#0ah
00:012A 11-90 00-00'             4260   	st	r0,	NEAR _I2C_TX_REC+014h
                                 4261   
                                 4262   ;;	I2C_RX_REC[19] = 0x0D;
                                 4263   CLINEA 0000H 0001H 0409H 0002H 0017H
00:012E 0D 00                    4264   	mov	r0,	#0dh
00:0130 11-90 00-00'             4265   	st	r0,	NEAR _I2C_RX_REC+013h
                                 4266   
                                 4267   ;;	I2C_RX_REC[20] = 0x0A;
                                 4268   CLINEA 0000H 0001H 040AH 0002H 0017H
00:0134 0A 00                    4269   	mov	r0,	#0ah
00:0136 11-90 00-00'             4270   	st	r0,	NEAR _I2C_RX_REC+014h
                                 4271   
                                 4272   ;;	I2C_RX_Data[21] = 0x0D;
                                 4273   CLINEA 0000H 0001H 040BH 0002H 0018H
00:013A 0D 00                    4274   	mov	r0,	#0dh
00:013C 11-90 00-00'             4275   	st	r0,	NEAR _I2C_RX_Data+015h
                                 4276   
                                 4277   ;;	I2C_RX_Data[22] = 0x0A;
                                 4278   CLINEA 0000H 0001H 040CH 0002H 0018H
00:0140 0A 00                    4279   	mov	r0,	#0ah
00:0142 11-90 00-00'             4280   	st	r0,	NEAR _I2C_RX_Data+016h
                                 4281   
                                 4282   ;;	(void)i2c_init(I2C_MOD_FST, (unsigned short)HSCLK_KHZ, I2C_SYN_OFF);
                                 4283   CLINEA 0000H 0001H 0413H 0002H 0045H
00:0146 00 00                    4284   	mov	r0,	#00h
00:0148 4E-F0                    4285   	push	r0
00:014A 40 02                    4286   	mov	r2,	#040h
00:014C 1F 03                    4287   	mov	r3,	#01fh
00:014E 01 00                    4288   	mov	r0,	#01h
00:0150 01-F0'00-00'             4289   	bl	_i2c_init
00:0154 02 E1                    4290   	add	sp,	#2 
                                 4291   
                                 4292   ;;			     &_uartSetParam );						/* Param... 	 */
                                 4293   CLINEA 0000H 0001H 0418H 0009H 002FH
00:0156 00'00                    4294   	mov	r0,	#BYTE1 OFFSET __uartSetParam
00:0158 00'01                    4295   	mov	r1,	#BYTE2 OFFSET __uartSetParam
00:015A 5E-F0                    4296   	push	er0
00:015C 40 02                    4297   	mov	r2,	#040h
00:015E 1F 03                    4298   	mov	r3,	#01fh
00:0160 02 00                    4299   	mov	r0,	#02h
00:0162 01-F0'00-00'             4300   	bl	_uart_init
00:0166 02 E1                    4301   	add	sp,	#2 
                                 4302   
                                 4303   ;;	uart_PortSet();
                                 4304   CLINEA 0000H 0001H 0419H 0002H 0010H
00:0168 01-F0'00-00'             4305   	bl	_uart_PortSet
                                 4306   
                                 4307   ;;	_flgUartFin = 0;
                                 4308   CLINEA 0000H 0001H 041AH 0002H 0011H
00:016C 00 00                    4309   	mov	r0,	#00h
00:016E 11-90 00-00'             4310   	st	r0,	NEAR __flgUartFin
                                 4311   
                                 4312   ;;	uart_stop();
                                 4313   CLINEA 0000H 0001H 041BH 0002H 000DH
00:0172 01-F0'00-00'             4314   	bl	_uart_stop
                                 4315   
                                 4316   ;;	uart_startSend(HelloWorld, 14, _funcUartFin); // Send, "Hello World!"
                                 4317   CLINEA 0000H 0001H 041DH 0002H 0046H
00:0176 00'00                    4318   	mov	r0,	#BYTE1 OFFSET __funcUartFin
00:0178 00'01                    4319   	mov	r1,	#BYTE2 OFFSET __funcUartFin
00:017A 5E-F0                    4320   	push	er0
00:017C 0E E2                    4321   	mov	er2,	#14
00:017E 00'00                    4322   	mov	r0,	#BYTE1 OFFSET _HelloWorld
00:0180 00'01                    4323   	mov	r1,	#BYTE2 OFFSET _HelloWorld
00:0182 01-F0'00-00'             4324   	bl	_uart_startSend
00:0186 02 E1                    4325   	add	sp,	#2 
                                 4326   
                                 4327   ;;	while(_flgUartFin != 1){
                                 4328   CLINEA 0000H 0000H 041EH 0001H 0015H
00:0188 04 CE                    4329   	bal	_$L481
                                 4330   
                                 4331   ;;	while(_flgUartFin != 1){
                                 4332   CLINEA 0000H 0000H 041EH 0002H 0019H
00:018A                          4333   _$L479 :
                                 4334   CBLOCK 125 3 1054
                                 4335   
                                 4336   ;;		NOP1000();
                                 4337   CLINEA 0000H 0001H 041FH 0003H 000CH
00:018A 01-F0'00-00'             4338   	bl	_NOP1000
                                 4339   
                                 4340   ;;		main_clrWDT();
                                 4341   CLINEA 0000H 0001H 0420H 0003H 0010H
00:018E 01-F0'00-00'             4342   	bl	_main_clrWDT
                                 4343   CBLOCKEND 125 3 1057
                                 4344   
                                 4345   ;;	while(_flgUartFin != 1){
                                 4346   CLINEA 0000H 0000H 041EH 0001H 0015H
00:0192                          4347   _$L481 :
                                 4348   
                                 4349   ;;	while(_flgUartFin != 1){
                                 4350   CLINEA 0000H 0000H 041EH 001BH 0022H
00:0192 10-90 00-00'             4351   	l	r0,	NEAR __flgUartFin
00:0196 01 70                    4352   	cmp	r0,	#01h
00:0198 F8 C8                    4353   	bne	_$L479
                                 4354   CBLOCKEND 125 2 1058
                                 4355   
                                 4356   ;;}//End Initialization
                                 4357   CLINEA 0000H 0001H 0422H 0001H 0015H
00:019A 8E-F2                    4358   	pop	pc
                                 4359   CBLOCKEND 125 1 1058
                                 4360   CFUNCTIONEND 125
                                 4361   
                                 4362   
  --------------------------     4363   	rseg $$_funcUartFin$main
                                 4364   CFUNCTION 133
                                 4365   
00:0000                          4366   __funcUartFin	:
                                 4367   CBLOCK 133 1 1070
                                 4368   
                                 4369   ;;{
                                 4370   CLINEA 0000H 0001H 042EH 0001H 0001H
00:0000 CE-F8                    4371   	push	lr
                                 4372   CBLOCK 133 2 1070
                                 4373   CRET 0000H
                                 4374   CARGUMENT 46H 0002H 0000H "size" 02H 00H 01H
                                 4375   CARGUMENT 46H 0001H 0000H "errStat" 02H 00H 00H
                                 4376   
                                 4377   ;;	uart_continue();					// Function in UART.c: process to continue send and receive...
                                 4378   CLINEA 0000H 0001H 042FH 0002H 0054H
00:0002 01-F0'00-00'             4379   	bl	_uart_continue
                                 4380   
                                 4381   ;;	_flgUartFin = (unsigned char)FLG_SET;
                                 4382   CLINEA 0000H 0001H 0430H 0002H 0026H
00:0006 01 00                    4383   	mov	r0,	#01h
00:0008 11-90 00-00'             4384   	st	r0,	NEAR __flgUartFin
                                 4385   
                                 4386   ;;	main_reqNotHalt();				// uncommented 5/2/2013
                                 4387   CLINEA 0000H 0001H 0431H 0002H 002EH
00:000C 01-F0'00-00'             4388   	bl	_main_reqNotHalt
                                 4389   CBLOCKEND 133 2 1074
                                 4390   
                                 4391   ;;}
                                 4392   CLINEA 0000H 0001H 0432H 0001H 0001H
00:0010 8E-F2                    4393   	pop	pc
                                 4394   CBLOCKEND 133 1 1074
                                 4395   CFUNCTIONEND 133
                                 4396   
                                 4397   
  --------------------------     4398   	rseg $$_funcI2CFin$main
                                 4399   CFUNCTION 134
                                 4400   
00:0000                          4401   __funcI2CFin	:
                                 4402   CBLOCK 134 1 1085
                                 4403   
                                 4404   ;;{
                                 4405   CLINEA 0000H 0001H 043DH 0001H 0001H
00:0000 CE-F8                    4406   	push	lr
                                 4407   CBLOCK 134 2 1085
                                 4408   CRET 0000H
                                 4409   CARGUMENT 46H 0002H 0000H "size" 02H 00H 01H
                                 4410   CARGUMENT 46H 0001H 0000H "errStat" 02H 00H 00H
                                 4411   
                                 4412   ;;	i2c_continue();					// Function in UART.c: process to continue send and receive...
                                 4413   CLINEA 0000H 0001H 043EH 0002H 0053H
00:0002 01-F0'00-00'             4414   	bl	_i2c_continue
                                 4415   
                                 4416   ;;	_flgI2CFin = (unsigned char)FLG_SET;
                                 4417   CLINEA 0000H 0001H 043FH 0002H 0025H
00:0006 01 00                    4418   	mov	r0,	#01h
00:0008 11-90 00-00'             4419   	st	r0,	NEAR __flgI2CFin
                                 4420   
                                 4421   ;;	main_reqNotHalt();				// uncommented 5/2/2013
                                 4422   CLINEA 0000H 0001H 0440H 0002H 002EH
00:000C 01-F0'00-00'             4423   	bl	_main_reqNotHalt
                                 4424   CBLOCKEND 134 2 1089
                                 4425   
                                 4426   ;;}
                                 4427   CLINEA 0000H 0001H 0441H 0001H 0001H
00:0010 8E-F2                    4428   	pop	pc
                                 4429   CBLOCKEND 134 1 1089
                                 4430   CFUNCTIONEND 134
                                 4431   
                                 4432   
  --------------------------     4433   	rseg $$_intI2c$main
                                 4434   CFUNCTION 138
                                 4435   
00:0000                          4436   __intI2c	:
                                 4437   CBLOCK 138 1 1099
                                 4438   
                                 4439   ;;{
                                 4440   CLINEA 0000H 0001H 044BH 0001H 0001H
00:0000 CE-F8                    4441   	push	lr
                                 4442   CBLOCK 138 2 1099
                                 4443   CRET 0000H
                                 4444   
                                 4445   ;;	(void)i2c_continue();
                                 4446   CLINEA 0000H 0001H 044CH 0002H 0016H
00:0002 01-F0'00-00'             4447   	bl	_i2c_continue
                                 4448   
                                 4449   ;;	main_reqNotHalt();
                                 4450   CLINEA 0000H 0001H 044DH 0002H 0013H
00:0006 01-F0'00-00'             4451   	bl	_main_reqNotHalt
                                 4452   CBLOCKEND 138 2 1102
                                 4453   
                                 4454   ;;}
                                 4455   CLINEA 0000H 0001H 044EH 0001H 0001H
00:000A 8E-F2                    4456   	pop	pc
                                 4457   CBLOCKEND 138 1 1102
                                 4458   CFUNCTIONEND 138
                                 4459   
                                 4460   
  --------------------------     4461   	rseg $$checkI2C$main
                                 4462   CFUNCTION 135
                                 4463   
00:0000                          4464   _checkI2C	:
                                 4465   CBLOCK 135 1 1112
                                 4466   
                                 4467   ;;{
                                 4468   CLINEA 0000H 0001H 0458H 0001H 0001H
00:0000 CE-F8                    4469   	push	lr
                                 4470   CBLOCK 135 2 1112
                                 4471   CRET 0000H
                                 4472   CLOCAL 47H 0002H 0024H 0002H "ret" 02H 00H 01H
                                 4473   
                                 4474   ;;	while (ret != 1) {
                                 4475   CLINEA 0000H 0000H 045DH 0002H 0013H
00:0002                          4476   _$L488 :
                                 4477   CBLOCK 135 3 1117
                                 4478   
                                 4479   ;;		ret = i2c_continue();
                                 4480   CLINEA 0000H 0000H 045EH 0003H 0017H
00:0002 01-F0'00-00'             4481   	bl	_i2c_continue
                                 4482   CBLOCK 135 4 1119
                                 4483   CBLOCKEND 135 4 1121
                                 4484   CBLOCKEND 135 3 1122
                                 4485   
                                 4486   ;;	while (ret != 1) {
                                 4487   CLINEA 0000H 0000H 045DH 001BH 0022H
00:0006 01 70                    4488   	cmp	r0,	#01h
00:0008 00 51                    4489   	cmpc	r1,	#00h
00:000A FB C8                    4490   	bne	_$L488
                                 4491   CBLOCKEND 135 2 1123
                                 4492   
                                 4493   ;;}
                                 4494   CLINEA 0000H 0001H 0463H 0001H 0001H
00:000C 8E-F2                    4495   	pop	pc
                                 4496   CBLOCKEND 135 1 1123
                                 4497   CFUNCTIONEND 135
                                 4498   
                                 4499   
  --------------------------     4500   	rseg $$main_reqNotHalt$main
                                 4501   CFUNCTION 136
                                 4502   
00:0000                          4503   _main_reqNotHalt	:
                                 4504   CBLOCK 136 1 1133
                                 4505   
                                 4506   ;;{
                                 4507   CLINEA 0000H 0001H 046DH 0001H 0001H
                                 4508   CBLOCK 136 2 1133
                                 4509   
                                 4510   ;;	_reqNotHalt = (unsigned char)FLG_SET;
                                 4511   CLINEA 0000H 0001H 046EH 0002H 0026H
00:0000 01 00                    4512   	mov	r0,	#01h
00:0002 11-90 00-00'             4513   	st	r0,	NEAR __reqNotHalt
                                 4514   CBLOCKEND 136 2 1135
                                 4515   
                                 4516   ;;}
                                 4517   CLINEA 0000H 0001H 046FH 0001H 0001H
00:0006 1F-FE                    4518   	rt
                                 4519   CBLOCKEND 136 1 1135
                                 4520   CFUNCTIONEND 136
                                 4521   
                                 4522   
  --------------------------     4523   	rseg $$_intUart$main
                                 4524   CFUNCTION 137
                                 4525   
00:0000                          4526   __intUart	:
                                 4527   CBLOCK 137 1 1145
                                 4528   
                                 4529   ;;{
                                 4530   CLINEA 0000H 0001H 0479H 0001H 0001H
                                 4531   CBLOCK 137 2 1145
                                 4532   
                                 4533   ;;		uart_continue(); //in UART.c: process to continue send and receive...
                                 4534   CLINEA 0000H 0001H 047AH 0003H 0047H
00:0000 00-F0'00-00'             4535   	b	_uart_continue
                                 4536   CBLOCKEND 137 2 1147
                                 4537   CLINEA 0000H 0001H 047BH 0001H 0001H
                                 4538   CBLOCKEND 137 1 1147
                                 4539   CFUNCTIONEND 137
                                 4540   
                                 4541   
  --------------------------     4542   	rseg $$SetOSC$main
                                 4543   CFUNCTION 126
                                 4544   
00:0000                          4545   _SetOSC	:
                                 4546   CBLOCK 126 1 1152
                                 4547   
                                 4548   ;;static void SetOSC(void){
                                 4549   CLINEA 0000H 0001H 0480H 0001H 0019H
                                 4550   CBLOCK 126 2 1152
                                 4551   
                                 4552   ;;	SYSC0 = 0;			// Used to select the frequency of the HSCLK => 00=8.192MHz.
                                 4553   CLINEA 0000H 0001H 0489H 0002H 004AH
00:0000 82-A0 02-F0              4554   	rb	0f002h.0
                                 4555   
                                 4556   ;;	SYSC1 = 0;
                                 4557   CLINEA 0000H 0001H 048AH 0002H 000BH
00:0004 92-A0 02-F0              4558   	rb	0f002h.1
                                 4559   
                                 4560   ;;	OSCM1 = 1;			// 10 => Built-in PLL oscillation mode
                                 4561   CLINEA 0000H 0001H 048CH 0002H 0034H
00:0008 B0-A0 02-F0              4562   	sb	0f002h.3
                                 4563   
                                 4564   ;;	OSCM0 = 0;
                                 4565   CLINEA 0000H 0001H 048DH 0002H 000BH
00:000C A2-A0 02-F0              4566   	rb	0f002h.2
                                 4567   
                                 4568   ;;	ENOSC = 1;			//1=Enable High Speed Oscillator...
                                 4569   CLINEA 0000H 0001H 048FH 0002H 0031H
00:0010 90-A0 03-F0              4570   	sb	0f003h.1
                                 4571   
                                 4572   ;;	SYSCLK = 1;			//1=HSCLK; 0=LSCLK 
                                 4573   CLINEA 0000H 0001H 0490H 0002H 0022H
00:0014 80-A0 03-F0              4574   	sb	0f003h.0
                                 4575   
                                 4576   ;;	LPLL = 1;			//1=Enables the use of PLL oscillation - ADDED 4/30/2013
                                 4577   CLINEA 0000H 0001H 0492H 0002H 0045H
00:0018 F0-A0 03-F0              4578   	sb	0f003h.7
                                 4579   
                                 4580   ;;	__EI();			//INT enable
                                 4581   CLINEA 0000H 0001H 0494H 0002H 0017H
00:001C 08-ED                    4582   	ei
                                 4583   CBLOCKEND 126 2 1174
                                 4584   
                                 4585   ;;}
                                 4586   CLINEA 0000H 0001H 0496H 0001H 0001H
00:001E 1F-FE                    4587   	rt
                                 4588   CBLOCKEND 126 1 1174
                                 4589   CFUNCTIONEND 126
                                 4590   
                                 4591   
  --------------------------     4592   	rseg $$analog_comparator$main
                                 4593   CFUNCTION 127
                                 4594   
00:0000                          4595   _analog_comparator	:
                                 4596   CBLOCK 127 1 1181
                                 4597   
                                 4598   ;;void analog_comparator(void){
                                 4599   CLINEA 0000H 0001H 049DH 0001H 001DH
                                 4600   CBLOCK 127 2 1181
                                 4601   
                                 4602   ;;	CMP0EN  = 0x01; 	// Comparator ON...
                                 4603   CLINEA 0000H 0001H 04B3H 0002H 0025H
00:0000 80-A0 50-F9              4604   	sb	0f950h.0
                                 4605   
                                 4606   ;;	CMP0E1  = 0x00; 	// No Interupt...
                                 4607   CLINEA 0000H 0001H 04B4H 0002H 0023H
00:0004 92-A0 51-F9              4608   	rb	0f951h.1
                                 4609   
                                 4610   ;;	CMP0E0  = 0x00;
                                 4611   CLINEA 0000H 0001H 04B5H 0002H 0010H
00:0008 82-A0 51-F9              4612   	rb	0f951h.0
                                 4613   
                                 4614   ;;	CMP0SM1 = 0x00; 	// Detect without Sampling... 
                                 4615   CLINEA 0000H 0001H 04B6H 0002H 0030H
00:000C B2-A0 51-F9              4616   	rb	0f951h.3
                                 4617   
                                 4618   ;;	CMP0RFS = 0x01; 	// Differential Input on B5
                                 4619   CLINEA 0000H 0001H 04B7H 0002H 002DH
00:0010 C0-A0 51-F9              4620   	sb	0f951h.4
                                 4621   
                                 4622   ;;	CMP0EN  = 0x00;
                                 4623   CLINEA 0000H 0001H 04BAH 0002H 0010H
00:0014 82-A0 50-F9              4624   	rb	0f950h.0
                                 4625   CBLOCKEND 127 2 1213
                                 4626   
                                 4627   ;;}
                                 4628   CLINEA 0000H 0001H 04BDH 0001H 0001H
00:0018 1F-FE                    4629   	rt
                                 4630   CBLOCKEND 127 1 1213
                                 4631   CFUNCTIONEND 127
                                 4632   
                                 4633   
  --------------------------     4634   	rseg $$PortA_Low$main
                                 4635   CFUNCTION 128
                                 4636   
00:0000                          4637   _PortA_Low	:
                                 4638   CBLOCK 128 1 1221
                                 4639   
                                 4640   ;;void PortA_Low(void){
                                 4641   CLINEA 0000H 0001H 04C5H 0001H 0015H
                                 4642   CBLOCK 128 2 1221
                                 4643   
                                 4644   ;;	PA0DIR = 0;		// PortA Bit0 set to Output Mode...
                                 4645   CLINEA 0000H 0001H 04CFH 0002H 0031H
00:0000 82-A0 51-F2              4646   	rb	0f251h.0
                                 4647   
                                 4648   ;;	PA1DIR = 0;		// PortA Bit1 set to Output Mode...
                                 4649   CLINEA 0000H 0001H 04D0H 0002H 0031H
00:0004 92-A0 51-F2              4650   	rb	0f251h.1
                                 4651   
                                 4652   ;;	PA2DIR = 0;		// PortA Bit2 set to Output Mode...
                                 4653   CLINEA 0000H 0001H 04D1H 0002H 0031H
00:0008 A2-A0 51-F2              4654   	rb	0f251h.2
                                 4655   
                                 4656   ;;	PA0C1  = 1;		// PortA Bit0 set to CMOS Output...
                                 4657   CLINEA 0000H 0001H 04D4H 0002H 0031H
00:000C 80-A0 53-F2              4658   	sb	0f253h.0
                                 4659   
                                 4660   ;;	PA0C0  = 1;		
                                 4661   CLINEA 0000H 0001H 04D5H 0002H 000EH
00:0010 80-A0 52-F2              4662   	sb	0f252h.0
                                 4663   
                                 4664   ;;	PA1C1  = 1;		// PortA Bit1 set to CMOS Output...
                                 4665   CLINEA 0000H 0001H 04D6H 0002H 0031H
00:0014 90-A0 53-F2              4666   	sb	0f253h.1
                                 4667   
                                 4668   ;;	PA1C0  = 1;	
                                 4669   CLINEA 0000H 0001H 04D7H 0002H 000DH
00:0018 90-A0 52-F2              4670   	sb	0f252h.1
                                 4671   
                                 4672   ;;	PA2C1  = 1;		// PortA Bit2 set to CMOS Output...
                                 4673   CLINEA 0000H 0001H 04D8H 0002H 0031H
00:001C A0-A0 53-F2              4674   	sb	0f253h.2
                                 4675   
                                 4676   ;;	PA2C0  = 1;	
                                 4677   CLINEA 0000H 0001H 04D9H 0002H 000DH
00:0020 A0-A0 52-F2              4678   	sb	0f252h.2
                                 4679   
                                 4680   ;;	PA0MD1  = 0;	// PortA Bit0 set to General Purpose Output...
                                 4681   CLINEA 0000H 0001H 04DCH 0002H 003CH
00:0024 82-A0 55-F2              4682   	rb	0f255h.0
                                 4683   
                                 4684   ;;	PA0MD0  = 0;	
                                 4685   CLINEA 0000H 0001H 04DDH 0002H 000EH
00:0028 82-A0 54-F2              4686   	rb	0f254h.0
                                 4687   
                                 4688   ;;	PA1MD1  = 0;	// PortA Bit1 set to General Purpose Output...
                                 4689   CLINEA 0000H 0001H 04DEH 0002H 003CH
00:002C 92-A0 55-F2              4690   	rb	0f255h.1
                                 4691   
                                 4692   ;;	PA1MD0  = 0;	
                                 4693   CLINEA 0000H 0001H 04DFH 0002H 000EH
00:0030 92-A0 54-F2              4694   	rb	0f254h.1
                                 4695   
                                 4696   ;;	PA2MD1  = 0;	// PortA Bit2 set to General Purpose Output...
                                 4697   CLINEA 0000H 0001H 04E0H 0002H 003CH
00:0034 A2-A0 55-F2              4698   	rb	0f255h.2
                                 4699   
                                 4700   ;;	PA2MD0  = 0;	
                                 4701   CLINEA 0000H 0001H 04E1H 0002H 000EH
00:0038 A2-A0 54-F2              4702   	rb	0f254h.2
                                 4703   
                                 4704   ;;	PA0D = 0;		// A.0 Output OFF....
                                 4705   CLINEA 0000H 0001H 04E4H 0002H 0021H
00:003C 82-A0 50-F2              4706   	rb	0f250h.0
                                 4707   
                                 4708   ;;	PA1D = 0;		// A.1 Output OFF....
                                 4709   CLINEA 0000H 0001H 04E5H 0002H 0021H
00:0040 92-A0 50-F2              4710   	rb	0f250h.1
                                 4711   
                                 4712   ;;	PA2D = 0;		// A.2 Output OFF....
                                 4713   CLINEA 0000H 0001H 04E6H 0002H 0021H
00:0044 A2-A0 50-F2              4714   	rb	0f250h.2
                                 4715   
                                 4716   ;;	main_clrWDT(); 	// Clear WDT
                                 4717   CLINEA 0000H 0001H 04E8H 0002H 001DH
00:0048 00-F0'00-00'             4718   	b	_main_clrWDT
                                 4719   CBLOCKEND 128 2 1258
                                 4720   CLINEA 0000H 0001H 04EAH 0001H 0001H
                                 4721   CBLOCKEND 128 1 1258
                                 4722   CFUNCTIONEND 128
                                 4723   
                                 4724   
  --------------------------     4725   	rseg $$PortB_Low$main
                                 4726   CFUNCTION 129
                                 4727   
00:0000                          4728   _PortB_Low	:
                                 4729   CBLOCK 129 1 1264
                                 4730   
                                 4731   ;;void PortB_Low(void){
                                 4732   CLINEA 0000H 0001H 04F0H 0001H 0015H
                                 4733   CBLOCK 129 2 1264
                                 4734   
                                 4735   ;;	PB0DIR = 0;		// PortB Bit0 set to Output Mode...
                                 4736   CLINEA 0000H 0001H 04FAH 0002H 0031H
00:0000 82-A0 59-F2              4737   	rb	0f259h.0
                                 4738   
                                 4739   ;;	PB1DIR = 0;		// PortB Bit1 set to Output Mode...
                                 4740   CLINEA 0000H 0001H 04FBH 0002H 0031H
00:0004 92-A0 59-F2              4741   	rb	0f259h.1
                                 4742   
                                 4743   ;;	PB2DIR = 0;		// PortB Bit2 set to Output Mode...
                                 4744   CLINEA 0000H 0001H 04FCH 0002H 0031H
00:0008 A2-A0 59-F2              4745   	rb	0f259h.2
                                 4746   
                                 4747   ;;	PB3DIR = 0;		// PortB Bit3 set to Output Mode...
                                 4748   CLINEA 0000H 0001H 04FDH 0002H 0031H
00:000C B2-A0 59-F2              4749   	rb	0f259h.3
                                 4750   
                                 4751   ;;	PB4DIR = 0;		// PortB Bit4 set to Output Mode...
                                 4752   CLINEA 0000H 0001H 04FEH 0002H 0031H
00:0010 C2-A0 59-F2              4753   	rb	0f259h.4
                                 4754   
                                 4755   ;;	PB5DIR = 0;		// PortB Bit5 set to Output Mode...
                                 4756   CLINEA 0000H 0001H 04FFH 0002H 0031H
00:0014 D2-A0 59-F2              4757   	rb	0f259h.5
                                 4758   
                                 4759   ;;	PB6DIR = 0;		// PortB Bit6 set to Output Mode...
                                 4760   CLINEA 0000H 0001H 0500H 0002H 0031H
00:0018 E2-A0 59-F2              4761   	rb	0f259h.6
                                 4762   
                                 4763   ;;	PB7DIR = 0;		// PortB Bit7 set to Output Mode...
                                 4764   CLINEA 0000H 0001H 0501H 0002H 0031H
00:001C F2-A0 59-F2              4765   	rb	0f259h.7
                                 4766   
                                 4767   ;;	PB0C1  = 1;		// PortB Bit0 set to CMOS Output...
                                 4768   CLINEA 0000H 0001H 0504H 0002H 0031H
00:0020 80-A0 5B-F2              4769   	sb	0f25bh.0
                                 4770   
                                 4771   ;;	PB0C0  = 1;		
                                 4772   CLINEA 0000H 0001H 0505H 0002H 000EH
00:0024 80-A0 5A-F2              4773   	sb	0f25ah.0
                                 4774   
                                 4775   ;;	PB1C1  = 1;		// PortB Bit1 set to CMOS Output...
                                 4776   CLINEA 0000H 0001H 0506H 0002H 0031H
00:0028 90-A0 5B-F2              4777   	sb	0f25bh.1
                                 4778   
                                 4779   ;;	PB1C0  = 1;	
                                 4780   CLINEA 0000H 0001H 0507H 0002H 000DH
00:002C 90-A0 5A-F2              4781   	sb	0f25ah.1
                                 4782   
                                 4783   ;;	PB2C1  = 1;		// PortB Bit2 set to CMOS Output...
                                 4784   CLINEA 0000H 0001H 0508H 0002H 0031H
00:0030 A0-A0 5B-F2              4785   	sb	0f25bh.2
                                 4786   
                                 4787   ;;	PB2C0  = 1;	
                                 4788   CLINEA 0000H 0001H 0509H 0002H 000DH
00:0034 A0-A0 5A-F2              4789   	sb	0f25ah.2
                                 4790   
                                 4791   ;;	PB3C1  = 1;		// PortB Bit3 set to CMOS Output...
                                 4792   CLINEA 0000H 0001H 050AH 0002H 0031H
00:0038 B0-A0 5B-F2              4793   	sb	0f25bh.3
                                 4794   
                                 4795   ;;	PB3C0  = 1;		
                                 4796   CLINEA 0000H 0001H 050BH 0002H 000EH
00:003C B0-A0 5A-F2              4797   	sb	0f25ah.3
                                 4798   
                                 4799   ;;	PB4C1  = 1;		// PortB Bit4 set to CMOS Output...
                                 4800   CLINEA 0000H 0001H 050CH 0002H 0031H
00:0040 C0-A0 5B-F2              4801   	sb	0f25bh.4
                                 4802   
                                 4803   ;;	PB4C0  = 1;	
                                 4804   CLINEA 0000H 0001H 050DH 0002H 000DH
00:0044 C0-A0 5A-F2              4805   	sb	0f25ah.4
                                 4806   
                                 4807   ;;	PB5C1  = 1;		// PortB Bit5 set to CMOS Output...
                                 4808   CLINEA 0000H 0001H 050EH 0002H 0031H
00:0048 D0-A0 5B-F2              4809   	sb	0f25bh.5
                                 4810   
                                 4811   ;;	PB5C0  = 1;	
                                 4812   CLINEA 0000H 0001H 050FH 0002H 000DH
00:004C D0-A0 5A-F2              4813   	sb	0f25ah.5
                                 4814   
                                 4815   ;;	PB6C1  = 1;		// PortB Bit6 set to CMOS Output...
                                 4816   CLINEA 0000H 0001H 0510H 0002H 0031H
00:0050 E0-A0 5B-F2              4817   	sb	0f25bh.6
                                 4818   
                                 4819   ;;	PB6C0  = 1;	
                                 4820   CLINEA 0000H 0001H 0511H 0002H 000DH
00:0054 E0-A0 5A-F2              4821   	sb	0f25ah.6
                                 4822   
                                 4823   ;;	PB7C1  = 1;		// PortB Bit7 set to CMOS Output...
                                 4824   CLINEA 0000H 0001H 0512H 0002H 0031H
00:0058 F0-A0 5B-F2              4825   	sb	0f25bh.7
                                 4826   
                                 4827   ;;	PB7C0  = 1;	
                                 4828   CLINEA 0000H 0001H 0513H 0002H 000DH
00:005C F0-A0 5A-F2              4829   	sb	0f25ah.7
                                 4830   
                                 4831   ;;	PB0MD1  = 0;	// PortB Bit0 set to General Purpose Output...
                                 4832   CLINEA 0000H 0001H 0516H 0002H 003CH
00:0060 82-A0 5D-F2              4833   	rb	0f25dh.0
                                 4834   
                                 4835   ;;	PB0MD0  = 0;	
                                 4836   CLINEA 0000H 0001H 0517H 0002H 000EH
00:0064 82-A0 5C-F2              4837   	rb	0f25ch.0
                                 4838   
                                 4839   ;;	PB1MD1  = 0;	// PortB Bit1 set to General Purpose Output...
                                 4840   CLINEA 0000H 0001H 0518H 0002H 003CH
00:0068 92-A0 5D-F2              4841   	rb	0f25dh.1
                                 4842   
                                 4843   ;;	PB1MD0  = 0;	
                                 4844   CLINEA 0000H 0001H 0519H 0002H 000EH
00:006C 92-A0 5C-F2              4845   	rb	0f25ch.1
                                 4846   
                                 4847   ;;	PB2MD1  = 0;	// PortB Bit2 set to General Purpose Output...
                                 4848   CLINEA 0000H 0001H 051AH 0002H 003CH
00:0070 A2-A0 5D-F2              4849   	rb	0f25dh.2
                                 4850   
                                 4851   ;;	PB2MD0  = 0;	
                                 4852   CLINEA 0000H 0001H 051BH 0002H 000EH
00:0074 A2-A0 5C-F2              4853   	rb	0f25ch.2
                                 4854   
                                 4855   ;;	PB3MD1  = 0;	// PortB Bit3 set to General Purpose Output...
                                 4856   CLINEA 0000H 0001H 051CH 0002H 003CH
00:0078 B2-A0 5D-F2              4857   	rb	0f25dh.3
                                 4858   
                                 4859   ;;	PB3MD0  = 0;	
                                 4860   CLINEA 0000H 0001H 051DH 0002H 000EH
00:007C B2-A0 5C-F2              4861   	rb	0f25ch.3
                                 4862   
                                 4863   ;;	PB4MD1  = 0;	// PortB Bit4 set to General Purpose Output...
                                 4864   CLINEA 0000H 0001H 051EH 0002H 003CH
00:0080 C2-A0 5D-F2              4865   	rb	0f25dh.4
                                 4866   
                                 4867   ;;	PB4MD0  = 0;	
                                 4868   CLINEA 0000H 0001H 051FH 0002H 000EH
00:0084 C2-A0 5C-F2              4869   	rb	0f25ch.4
                                 4870   
                                 4871   ;;	PB5MD1  = 0;	// PortB Bit5 set to General Purpose Output...
                                 4872   CLINEA 0000H 0001H 0520H 0002H 003CH
00:0088 D2-A0 5D-F2              4873   	rb	0f25dh.5
                                 4874   
                                 4875   ;;	PB5MD0  = 0;
                                 4876   CLINEA 0000H 0001H 0521H 0002H 000DH
00:008C D2-A0 5C-F2              4877   	rb	0f25ch.5
                                 4878   
                                 4879   ;;	PB6MD1  = 0;	// PortB Bit6 set to General Purpose Output...
                                 4880   CLINEA 0000H 0001H 0522H 0002H 003CH
00:0090 E2-A0 5D-F2              4881   	rb	0f25dh.6
                                 4882   
                                 4883   ;;	PB6MD0  = 0;	
                                 4884   CLINEA 0000H 0001H 0523H 0002H 000EH
00:0094 E2-A0 5C-F2              4885   	rb	0f25ch.6
                                 4886   
                                 4887   ;;	PB7MD1  = 0;	// PortB Bit7 set to General Purpose Output...
                                 4888   CLINEA 0000H 0001H 0524H 0002H 003CH
00:0098 F2-A0 5D-F2              4889   	rb	0f25dh.7
                                 4890   
                                 4891   ;;	PB7MD0  = 0;
                                 4892   CLINEA 0000H 0001H 0525H 0002H 000DH
00:009C F2-A0 5C-F2              4893   	rb	0f25ch.7
                                 4894   
                                 4895   ;;	PB0D = 0;		// B.0 Output OFF....
                                 4896   CLINEA 0000H 0001H 0528H 0002H 0021H
00:00A0 82-A0 58-F2              4897   	rb	0f258h.0
                                 4898   
                                 4899   ;;	PB1D = 0;		// B.1 Output OFF....
                                 4900   CLINEA 0000H 0001H 0529H 0002H 0021H
00:00A4 92-A0 58-F2              4901   	rb	0f258h.1
                                 4902   
                                 4903   ;;	PB2D = 0;		// B.2 Output OFF....
                                 4904   CLINEA 0000H 0001H 052AH 0002H 0021H
00:00A8 A2-A0 58-F2              4905   	rb	0f258h.2
                                 4906   
                                 4907   ;;	PB3D = 0;		// B.3 Output OFF....
                                 4908   CLINEA 0000H 0001H 052BH 0002H 0021H
00:00AC B2-A0 58-F2              4909   	rb	0f258h.3
                                 4910   
                                 4911   ;;	PB4D = 0;		// B.4 Output OFF....
                                 4912   CLINEA 0000H 0001H 052CH 0002H 0021H
00:00B0 C2-A0 58-F2              4913   	rb	0f258h.4
                                 4914   
                                 4915   ;;	PB5D = 0;		// B.5 Output OFF....
                                 4916   CLINEA 0000H 0001H 052DH 0002H 0021H
00:00B4 D2-A0 58-F2              4917   	rb	0f258h.5
                                 4918   
                                 4919   ;;	PB6D = 0;		// B.6 Output OFF....
                                 4920   CLINEA 0000H 0001H 052EH 0002H 0021H
00:00B8 E2-A0 58-F2              4921   	rb	0f258h.6
                                 4922   
                                 4923   ;;	PB7D = 0;		// B.7 Output OFF....
                                 4924   CLINEA 0000H 0001H 052FH 0002H 0021H
00:00BC F2-A0 58-F2              4925   	rb	0f258h.7
                                 4926   
                                 4927   ;;	main_clrWDT(); 	// Clear WDT
                                 4928   CLINEA 0000H 0001H 0531H 0002H 001DH
00:00C0 00-F0'00-00'             4929   	b	_main_clrWDT
                                 4930   CBLOCKEND 129 2 1331
                                 4931   CLINEA 0000H 0001H 0533H 0001H 0001H
                                 4932   CBLOCKEND 129 1 1331
                                 4933   CFUNCTIONEND 129
                                 4934   
                                 4935   
  --------------------------     4936   	rseg $$PortC_Low$main
                                 4937   CFUNCTION 130
                                 4938   
00:0000                          4939   _PortC_Low	:
                                 4940   CBLOCK 130 1 1337
                                 4941   
                                 4942   ;;void PortC_Low(void){
                                 4943   CLINEA 0000H 0001H 0539H 0001H 0015H
                                 4944   CBLOCK 130 2 1337
                                 4945   
                                 4946   ;;	PC0DIR = 0;		// PortC Bit0 set to Output Mode...
                                 4947   CLINEA 0000H 0001H 0543H 0002H 0031H
00:0000 82-A0 61-F2              4948   	rb	0f261h.0
                                 4949   
                                 4950   ;;	PC1DIR = 0;		// PortC Bit1 set to Output Mode...
                                 4951   CLINEA 0000H 0001H 0544H 0002H 0031H
00:0004 92-A0 61-F2              4952   	rb	0f261h.1
                                 4953   
                                 4954   ;;	PC2DIR = 0;		// PortC Bit2 set to Output Mode...
                                 4955   CLINEA 0000H 0001H 0545H 0002H 0031H
00:0008 A2-A0 61-F2              4956   	rb	0f261h.2
                                 4957   
                                 4958   ;;	PC3DIR = 0;		// PortC Bit3 set to Output Mode...
                                 4959   CLINEA 0000H 0001H 0546H 0002H 0031H
00:000C B2-A0 61-F2              4960   	rb	0f261h.3
                                 4961   
                                 4962   ;;	PC0C1  = 1;		// PortC Bit0 set to CMOS Output...
                                 4963   CLINEA 0000H 0001H 054AH 0002H 0031H
00:0010 80-A0 63-F2              4964   	sb	0f263h.0
                                 4965   
                                 4966   ;;	PC0C0  = 1;		
                                 4967   CLINEA 0000H 0001H 054BH 0002H 000EH
00:0014 80-A0 62-F2              4968   	sb	0f262h.0
                                 4969   
                                 4970   ;;	PC1C1  = 1;		// PortC Bit1 set to CMOS Output...
                                 4971   CLINEA 0000H 0001H 054CH 0002H 0031H
00:0018 90-A0 63-F2              4972   	sb	0f263h.1
                                 4973   
                                 4974   ;;	PC1C0  = 1;	
                                 4975   CLINEA 0000H 0001H 054DH 0002H 000DH
00:001C 90-A0 62-F2              4976   	sb	0f262h.1
                                 4977   
                                 4978   ;;	PC2C1  = 1;		// PortC Bit2 set to CMOS Output...
                                 4979   CLINEA 0000H 0001H 054EH 0002H 0031H
00:0020 A0-A0 63-F2              4980   	sb	0f263h.2
                                 4981   
                                 4982   ;;	PC2C0  = 1;	
                                 4983   CLINEA 0000H 0001H 054FH 0002H 000DH
00:0024 A0-A0 62-F2              4984   	sb	0f262h.2
                                 4985   
                                 4986   ;;	PC3C1  = 1;		// PortC Bit3 set to CMOS Output...
                                 4987   CLINEA 0000H 0001H 0550H 0002H 0031H
00:0028 B0-A0 63-F2              4988   	sb	0f263h.3
                                 4989   
                                 4990   ;;	PC3C0  = 1;		
                                 4991   CLINEA 0000H 0001H 0551H 0002H 000EH
00:002C B0-A0 62-F2              4992   	sb	0f262h.3
                                 4993   
                                 4994   ;;	PC0MD1  = 0;	// PortC Bit0 set to General Purpose Output...
                                 4995   CLINEA 0000H 0001H 0554H 0002H 003CH
00:0030 82-A0 65-F2              4996   	rb	0f265h.0
                                 4997   
                                 4998   ;;	PC0MD0  = 0;	
                                 4999   CLINEA 0000H 0001H 0555H 0002H 000EH
00:0034 82-A0 64-F2              5000   	rb	0f264h.0
                                 5001   
                                 5002   ;;	PC1MD1  = 0;	// PortC Bit1 set to General Purpose Output...
                                 5003   CLINEA 0000H 0001H 0556H 0002H 003CH
00:0038 92-A0 65-F2              5004   	rb	0f265h.1
                                 5005   
                                 5006   ;;	PC1MD0  = 0;	
                                 5007   CLINEA 0000H 0001H 0557H 0002H 000EH
00:003C 92-A0 64-F2              5008   	rb	0f264h.1
                                 5009   
                                 5010   ;;	PC2MD1  = 0;	// PortC Bit2 set to General Purpose Output...
                                 5011   CLINEA 0000H 0001H 0558H 0002H 003CH
00:0040 A2-A0 65-F2              5012   	rb	0f265h.2
                                 5013   
                                 5014   ;;	PC2MD0  = 0;	
                                 5015   CLINEA 0000H 0001H 0559H 0002H 000EH
00:0044 A2-A0 64-F2              5016   	rb	0f264h.2
                                 5017   
                                 5018   ;;	PC3MD1  = 0;	// PortC Bit3 set to General Purpose Output...
                                 5019   CLINEA 0000H 0001H 055AH 0002H 003CH
00:0048 B2-A0 65-F2              5020   	rb	0f265h.3
                                 5021   
                                 5022   ;;	PC3MD0  = 0;	
                                 5023   CLINEA 0000H 0001H 055BH 0002H 000EH
00:004C B2-A0 64-F2              5024   	rb	0f264h.3
                                 5025   
                                 5026   ;;	PC0D = 0;		// C.0 Output OFF....
                                 5027   CLINEA 0000H 0001H 055EH 0002H 0021H
00:0050 82-A0 60-F2              5028   	rb	0f260h.0
                                 5029   
                                 5030   ;;	PC1D = 0;		// C.1 Output OFF....
                                 5031   CLINEA 0000H 0001H 055FH 0002H 0021H
00:0054 92-A0 60-F2              5032   	rb	0f260h.1
                                 5033   
                                 5034   ;;	PC2D = 0;		// C.2 Output OFF....
                                 5035   CLINEA 0000H 0001H 0560H 0002H 0021H
00:0058 A2-A0 60-F2              5036   	rb	0f260h.2
                                 5037   
                                 5038   ;;	PC3D = 0;		// C.3 Output OFF....
                                 5039   CLINEA 0000H 0001H 0561H 0002H 0021H
00:005C B2-A0 60-F2              5040   	rb	0f260h.3
                                 5041   
                                 5042   ;;	main_clrWDT(); 	// Clear WDT
                                 5043   CLINEA 0000H 0001H 0563H 0002H 001DH
00:0060 00-F0'00-00'             5044   	b	_main_clrWDT
                                 5045   CBLOCKEND 130 2 1381
                                 5046   CLINEA 0000H 0001H 0565H 0001H 0001H
                                 5047   CBLOCKEND 130 1 1381
                                 5048   CFUNCTIONEND 130
                                 5049   
                                 5050   
  --------------------------     5051   	rseg $$PortA_Digital_Inputs$main
                                 5052   CFUNCTION 131
                                 5053   
00:0000                          5054   _PortA_Digital_Inputs	:
                                 5055   CBLOCK 131 1 1387
                                 5056   
                                 5057   ;;void PortA_Digital_Inputs(void){
                                 5058   CLINEA 0000H 0001H 056BH 0001H 0020H
                                 5059   CBLOCK 131 2 1387
                                 5060   
                                 5061   ;;	PA0DIR = 1;		// PortA Bit0 set to Input Mode...
                                 5062   CLINEA 0000H 0001H 0575H 0002H 0030H
00:0000 80-A0 51-F2              5063   	sb	0f251h.0
                                 5064   
                                 5065   ;;	PA1DIR = 1;		// PortA Bit1 set to Input Mode...
                                 5066   CLINEA 0000H 0001H 0576H 0002H 0030H
00:0004 90-A0 51-F2              5067   	sb	0f251h.1
                                 5068   
                                 5069   ;;	PA2DIR = 1;		// PortA Bit2 set to Input Mode...
                                 5070   CLINEA 0000H 0001H 0577H 0002H 0030H
00:0008 A0-A0 51-F2              5071   	sb	0f251h.2
                                 5072   
                                 5073   ;;	PA0C1  = 1;		// PortA Bit0 set to Input with Pull-Up Resistor...
                                 5074   CLINEA 0000H 0001H 057BH 0002H 0041H
00:000C 80-A0 53-F2              5075   	sb	0f253h.0
                                 5076   
                                 5077   ;;	PA0C0  = 0;		
                                 5078   CLINEA 0000H 0001H 057CH 0002H 000EH
00:0010 82-A0 52-F2              5079   	rb	0f252h.0
                                 5080   
                                 5081   ;;	PA1C1  = 1;		// PortA Bit1 set to Input with Pull-Up Resistor...
                                 5082   CLINEA 0000H 0001H 057DH 0002H 0041H
00:0014 90-A0 53-F2              5083   	sb	0f253h.1
                                 5084   
                                 5085   ;;	PA1C0  = 0;	
                                 5086   CLINEA 0000H 0001H 057EH 0002H 000DH
00:0018 92-A0 52-F2              5087   	rb	0f252h.1
                                 5088   
                                 5089   ;;	PA2C1  = 1;		// PortA Bit2 set to Input with Pull-Up Resistor...
                                 5090   CLINEA 0000H 0001H 057FH 0002H 0041H
00:001C A0-A0 53-F2              5091   	sb	0f253h.2
                                 5092   
                                 5093   ;;	PA2C0  = 0;	
                                 5094   CLINEA 0000H 0001H 0580H 0002H 000DH
00:0020 A2-A0 52-F2              5095   	rb	0f252h.2
                                 5096   
                                 5097   ;;	PA0MD1  = 0;	// PortA Bit0 set to General Purpose I/O...
                                 5098   CLINEA 0000H 0001H 0583H 0002H 0039H
00:0024 82-A0 55-F2              5099   	rb	0f255h.0
                                 5100   
                                 5101   ;;	PA0MD0  = 0;	
                                 5102   CLINEA 0000H 0001H 0584H 0002H 000EH
00:0028 82-A0 54-F2              5103   	rb	0f254h.0
                                 5104   
                                 5105   ;;	PA1MD1  = 0;	// PortA Bit1 set to General Purpose I/O...
                                 5106   CLINEA 0000H 0001H 0585H 0002H 0039H
00:002C 92-A0 55-F2              5107   	rb	0f255h.1
                                 5108   
                                 5109   ;;	PA1MD0  = 0;	
                                 5110   CLINEA 0000H 0001H 0586H 0002H 000EH
00:0030 92-A0 54-F2              5111   	rb	0f254h.1
                                 5112   
                                 5113   ;;	PA2MD1  = 0;	// PortA Bit2 set to General Purpose I/O...
                                 5114   CLINEA 0000H 0001H 0587H 0002H 0039H
00:0034 A2-A0 55-F2              5115   	rb	0f255h.2
                                 5116   
                                 5117   ;;	PA2MD0  = 0;	
                                 5118   CLINEA 0000H 0001H 0588H 0002H 000EH
00:0038 A2-A0 54-F2              5119   	rb	0f254h.2
                                 5120   
                                 5121   ;;	main_clrWDT(); 	// Clear WDT
                                 5122   CLINEA 0000H 0001H 058AH 0002H 001DH
00:003C 00-F0'00-00'             5123   	b	_main_clrWDT
                                 5124   CBLOCKEND 131 2 1420
                                 5125   CLINEA 0000H 0001H 058CH 0001H 0001H
                                 5126   CBLOCKEND 131 1 1420
                                 5127   CFUNCTIONEND 131
                                 5128   
                                 5129   
  --------------------------     5130   	rseg $$PinB0_PWM$main
                                 5131   CFUNCTION 132
                                 5132   
00:0000                          5133   _PinB0_PWM	:
                                 5134   CBLOCK 132 1 1428
                                 5135   
                                 5136   ;;void PinB0_PWM(void){
                                 5137   CLINEA 0000H 0001H 0594H 0001H 0015H
                                 5138   CBLOCK 132 2 1428
                                 5139   
                                 5140   ;;	PB0DIR = 0;		// PortB Bit0 set to Output Mode...
                                 5141   CLINEA 0000H 0001H 05A0H 0002H 0031H
00:0000 82-A0 59-F2              5142   	rb	0f259h.0
                                 5143   
                                 5144   ;;	PB0C1  = 1;		// PortB Bit0 set to CMOS Output...
                                 5145   CLINEA 0000H 0001H 05A3H 0002H 0031H
00:0004 80-A0 5B-F2              5146   	sb	0f25bh.0
                                 5147   
                                 5148   ;;	PB0C0  = 1;		
                                 5149   CLINEA 0000H 0001H 05A4H 0002H 000EH
00:0008 80-A0 5A-F2              5150   	sb	0f25ah.0
                                 5151   
                                 5152   ;;	PB0MD1  = 0;	// PortB Bit0 set to PWM Output (0,1)...
                                 5153   CLINEA 0000H 0001H 05A7H 0002H 0036H
00:000C 82-A0 5D-F2              5154   	rb	0f25dh.0
                                 5155   
                                 5156   ;;	PB0MD0  = 1;	
                                 5157   CLINEA 0000H 0001H 05A8H 0002H 000EH
00:0010 80-A0 5C-F2              5158   	sb	0f25ch.0
                                 5159   
                                 5160   ;;	PCCS1 = 0;	//00= LS; 01=HS; 10=PLL
                                 5161   CLINEA 0000H 0001H 05ACH 0002H 0023H
00:0014 92-A0 16-F9              5162   	rb	0f916h.1
                                 5163   
                                 5164   ;;	PCCS0 = 1;
                                 5165   CLINEA 0000H 0001H 05ADH 0002H 000BH
00:0018 80-A0 16-F9              5166   	sb	0f916h.0
                                 5167   
                                 5168   ;;	PWCP = 4250;		// Init Period to (1=255kHz; 10=46kHz; 50=10kHz; 200=2.5kH; ; 3185 = 160Hz; 3400=150Hz; 4250=120Hz; 5000=102Hz)
                                 5169   CLINEA 0000H 0001H 05B0H 0002H 007EH
00:001C 9A 00                    5170   	mov	r0,	#09ah
00:001E 10 01                    5171   	mov	r1,	#010h
00:0020 13-90 10-F9              5172   	st	er0,	0f910h
                                 5173   
                                 5174   ;;	PWCD =    12;		//12    ~  0.25% duty cycle @ 160Hz
                                 5175   CLINEA 0000H 0001H 05BAH 0002H 0033H
00:0024 0C E0                    5176   	mov	er0,	#12
00:0026 13-90 12-F9              5177   	st	er0,	0f912h
                                 5178   
                                 5179   ;;	PCRUN = 0;		// OFF to start
                                 5180   CLINEA 0000H 0001H 05BCH 0002H 001CH
00:002A 82-A0 17-F9              5181   	rb	0f917h.0
                                 5182   CBLOCKEND 132 2 1470
                                 5183   
                                 5184   ;;}
                                 5185   CLINEA 0000H 0001H 05BEH 0001H 0001H
00:002E 1F-FE                    5186   	rt
                                 5187   CBLOCKEND 132 1 1470
                                 5188   CFUNCTIONEND 132
                                 5189   
                                 5190   	public _NackMCUConn
                                 5191   	public _checkI2C
                                 5192   	public _main_clrWDT
                                 5193   	public _main_reqNotHalt
                                 5194   	public _AckMCUConn
                                 5195   	public _InputRec
                                 5196   	public _PortA_Digital_Inputs
                                 5197   	public _main
                                 5198   	public _I2C_RX_Data
                                 5199   	public _ListFWRev
                                 5200   	public _NOP1000
                                 5201   	public _OutputRec
                                 5202   	public _PortC_Low
                                 5203   	public _HelloWorld
                                 5204   	public _PortB_Low
                                 5205   	public _InputStatus
                                 5206   	public _PortA_Low
                                 5207   	public _analog_comparator
                                 5208   	public _I2C_RX_REC
                                 5209   	public _I2C_TX_REC
                                 5210   	public _PinB0_PWM
                                 5211   	_RecWorld comm data 015h #00h
                                 5212   	__flgUartFin comm data 01h #00h
                                 5213   	_testI2C comm data 02h #00h
                                 5214   	_ret comm data 02h #00h
                                 5215   	_UART_VAR comm data 02h #00h
                                 5216   	__flgI2CFin comm data 01h #00h
                                 5217   	__reqNotHalt comm data 01h #00h
                                 5218   	extrn code near : _irq_init
                                 5219   	extrn code near : _uart_PortSet
                                 5220   	extrn code near : _i2c_stop
                                 5221   	extrn code near : _i2c_startReceive
                                 5222   	extrn code near : _uart_startReceive
                                 5223   	extrn code near : _uart_init
                                 5224   	extrn code near : _i2c_continue
                                 5225   	extrn code near : _irq_di
                                 5226   	extrn code near : _irq_ei
                                 5227   	extrn code near : _irq_setHdr
                                 5228   	extrn code near : _uart_stop
                                 5229   	extrn code near : _uart_startSend
                                 5230   	extrn code near : _i2c_startSend
                                 5231   	extrn code near : _uart_continue
                                 5232   	extrn code near : _i2c_init
                                 5233   	extrn code : $$start_up
                                 5234   
  --------------------------     5235   	cseg #00h at 02h
00:0002 00-00'                   5236   	dw	$$start_up
                                 5237   
  --------------------------     5238   	rseg $$NINITTAB
??:0000 48 65 6C 6C 6F 20 57 6F  5239   	DB	"Hello World!  "
??:0008 72 6C 64 21 20 20         >>>   
??:000E 49 4E 50 5F 30 30 30 30  5240   	DB	"INP_00000000_00000000"
??:0016 30 30 30 30 5F 30 30 30   >>>   
??:001E 30 30 30 30 30 00         >>>   , 00H
??:0024 00                       5241   	db	00h
??:0025 49 4E 50 20 52 65 63 65  5242   	DB	"INP Received"
??:002D 69 76 65 64 00            >>>   , 00H
??:0032 00                       5243   	db	00h
??:0033 4F 55 54 20 52 65 63 65  5244   	DB	"OUT Received         "
??:003B 69 76 65 64 20 20 20 20   >>>   
??:0043 20 20 20 20 20 00         >>>   , 00H
??:0049 00                       5245   	db	00h
??:004A 4D 4C 36 31 30 51 31 31  5246   	DB	"ML610Q111 Connected!"
??:0052 31 20 43 6F 6E 6E 65 63   >>>   
??:005A 74 65 64 21 00            >>>   , 00H
??:005F 00                       5247   	db	00h
??:0060 46 69 72 6D 77 61 72 65  5248   	DB	"Firmware Version: 01"
??:0068 20 56 65 72 73 69 6F 6E   >>>   
??:0070 3A 20 30 31 00            >>>   , 00H
??:0075 00                       5249   	db	00h
??:0076 50 6C 65 61 73 65 20 43  5250   	DB	"Please Close Port and change Target MCU under Device Options"
??:007E 6C 6F 73 65 20 50 6F 72   >>>   
??:0086 74 20 61 6E 64 20 63 68   >>>   
??:008E 61 6E 67 65 20 54 61 72   >>>   
??:0096 67 65 74 20 4D 43 55 20   >>>   
??:009E 75 6E 64 65 72 20 44 65   >>>   
??:00A6 76 69 63 65 20 4F 70 74   >>>   
??:00AE 69 6F 6E 73 00            >>>   , 00H
??:00B3 00                       5251   	db	00h
??:00B4 49 32 43 54 58 20 43 4D  5252   	DB	"I2CTX CMD Received!"
??:00BC 44 20 52 65 63 65 69 76   >>>   
??:00C4 65 64 21 00               >>>   , 00H
??:00C8 00                       5253   	db	00h
??:00C9 49 32 43 52 58 20 43 4D  5254   	DB	"I2CRX CMD Received!"
??:00D1 44 20 52 65 63 65 69 76   >>>   
??:00D9 65 64 21 00               >>>   , 00H
??:00DD 00                       5255   	db	00h
??:00DE 49 32 43 2D 52 20 58 20  5256   	DB	"I2C-R X X X X X X X X"
??:00E6 58 20 58 20 58 20 58 20   >>>   
??:00EE 58 20 58 20 58 00         >>>   , 00H
??:00F4 00                       5257   	db	00h
                                 5258   
  --------------------------     5259   	rseg $$TAB_uartSetParam$main
00:0000                          5260   __uartSetParam :
00:0000 80-25                    5261   	dw	02580h
00:0002 00-00                    5262   	dw	00h
00:0004 00                       5263   	db	00h
00:0005 02                       5264   	db	02h
00:0006 00                       5265   	db	00h
00:0007 00                       5266   	db	00h
00:0008 00                       5267   	db	00h
00:0009 00                       5268   	align
                                 5269   
  --------------------------     5270   	rseg $$NINITVAR
00:0000                          5271   _HelloWorld :
00:0000                          5272   	ds	0eh
00:000E                          5273   _InputStatus :
00:000E                          5274   	ds	017h
00:0025                          5275   _InputRec :
00:0025                          5276   	ds	0eh
00:0033                          5277   _OutputRec :
00:0033                          5278   	ds	017h
00:004A                          5279   _AckMCUConn :
00:004A                          5280   	ds	016h
00:0060                          5281   _ListFWRev :
00:0060                          5282   	ds	016h
00:0076                          5283   _NackMCUConn :
00:0076                          5284   	ds	03eh
00:00B4                          5285   _I2C_TX_REC :
00:00B4                          5286   	ds	015h
00:00C9                          5287   _I2C_RX_REC :
00:00C9                          5288   	ds	015h
00:00DE                          5289   _I2C_RX_Data :
00:00DE                          5290   	ds	017h
                                 5291   
  --------------------------     5292   	rseg $$NVARmain
00:0000                          5293   _I2C_BUFF :
00:0000                          5294   	ds	02eh
00:002E                          5295   _I2CNumBytes :
00:002E                          5296   	ds	01h
00:002F                          5297   _Data2Str_temp :
00:002F                          5298   	ds	01h
00:0030                          5299   _RegAddr_temp :
00:0030                          5300   	ds	01h
00:0031                          5301   _Data3Str_temp :
00:0031                          5302   	ds	01h
00:0032                          5303   _I2CReceInfo :
00:0032                          5304   	ds	08h
00:003A                          5305   _Data0Str_temp :
00:003A                          5306   	ds	01h
00:003B                          5307   _Data1Str_temp :
00:003B                          5308   	ds	01h
00:003C                          5309   _Data4Str_temp :
00:003C                          5310   	ds	01h
00:003D                          5311   _Data5Str_temp :
00:003D                          5312   	ds	01h
00:003E                          5313   _Data6Str_temp :
00:003E                          5314   	ds	01h
00:003F                          5315   _Data7Str_temp :
00:003F                          5316   	ds	01h
00:0040                          5317   _I2CNumBytes_temp :
00:0040                          5318   	ds	01h
00:0041                          5319   _Data2Str :
00:0041                          5320   	ds	01h
00:0042                          5321   _Data3Str :
00:0042                          5322   	ds	01h
00:0043                          5323   _RegAddr :
00:0043                          5324   	ds	01h
00:0044                          5325   _Data0Str :
00:0044                          5326   	ds	01h
00:0045                          5327   _Data1Str :
00:0045                          5328   	ds	01h
00:0046                          5329   _I2CAdd :
00:0046                          5330   	ds	01h
00:0047                          5331   _chari :
00:0047                          5332   	ds	01h
00:0048                          5333   _charj :
00:0048                          5334   	ds	01h
00:0049                          5335   _chark :
00:0049                          5336   	ds	01h
00:004A                          5337   _Data6Str :
00:004A                          5338   	ds	01h
00:004B                          5339   	align
00:004C                          5340   _I2CSendInfo :
00:004C                          5341   	ds	08h
00:0054                          5342   _Data7Str :
00:0054                          5343   	ds	01h
00:0055                          5344   _Data4Str :
00:0055                          5345   	ds	01h
00:0056                          5346   _Data5Str :
00:0056                          5347   	ds	01h
00:0057                          5348   _I2CAdd_temp :
00:0057                          5349   	ds	01h
                                 5350   
  --------------------------     5351   	rseg $$NINITTAB
??:00F5 00                       5352   	align
                                 5353   
  --------------------------     5354   	rseg $$NINITVAR
00:00F5                          5355   	align
                                 5356   
                                 5357   	end



  Target       : ML610111 (nX-U8/100)
  Memory Model : SMALL
  Data   Model : NEAR
  ROM WINDOW   : (not specified)
  Internal RAM : E000H to E7FFH

  Errors   : 0
  Warnings : 0  (/Wrpeast)
  Lines    : 5357
